TN:
SF:/Applications/Xcode.app/Contents/Developer/Platforms/MacOSX.platform/Developer/SDKs/MacOSX.sdk/usr/include/___wctype.h
FNL:0,156
FNA:0,0,_Z8towloweri
FNF:1
FNH:0
DA:156,0
DA:158,0
LF:2
LH:0
end_of_record
TN:
SF:/Applications/Xcode.app/Contents/Developer/Platforms/MacOSX.platform/Developer/SDKs/MacOSX.sdk/usr/include/_ctype.h
FNL:0,140
FNA:0,18,_Z7isasciii
FNL:1,158
FNA:1,18,_Z8__istypeim
FNL:2,169
FNA:2,0,_Z9__isctypeim
FNL:3,217
FNA:3,0,_Z7isalnumi
FNL:4,223
FNA:4,0,_Z7isalphai
FNL:5,235
FNA:5,0,_Z7iscntrli
FNL:6,242
FNA:6,0,_Z7isdigiti
FNL:7,254
FNA:7,0,_Z7isloweri
FNL:8,272
FNA:8,18,_Z7isspacei
FNL:9,278
FNA:9,0,_Z7isupperi
FNL:10,285
FNA:10,0,_Z8isxdigiti
FNL:11,297
FNA:11,0,_Z7toloweri
FNL:12,303
FNA:12,7444,_Z7toupperi
FNF:13
FNH:4
DA:140,18
DA:142,18
DA:158,18
DA:163,18
DA:164,0
DA:169,0
DA:174,0
DA:175,0
DA:217,0
DA:219,0
DA:223,0
DA:225,0
DA:235,0
DA:237,0
DA:242,0
DA:244,0
DA:254,0
DA:256,0
DA:272,18
DA:274,18
DA:278,0
DA:280,0
DA:285,0
DA:287,0
DA:297,0
DA:299,0
DA:303,7444
DA:305,7444
LF:28
LH:8
end_of_record
TN:
SF:/Applications/Xcode.app/Contents/Developer/Platforms/MacOSX.platform/Developer/SDKs/MacOSX.sdk/usr/include/_stdio.h
FNL:0,365
FNA:0,6,_Z7__sputciP7__sFILE
FNF:1
FNH:1
DA:365,6
DA:366,6
DA:367,0
DA:369,6
DA:370,6
LF:5
LH:4
end_of_record
TN:
SF:/Applications/Xcode.app/Contents/Developer/Platforms/MacOSX.platform/Developer/SDKs/MacOSX.sdk/usr/include/c++/v1/__algorithm/comp.h
FNL:0,40
FNA:0,0,_ZNKSt3__16__lessIvvEclB8ne200100IPKPN7testing9TestSuiteES7_EEbRKT_RKT0_
FNA:0,4,_ZNKSt3__16__lessIvvEclB8ne200100IPKcS4_EEbRKT_RKT0_
FNA:0,4,_ZNKSt3__16__lessIvvEclB8ne200100IPwS3_EEbRKT_RKT0_
FNA:0,0,_ZNKSt3__16__lessIvvEclB8ne200100IddEEbRKT_RKT0_
FNA:0,70,_ZNKSt3__16__lessIvvEclB8ne200100IiiEEbRKT_RKT0_
FNA:0,0,_ZNKSt3__16__lessIvvEclB8ne200100IllEEbRKT_RKT0_
FNA:0,1705,_ZNKSt3__16__lessIvvEclB8ne200100ImmEEbRKT_RKT0_
FNF:1
FNH:1
DA:40,1783
DA:41,1783
LF:2
LH:2
end_of_record
TN:
SF:/Applications/Xcode.app/Contents/Developer/Platforms/MacOSX.platform/Developer/SDKs/MacOSX.sdk/usr/include/c++/v1/__algorithm/copy.h
FNL:0,101
FNA:0,0,_ZNKSt3__111__copy_implclB8ne200100IN7testing8internal13edit_distance8EditTypeES5_Li0EEENS_4pairIPT_PT0_EES8_S8_SA_
FNA:0,5,_ZNKSt3__111__copy_implclB8ne200100IccLi0EEENS_4pairIPT_PT0_EES4_S4_S6_
FNA:0,0,_ZNKSt3__111__copy_implclB8ne200100IddLi0EEENS_4pairIPT_PT0_EES4_S4_S6_
FNA:0,5,_ZNKSt3__111__copy_implclB8ne200100IiiLi0EEENS_4pairIPT_PT0_EES4_S4_S6_
FNL:1,108
FNA:1,2,_ZNSt3__16__copyB8ne200100IPKbS2_NS_14__bit_iteratorINS_6vectorIbNS_9allocatorIbEEEELb0ELm0EEEEENS_4pairIT_T1_EESA_T0_SB_
FNA:1,7,_ZNSt3__16__copyB8ne200100IPKcS2_N3fmt3v1214basic_appenderIcEEEENS_4pairIT_T1_EES8_T0_S9_
FNA:1,0,_ZNSt3__16__copyB8ne200100IPKcS2_N3fmt3v1214basic_appenderIwEEEENS_4pairIT_T1_EES8_T0_S9_
FNA:1,0,_ZNSt3__16__copyB8ne200100IPN7testing8internal13edit_distance8EditTypeES5_S5_EENS_4pairIT_T1_EES7_T0_S8_
FNA:1,5,_ZNSt3__16__copyB8ne200100IPcS1_S1_EENS_4pairIT_T1_EES3_T0_S4_
FNA:1,0,_ZNSt3__16__copyB8ne200100IPdS1_S1_EENS_4pairIT_T1_EES3_T0_S4_
FNA:1,5,_ZNSt3__16__copyB8ne200100IPiS1_S1_EENS_4pairIT_T1_EES3_T0_S4_
FNL:2,114
FNA:2,7,_ZNSt3__14copyB8ne200100IPKcN3fmt3v1214basic_appenderIcEEEET0_T_S8_S7_
FNA:2,0,_ZNSt3__14copyB8ne200100IPKcN3fmt3v1214basic_appenderIwEEEET0_T_S8_S7_
FNA:2,0,_ZNSt3__14copyB8ne200100IPN7testing8internal13edit_distance8EditTypeES5_EET0_T_S7_S6_
FNA:2,5,_ZNSt3__14copyB8ne200100IPcS1_EET0_T_S3_S2_
FNA:2,0,_ZNSt3__14copyB8ne200100IPdS1_EET0_T_S3_S2_
FNA:2,5,_ZNSt3__14copyB8ne200100IPiS1_EET0_T_S3_S2_
FNL:3,38
FNA:3,2,_ZNKSt3__111__copy_implclB8ne200100IPKbS3_NS_14__bit_iteratorINS_6vectorIbNS_9allocatorIbEEEELb0ELm0EEEEENS_4pairIT_T1_EESB_T0_SC_
FNA:3,7,_ZNKSt3__111__copy_implclB8ne200100IPKcS3_N3fmt3v1214basic_appenderIcEEEENS_4pairIT_T1_EES9_T0_SA_
FNA:3,0,_ZNKSt3__111__copy_implclB8ne200100IPKcS3_N3fmt3v1214basic_appenderIwEEEENS_4pairIT_T1_EES9_T0_SA_
FNF:4
FNH:4
DA:38,9
DA:39,34
DA:40,25
DA:41,25
DA:42,25
DA:45,9
DA:101,10
DA:102,10
DA:108,19
DA:109,19
DA:114,17
DA:115,17
LF:12
LH:12
end_of_record
TN:
SF:/Applications/Xcode.app/Contents/Developer/Platforms/MacOSX.platform/Developer/SDKs/MacOSX.sdk/usr/include/c++/v1/__algorithm/copy_move_common.h
FNL:0,61
FNA:0,0,_ZNSt3__119__copy_trivial_implB8ne200100IN3fmt3v1216basic_format_argINS2_7contextEEES5_EENS_4pairIPT_PT0_EES8_S8_SA_
FNA:0,0,_ZNSt3__119__copy_trivial_implB8ne200100IN7testing8internal13edit_distance8EditTypeES4_EENS_4pairIPT_PT0_EES7_S7_S9_
FNA:0,0,_ZNSt3__119__copy_trivial_implB8ne200100IPN7testing17TestEventListenerES3_EENS_4pairIPT_PT0_EES6_S6_S8_
FNA:0,0,_ZNSt3__119__copy_trivial_implB8ne200100IPN7testing9TestSuiteES3_EENS_4pairIPT_PT0_EES6_S6_S8_
FNA:0,0,_ZNSt3__119__copy_trivial_implB8ne200100IPcS1_EENS_4pairIPT_PT0_EES4_S4_S6_
FNA:0,0,_ZNSt3__119__copy_trivial_implB8ne200100IPiS1_EENS_4pairIPT_PT0_EES4_S4_S6_
FNA:0,5,_ZNSt3__119__copy_trivial_implB8ne200100IccEENS_4pairIPT_PT0_EES3_S3_S5_
FNA:0,0,_ZNSt3__119__copy_trivial_implB8ne200100IddEENS_4pairIPT_PT0_EES3_S3_S5_
FNA:0,5,_ZNSt3__119__copy_trivial_implB8ne200100IiiEENS_4pairIPT_PT0_EES3_S3_S5_
FNL:1,71
FNA:1,1,_ZNSt3__128__copy_backward_trivial_implB8ne200100IN3fmt3v1216basic_format_argINS2_7contextEEES5_EENS_4pairIPT_PT0_EES8_S8_SA_
FNA:1,0,_ZNSt3__128__copy_backward_trivial_implB8ne200100IPN7testing9TestSuiteES3_EENS_4pairIPT_PT0_EES6_S6_S8_
FNA:1,0,_ZNSt3__128__copy_backward_trivial_implB8ne200100IPcS1_EENS_4pairIPT_PT0_EES4_S4_S6_
FNA:1,0,_ZNSt3__128__copy_backward_trivial_implB8ne200100IPiS1_EENS_4pairIPT_PT0_EES4_S4_S6_
FNL:2,92
FNA:2,2,_ZNSt3__124__copy_move_unwrap_itersB8ne200100INS_11__copy_implEPKbS3_NS_14__bit_iteratorINS_6vectorIbNS_9allocatorIbEEEELb0ELm0EEELi0EEENS_4pairIT0_T2_EESB_T1_SC_
FNA:2,7,_ZNSt3__124__copy_move_unwrap_itersB8ne200100INS_11__copy_implEPKcS3_N3fmt3v1214basic_appenderIcEELi0EEENS_4pairIT0_T2_EES9_T1_SA_
FNA:2,0,_ZNSt3__124__copy_move_unwrap_itersB8ne200100INS_11__copy_implEPKcS3_N3fmt3v1214basic_appenderIwEELi0EEENS_4pairIT0_T2_EES9_T1_SA_
FNA:2,0,_ZNSt3__124__copy_move_unwrap_itersB8ne200100INS_11__copy_implEPN7testing8internal13edit_distance8EditTypeES6_S6_Li0EEENS_4pairIT0_T2_EES8_T1_S9_
FNA:2,5,_ZNSt3__124__copy_move_unwrap_itersB8ne200100INS_11__copy_implEPcS2_S2_Li0EEENS_4pairIT0_T2_EES4_T1_S5_
FNA:2,0,_ZNSt3__124__copy_move_unwrap_itersB8ne200100INS_11__copy_implEPdS2_S2_Li0EEENS_4pairIT0_T2_EES4_T1_S5_
FNA:2,5,_ZNSt3__124__copy_move_unwrap_itersB8ne200100INS_11__copy_implEPiS2_S2_Li0EEENS_4pairIT0_T2_EES4_T1_S5_
FNA:2,0,_ZNSt3__124__copy_move_unwrap_itersB8ne200100INS_11__move_implINS_17_ClassicAlgPolicyEEEPN3fmt3v1216basic_format_argINS5_7contextEEES9_S9_Li0EEENS_4pairIT0_T2_EESB_T1_SC_
FNA:2,0,_ZNSt3__124__copy_move_unwrap_itersB8ne200100INS_11__move_implINS_17_ClassicAlgPolicyEEEPPN7testing17TestEventListenerES7_S7_Li0EEENS_4pairIT0_T2_EES9_T1_SA_
FNA:2,0,_ZNSt3__124__copy_move_unwrap_itersB8ne200100INS_11__move_implINS_17_ClassicAlgPolicyEEEPPN7testing9TestSuiteES7_S7_Li0EEENS_4pairIT0_T2_EES9_T1_SA_
FNA:2,0,_ZNSt3__124__copy_move_unwrap_itersB8ne200100INS_11__move_implINS_17_ClassicAlgPolicyEEEPPcS5_S5_Li0EEENS_4pairIT0_T2_EES7_T1_S8_
FNA:2,0,_ZNSt3__124__copy_move_unwrap_itersB8ne200100INS_11__move_implINS_17_ClassicAlgPolicyEEEPPiS5_S5_Li0EEENS_4pairIT0_T2_EES7_T1_S8_
FNA:2,1,_ZNSt3__124__copy_move_unwrap_itersB8ne200100INS_20__move_backward_implINS_17_ClassicAlgPolicyEEEPN3fmt3v1216basic_format_argINS5_7contextEEES9_S9_Li0EEENS_4pairIT0_T2_EESB_T1_SC_
FNA:2,0,_ZNSt3__124__copy_move_unwrap_itersB8ne200100INS_20__move_backward_implINS_17_ClassicAlgPolicyEEEPPN7testing9TestSuiteES7_S7_Li0EEENS_4pairIT0_T2_EES9_T1_SA_
FNA:2,0,_ZNSt3__124__copy_move_unwrap_itersB8ne200100INS_20__move_backward_implINS_17_ClassicAlgPolicyEEEPPcS5_S5_Li0EEENS_4pairIT0_T2_EES7_T1_S8_
FNA:2,0,_ZNSt3__124__copy_move_unwrap_itersB8ne200100INS_20__move_backward_implINS_17_ClassicAlgPolicyEEEPPiS5_S5_Li0EEENS_4pairIT0_T2_EES7_T1_S8_
FNF:3
FNH:3
DA:61,10
DA:62,10
DA:64,10
DA:66,10
DA:67,10
DA:71,1
DA:72,1
DA:73,1
DA:75,1
DA:77,1
DA:78,1
DA:92,20
DA:93,20
DA:94,20
DA:95,40
DA:96,20
DA:97,20
LF:17
LH:17
end_of_record
TN:
SF:/Applications/Xcode.app/Contents/Developer/Platforms/MacOSX.platform/Developer/SDKs/MacOSX.sdk/usr/include/c++/v1/__algorithm/copy_n.h
FNL:0,51
FNA:0,7,_ZNSt3__16copy_nB8ne200100IPKciN3fmt3v1214basic_appenderIcEELi0EEET1_T_T0_S7_
FNA:0,0,_ZNSt3__16copy_nB8ne200100IPKciN3fmt3v1214basic_appenderIwEELi0EEET1_T_T0_S7_
FNF:1
FNH:1
DA:51,7
DA:54,7
DA:55,7
DA:56,7
LF:4
LH:4
end_of_record
TN:
SF:/Applications/Xcode.app/Contents/Developer/Platforms/MacOSX.platform/Developer/SDKs/MacOSX.sdk/usr/include/c++/v1/__algorithm/fill.h
FNL:0,33
FNA:0,1,_ZNSt3__16__fillB8ne200100IPccEEvT_S2_RKT0_NS_26random_access_iterator_tagE
FNL:1,39
FNA:1,1,_ZNSt3__14fillB8ne200100IPccEEvT_S2_RKT0_
FNF:2
FNH:2
DA:33,1
DA:34,1
DA:35,1
DA:39,1
DA:40,1
DA:41,1
LF:6
LH:6
end_of_record
TN:
SF:/Applications/Xcode.app/Contents/Developer/Platforms/MacOSX.platform/Developer/SDKs/MacOSX.sdk/usr/include/c++/v1/__algorithm/fill_n.h
FNL:0,81
FNA:0,1,_ZNSt3__18__fill_nB8ne200100IN3fmt3v1214basic_appenderIcEEicEET_S5_T0_RKT1_
FNA:0,1,_ZNSt3__18__fill_nB8ne200100IPclcEET_S2_T0_RKT1_
FNA:0,779,_ZNSt3__18__fill_nB8ne200100IPcmcEET_S2_T0_RKT1_
FNA:0,4,_ZNSt3__18__fill_nB8ne200100IPwmwEET_S2_T0_RKT1_
FNL:1,89
FNA:1,1,_ZNSt3__16fill_nB8ne200100IN3fmt3v1214basic_appenderIcEEicEET_S5_T0_RKT1_
FNA:1,1,_ZNSt3__16fill_nB8ne200100IPclcEET_S2_T0_RKT1_
FNA:1,779,_ZNSt3__16fill_nB8ne200100IPcmcEET_S2_T0_RKT1_
FNA:1,4,_ZNSt3__16fill_nB8ne200100IPwmwEET_S2_T0_RKT1_
FNF:2
FNH:2
DA:81,785
DA:82,2586
DA:83,1801
DA:84,785
DA:89,785
DA:90,785
LF:6
LH:6
end_of_record
TN:
SF:/Applications/Xcode.app/Contents/Developer/Platforms/MacOSX.platform/Developer/SDKs/MacOSX.sdk/usr/include/c++/v1/__algorithm/find.h
FNL:0,178
FNA:0,0,_ZNSt3__14findB8ne200100INS_11__wrap_iterIPKNS_12basic_stringIcNS_11char_traitsIcEENS_9allocatorIcEEEEEES7_EET_SB_SB_RKT0_
FNA:0,3,_ZNSt3__14findB8ne200100IPKccEET_S3_S3_RKT0_
FNA:0,0,_ZNSt3__14findB8ne200100IPKwwEET_S3_S3_RKT0_
FNL:1,47
FNA:1,0,_ZNSt3__16__findB8ne200100IPKNS_12basic_stringIcNS_11char_traitsIcEENS_9allocatorIcEEEES8_S6_NS_10__identityEEET_SA_T0_RKT1_RT2_
FNA:1,0,_ZNSt3__16__findB8ne200100IPKwS2_wNS_10__identityEEET_S4_T0_RKT1_RT2_
FNL:2,61
FNA:2,3,_ZNSt3__16__findB8ne200100IKccNS_10__identityELi0EEEPT_S4_S4_RKT0_RT1_
FNF:3
FNH:2
DA:47,0
DA:48,0
DA:49,0
DA:50,0
DA:51,0
DA:61,3
DA:62,5
DA:63,2
DA:64,1
DA:65,3
DA:178,3
DA:179,3
DA:180,6
DA:181,3
DA:182,3
LF:15
LH:10
end_of_record
TN:
SF:/Applications/Xcode.app/Contents/Developer/Platforms/MacOSX.platform/Developer/SDKs/MacOSX.sdk/usr/include/c++/v1/__algorithm/find_first_of.h
FNL:0,23
FNA:0,0,_ZNSt3__118__find_first_of_ceB8ne200100IPKcS2_RFbccEEET_S5_S5_T0_S6_OT1_
FNF:1
FNH:0
DA:23,0
DA:29,0
DA:30,0
DA:31,0
DA:32,0
DA:33,0
DA:34,0
LF:7
LH:0
end_of_record
TN:
SF:/Applications/Xcode.app/Contents/Developer/Platforms/MacOSX.platform/Developer/SDKs/MacOSX.sdk/usr/include/c++/v1/__algorithm/find_if.h
FNL:0,23
FNA:0,0,_ZNSt3__17find_ifB8ne200100INS_11__wrap_iterIPN7testing12TestPropertyEEENS2_8internal17TestPropertyKeyIsEEET_S8_S8_T0_
FNA:0,532,_ZNSt3__17find_ifB8ne200100INS_16reverse_iteratorINS_11__wrap_iterIPPN7testing9TestSuiteEEEEENS3_8internal15TestSuiteNameIsEEET_SB_SB_T0_
FNF:1
FNH:1
DA:23,532
DA:24,1017
DA:25,957
DA:26,472
DA:27,532
LF:5
LH:5
end_of_record
TN:
SF:/Applications/Xcode.app/Contents/Developer/Platforms/MacOSX.platform/Developer/SDKs/MacOSX.sdk/usr/include/c++/v1/__algorithm/for_each.h
FNL:0,31
FNA:0,20,_ZNSt3__18for_eachB8ne200100INS_11__wrap_iterIPKPN7testing11EnvironmentEEEPFvS4_EEET0_T_SB_SA_
FNA:0,1,_ZNSt3__18for_eachB8ne200100INS_11__wrap_iterIPKPN7testing17TestEventListenerEEEPFvS4_EEET0_T_SB_SA_
FNA:0,60,_ZNSt3__18for_eachB8ne200100INS_11__wrap_iterIPKPN7testing8TestInfoEEEPFvS4_EEET0_T_SB_SA_
FNA:0,21,_ZNSt3__18for_eachB8ne200100INS_11__wrap_iterIPKPN7testing9TestSuiteEEEPFvS4_EEET0_T_SB_SA_
FNA:0,19,_ZNSt3__18for_eachB8ne200100INS_16reverse_iteratorINS_11__wrap_iterIPPN7testing11EnvironmentEEEEEPFvS5_EEET0_T_SC_SB_
FNF:1
FNH:1
DA:31,121
DA:32,714
DA:33,593
DA:34,121
LF:4
LH:4
end_of_record
TN:
SF:/Applications/Xcode.app/Contents/Developer/Platforms/MacOSX.platform/Developer/SDKs/MacOSX.sdk/usr/include/c++/v1/__algorithm/iter_swap.h
FNL:0,23
FNA:0,0,_ZNSt3__19iter_swapB8ne200100INS_11__wrap_iterIPN7testing8internal13edit_distance8EditTypeEEES7_EEvT_T0_
FNF:1
FNH:0
DA:23,0
DA:26,0
DA:27,0
LF:3
LH:0
end_of_record
TN:
SF:/Applications/Xcode.app/Contents/Developer/Platforms/MacOSX.platform/Developer/SDKs/MacOSX.sdk/usr/include/c++/v1/__algorithm/iterator_operations.h
FNL:0,103
FNA:0,3,_ZNSt3__18_IterOpsINS_17_ClassicAlgPolicyEE25__validate_iter_referenceB8ne200100IRNS_11__wrap_iterIPiEEEEvv
FNL:1,117
FNA:1,3,_ZNSt3__18_IterOpsINS_17_ClassicAlgPolicyEE11__iter_moveB8ne200100IRNS_11__wrap_iterIPiEELi0EEEDTclsr3stdE4movedeclsr3stdE7declvalIRT_EEEEOS8_
FNL:2,137
FNA:2,0,_ZNSt3__18_IterOpsINS_17_ClassicAlgPolicyEE9iter_swapB8ne200100IRNS_11__wrap_iterIPN7testing8internal13edit_distance8EditTypeEEESB_EEvOT_OT0_
FNF:3
FNH:2
DA:103,3
DA:109,3
DA:117,3
DA:118,3
DA:120,3
DA:137,0
DA:138,0
DA:139,0
LF:8
LH:5
end_of_record
TN:
SF:/Applications/Xcode.app/Contents/Developer/Platforms/MacOSX.platform/Developer/SDKs/MacOSX.sdk/usr/include/c++/v1/__algorithm/max.h
FNL:0,29
FNA:0,4,_ZNSt3__13maxB8ne200100IPwNS_6__lessIvvEEEERKT_S6_S6_T0_
FNA:0,70,_ZNSt3__13maxB8ne200100IiNS_6__lessIvvEEEERKT_S5_S5_T0_
FNA:0,729,_ZNSt3__13maxB8ne200100ImNS_6__lessIvvEEEERKT_S5_S5_T0_
FNL:1,35
FNA:1,4,_ZNSt3__13maxB8ne200100IPwEERKT_S4_S4_
FNA:1,70,_ZNSt3__13maxB8ne200100IiEERKT_S3_S3_
FNA:1,729,_ZNSt3__13maxB8ne200100ImEERKT_S3_S3_
FNF:2
FNH:2
DA:29,803
DA:30,803
DA:35,803
DA:36,803
LF:4
LH:4
end_of_record
TN:
SF:/Applications/Xcode.app/Contents/Developer/Platforms/MacOSX.platform/Developer/SDKs/MacOSX.sdk/usr/include/c++/v1/__algorithm/min.h
FNL:0,29
FNA:0,0,_ZNSt3__13minB8ne200100IdNS_6__lessIvvEEEERKT_S5_S5_T0_
FNA:0,0,_ZNSt3__13minB8ne200100IlNS_6__lessIvvEEEERKT_S5_S5_T0_
FNA:0,976,_ZNSt3__13minB8ne200100ImNS_6__lessIvvEEEERKT_S5_S5_T0_
FNL:1,35
FNA:1,0,_ZNSt3__13minB8ne200100IdEERKT_S3_S3_
FNA:1,0,_ZNSt3__13minB8ne200100IlEERKT_S3_S3_
FNA:1,976,_ZNSt3__13minB8ne200100ImEERKT_S3_S3_
FNF:2
FNH:2
DA:29,976
DA:30,976
DA:35,976
DA:36,976
LF:4
LH:4
end_of_record
TN:
SF:/Applications/Xcode.app/Contents/Developer/Platforms/MacOSX.platform/Developer/SDKs/MacOSX.sdk/usr/include/c++/v1/__algorithm/move.h
FNL:0,104
FNA:0,0,_ZNKSt3__111__move_implINS_17_ClassicAlgPolicyEEclB8ne200100IN3fmt3v1216basic_format_argINS5_7contextEEES8_Li0EEENS_4pairIPT_PT0_EESB_SB_SD_
FNA:0,0,_ZNKSt3__111__move_implINS_17_ClassicAlgPolicyEEclB8ne200100IPN7testing17TestEventListenerES6_Li0EEENS_4pairIPT_PT0_EES9_S9_SB_
FNA:0,0,_ZNKSt3__111__move_implINS_17_ClassicAlgPolicyEEclB8ne200100IPN7testing9TestSuiteES6_Li0EEENS_4pairIPT_PT0_EES9_S9_SB_
FNA:0,0,_ZNKSt3__111__move_implINS_17_ClassicAlgPolicyEEclB8ne200100IPcS4_Li0EEENS_4pairIPT_PT0_EES7_S7_S9_
FNA:0,0,_ZNKSt3__111__move_implINS_17_ClassicAlgPolicyEEclB8ne200100IPiS4_Li0EEENS_4pairIPT_PT0_EES7_S7_S9_
FNL:1,111
FNA:1,0,_ZNSt3__16__moveB8ne200100INS_17_ClassicAlgPolicyEPN3fmt3v1216basic_format_argINS3_7contextEEES7_S7_EENS_4pairIT0_T2_EES9_T1_SA_
FNA:1,0,_ZNSt3__16__moveB8ne200100INS_17_ClassicAlgPolicyEPPN7testing17TestEventListenerES5_S5_EENS_4pairIT0_T2_EES7_T1_S8_
FNA:1,0,_ZNSt3__16__moveB8ne200100INS_17_ClassicAlgPolicyEPPN7testing9TestSuiteES5_S5_EENS_4pairIT0_T2_EES7_T1_S8_
FNA:1,0,_ZNSt3__16__moveB8ne200100INS_17_ClassicAlgPolicyEPPcS3_S3_EENS_4pairIT0_T2_EES5_T1_S6_
FNA:1,0,_ZNSt3__16__moveB8ne200100INS_17_ClassicAlgPolicyEPPiS3_S3_EENS_4pairIT0_T2_EES5_T1_S6_
FNL:2,118
FNA:2,0,_ZNSt3__14moveB8ne200100IPN3fmt3v1216basic_format_argINS2_7contextEEES6_EET0_T_S8_S7_
FNA:2,0,_ZNSt3__14moveB8ne200100IPPN7testing17TestEventListenerES4_EET0_T_S6_S5_
FNA:2,0,_ZNSt3__14moveB8ne200100IPPN7testing9TestSuiteES4_EET0_T_S6_S5_
FNA:2,0,_ZNSt3__14moveB8ne200100IPPcS2_EET0_T_S4_S3_
FNA:2,0,_ZNSt3__14moveB8ne200100IPPiS2_EET0_T_S4_S3_
FNF:3
FNH:0
DA:104,0
DA:105,0
DA:111,0
DA:112,0
DA:113,0
DA:118,0
DA:122,0
LF:7
LH:0
end_of_record
TN:
SF:/Applications/Xcode.app/Contents/Developer/Platforms/MacOSX.platform/Developer/SDKs/MacOSX.sdk/usr/include/c++/v1/__algorithm/move_backward.h
FNL:0,113
FNA:0,1,_ZNKSt3__120__move_backward_implINS_17_ClassicAlgPolicyEEclB8ne200100IN3fmt3v1216basic_format_argINS5_7contextEEES8_Li0EEENS_4pairIPT_PT0_EESB_SB_SD_
FNA:0,0,_ZNKSt3__120__move_backward_implINS_17_ClassicAlgPolicyEEclB8ne200100IPN7testing9TestSuiteES6_Li0EEENS_4pairIPT_PT0_EES9_S9_SB_
FNA:0,0,_ZNKSt3__120__move_backward_implINS_17_ClassicAlgPolicyEEclB8ne200100IPcS4_Li0EEENS_4pairIPT_PT0_EES7_S7_S9_
FNA:0,0,_ZNKSt3__120__move_backward_implINS_17_ClassicAlgPolicyEEclB8ne200100IPiS4_Li0EEENS_4pairIPT_PT0_EES7_S7_S9_
FNL:1,120
FNA:1,1,_ZNSt3__115__move_backwardB8ne200100INS_17_ClassicAlgPolicyEPN3fmt3v1216basic_format_argINS3_7contextEEES7_S7_EENS_4pairIT0_T2_EES9_T1_SA_
FNA:1,0,_ZNSt3__115__move_backwardB8ne200100INS_17_ClassicAlgPolicyEPPN7testing9TestSuiteES5_S5_EENS_4pairIT0_T2_EES7_T1_S8_
FNA:1,0,_ZNSt3__115__move_backwardB8ne200100INS_17_ClassicAlgPolicyEPPcS3_S3_EENS_4pairIT0_T2_EES5_T1_S6_
FNA:1,0,_ZNSt3__115__move_backwardB8ne200100INS_17_ClassicAlgPolicyEPPiS3_S3_EENS_4pairIT0_T2_EES5_T1_S6_
FNL:2,131
FNA:2,1,_ZNSt3__113move_backwardB8ne200100IPN3fmt3v1216basic_format_argINS2_7contextEEES6_EET0_T_S8_S7_
FNA:2,0,_ZNSt3__113move_backwardB8ne200100IPPN7testing9TestSuiteES4_EET0_T_S6_S5_
FNA:2,0,_ZNSt3__113move_backwardB8ne200100IPPcS2_EET0_T_S4_S3_
FNA:2,0,_ZNSt3__113move_backwardB8ne200100IPPiS2_EET0_T_S4_S3_
FNF:3
FNH:3
DA:113,1
DA:114,1
DA:120,1
DA:125,1
DA:126,1
DA:131,1
DA:132,1
LF:7
LH:7
end_of_record
TN:
SF:/Applications/Xcode.app/Contents/Developer/Platforms/MacOSX.platform/Developer/SDKs/MacOSX.sdk/usr/include/c++/v1/__algorithm/push_heap.h
FNL:0,32
FNA:0,4,_ZNSt3__19__sift_upB8ne200100INS_17_ClassicAlgPolicyERNS_4lessIiEENS_11__wrap_iterIPiEEEEvT1_S8_OT0_NS_15iterator_traitsIS8_E15difference_typeE
FNL:1,60
FNA:1,4,_ZNSt3__111__push_heapB8ne200100INS_17_ClassicAlgPolicyENS_11__wrap_iterIPiEENS_4lessIiEEEEvT0_S7_RT1_
FNL:2,67
FNA:2,4,_ZNSt3__19push_heapB8ne200100INS_11__wrap_iterIPiEENS_4lessIiEEEEvT_S6_T0_
FNF:3
FNH:3
DA:32,4
DA:38,4
DA:39,3
DA:40,3
DA:42,3
DA:43,1
DA:44,1
DA:45,2
DA:46,2
DA:47,2
DA:48,1
DA:49,1
DA:50,1
DA:51,1
DA:53,1
DA:54,1
DA:55,3
DA:56,4
DA:60,4
DA:61,4
DA:62,4
DA:63,4
DA:67,4
DA:71,4
DA:72,4
LF:25
LH:25
end_of_record
TN:
SF:/Applications/Xcode.app/Contents/Developer/Platforms/MacOSX.platform/Developer/SDKs/MacOSX.sdk/usr/include/c++/v1/__algorithm/reverse.h
FNL:0,40
FNA:0,0,_ZNSt3__114__reverse_implB8ne200100INS_17_ClassicAlgPolicyENS_11__wrap_iterIPN7testing8internal13edit_distance8EditTypeEEEEEvT0_S9_NS_26random_access_iterator_tagE
FNL:1,47
FNA:1,0,_ZNSt3__19__reverseB8ne200100INS_17_ClassicAlgPolicyENS_11__wrap_iterIPN7testing8internal13edit_distance8EditTypeEEES8_EEvT0_T1_
FNL:2,54
FNA:2,0,_ZNSt3__17reverseB8ne200100INS_11__wrap_iterIPN7testing8internal13edit_distance8EditTypeEEEEEvT_S8_
FNF:3
FNH:0
DA:40,0
DA:41,0
DA:42,0
DA:43,0
DA:44,0
DA:47,0
DA:49,0
DA:50,0
DA:54,0
DA:55,0
DA:56,0
LF:11
LH:0
end_of_record
TN:
SF:/Applications/Xcode.app/Contents/Developer/Platforms/MacOSX.platform/Developer/SDKs/MacOSX.sdk/usr/include/c++/v1/__algorithm/reverse_copy.h
FNL:0,22
FNA:0,0,_ZNSt3__112reverse_copyB8ne200100IPcS1_EET0_T_S3_S2_
FNF:1
FNH:0
DA:22,0
DA:23,0
DA:24,0
DA:25,0
LF:4
LH:0
end_of_record
TN:
SF:/Applications/Xcode.app/Contents/Developer/Platforms/MacOSX.platform/Developer/SDKs/MacOSX.sdk/usr/include/c++/v1/__algorithm/unwrap_iter.h
FNL:0,39
FNA:0,7,_ZNSt3__118__unwrap_iter_implIN3fmt3v1214basic_appenderIcEELb0EE8__rewrapB8ne200100ES4_S4_
FNA:0,0,_ZNSt3__118__unwrap_iter_implIN3fmt3v1214basic_appenderIwEELb0EE8__rewrapB8ne200100ES4_S4_
FNA:0,2,_ZNSt3__118__unwrap_iter_implINS_14__bit_iteratorINS_6vectorIbNS_9allocatorIbEEEELb0ELm0EEELb0EE8__rewrapB8ne200100ES6_S6_
FNL:1,40
FNA:1,7,_ZNSt3__118__unwrap_iter_implIN3fmt3v1214basic_appenderIcEELb0EE8__unwrapB8ne200100ES4_
FNA:1,0,_ZNSt3__118__unwrap_iter_implIN3fmt3v1214basic_appenderIwEELb0EE8__unwrapB8ne200100ES4_
FNA:1,2,_ZNSt3__118__unwrap_iter_implINS_14__bit_iteratorINS_6vectorIbNS_9allocatorIbEEEELb0ELm0EEELb0EE8__unwrapB8ne200100ES6_
FNL:2,51
FNA:2,0,_ZNSt3__118__unwrap_iter_implINS_11__wrap_iterIPKNS_12basic_stringIcNS_11char_traitsIcEENS_9allocatorIcEEEEEELb1EE8__rewrapB8ne200100ESA_S9_
FNA:2,2,_ZNSt3__118__unwrap_iter_implIP17basic_test_stringIcELb1EE8__rewrapB8ne200100ES3_S3_
FNA:2,1,_ZNSt3__118__unwrap_iter_implIP2tmLb1EE8__rewrapB8ne200100ES2_S2_
FNA:2,2,_ZNSt3__118__unwrap_iter_implIP9test_enumLb1EE8__rewrapB8ne200100ES2_S2_
FNA:2,2,_ZNSt3__118__unwrap_iter_implIPKbLb1EE8__rewrapB8ne200100ES2_S2_
FNA:2,10,_ZNSt3__118__unwrap_iter_implIPKcLb1EE8__rewrapB8ne200100ES2_S2_
FNA:2,0,_ZNSt3__118__unwrap_iter_implIPKwLb1EE8__rewrapB8ne200100ES2_S2_
FNA:2,2,_ZNSt3__118__unwrap_iter_implIPN3fmt3v1216basic_format_argINS2_7contextEEELb1EE8__rewrapB8ne200100ES6_S6_
FNA:2,0,_ZNSt3__118__unwrap_iter_implIPN7testing8internal13edit_distance8EditTypeELb1EE8__rewrapB8ne200100ES5_S5_
FNA:2,35,_ZNSt3__118__unwrap_iter_implIPNS_12basic_stringIcNS_11char_traitsIcEENS_9allocatorIcEEEELb1EE8__rewrapB8ne200100ES7_S7_
FNA:2,3,_ZNSt3__118__unwrap_iter_implIPNS_12basic_stringIwNS_11char_traitsIwEENS_9allocatorIwEEEELb1EE8__rewrapB8ne200100ES7_S7_
FNA:2,2,_ZNSt3__118__unwrap_iter_implIPNS_6vectorIcNS_9allocatorIcEEEELb1EE8__rewrapB8ne200100ES5_S5_
FNA:2,2,_ZNSt3__118__unwrap_iter_implIPNS_6vectorIiNS_9allocatorIiEEEELb1EE8__rewrapB8ne200100ES5_S5_
FNA:2,0,_ZNSt3__118__unwrap_iter_implIPPN7testing17TestEventListenerELb1EE8__rewrapB8ne200100ES4_S4_
FNA:2,0,_ZNSt3__118__unwrap_iter_implIPPN7testing9TestSuiteELb1EE8__rewrapB8ne200100ES4_S4_
FNA:2,0,_ZNSt3__118__unwrap_iter_implIPPcLb1EE8__rewrapB8ne200100ES2_S2_
FNA:2,0,_ZNSt3__118__unwrap_iter_implIPPiLb1EE8__rewrapB8ne200100ES2_S2_
FNA:2,22,_ZNSt3__118__unwrap_iter_implIPcLb1EE8__rewrapB8ne200100ES1_S1_
FNA:2,0,_ZNSt3__118__unwrap_iter_implIPdLb1EE8__rewrapB8ne200100ES1_S1_
FNA:2,23,_ZNSt3__118__unwrap_iter_implIPiLb1EE8__rewrapB8ne200100ES1_S1_
FNL:3,55
FNA:3,0,_ZNSt3__118__unwrap_iter_implINS_11__wrap_iterIPKNS_12basic_stringIcNS_11char_traitsIcEENS_9allocatorIcEEEEEELb1EE8__unwrapB8ne200100ESA_
FNA:3,2,_ZNSt3__118__unwrap_iter_implIP17basic_test_stringIcELb1EE8__unwrapB8ne200100ES3_
FNA:3,1,_ZNSt3__118__unwrap_iter_implIP2tmLb1EE8__unwrapB8ne200100ES2_
FNA:3,2,_ZNSt3__118__unwrap_iter_implIP9test_enumLb1EE8__unwrapB8ne200100ES2_
FNA:3,4,_ZNSt3__118__unwrap_iter_implIPK17basic_test_stringIcELb1EE8__unwrapB8ne200100ES4_
FNA:3,2,_ZNSt3__118__unwrap_iter_implIPK2tmLb1EE8__unwrapB8ne200100ES3_
FNA:3,4,_ZNSt3__118__unwrap_iter_implIPK9test_enumLb1EE8__unwrapB8ne200100ES3_
FNA:3,30,_ZNSt3__118__unwrap_iter_implIPKNS_12basic_stringIcNS_11char_traitsIcEENS_9allocatorIcEEEELb1EE8__unwrapB8ne200100ES8_
FNA:3,6,_ZNSt3__118__unwrap_iter_implIPKNS_12basic_stringIwNS_11char_traitsIwEENS_9allocatorIwEEEELb1EE8__unwrapB8ne200100ES8_
FNA:3,4,_ZNSt3__118__unwrap_iter_implIPKNS_6vectorIcNS_9allocatorIcEEEELb1EE8__unwrapB8ne200100ES6_
FNA:3,4,_ZNSt3__118__unwrap_iter_implIPKNS_6vectorIiNS_9allocatorIiEEEELb1EE8__unwrapB8ne200100ES6_
FNA:3,0,_ZNSt3__118__unwrap_iter_implIPKPKcLb1EE8__unwrapB8ne200100ES4_
FNA:3,4,_ZNSt3__118__unwrap_iter_implIPKbLb1EE8__unwrapB8ne200100ES2_
FNA:3,34,_ZNSt3__118__unwrap_iter_implIPKcLb1EE8__unwrapB8ne200100ES2_
FNA:3,16,_ZNSt3__118__unwrap_iter_implIPKiLb1EE8__unwrapB8ne200100ES2_
FNA:3,0,_ZNSt3__118__unwrap_iter_implIPKwLb1EE8__unwrapB8ne200100ES2_
FNA:3,3,_ZNSt3__118__unwrap_iter_implIPN3fmt3v1216basic_format_argINS2_7contextEEELb1EE8__unwrapB8ne200100ES6_
FNA:3,0,_ZNSt3__118__unwrap_iter_implIPN7testing8internal13edit_distance8EditTypeELb1EE8__unwrapB8ne200100ES5_
FNA:3,75,_ZNSt3__118__unwrap_iter_implIPNS_12basic_stringIcNS_11char_traitsIcEENS_9allocatorIcEEEELb1EE8__unwrapB8ne200100ES7_
FNA:3,3,_ZNSt3__118__unwrap_iter_implIPNS_12basic_stringIwNS_11char_traitsIwEENS_9allocatorIwEEEELb1EE8__unwrapB8ne200100ES7_
FNA:3,2,_ZNSt3__118__unwrap_iter_implIPNS_6vectorIcNS_9allocatorIcEEEELb1EE8__unwrapB8ne200100ES5_
FNA:3,2,_ZNSt3__118__unwrap_iter_implIPNS_6vectorIiNS_9allocatorIiEEEELb1EE8__unwrapB8ne200100ES5_
FNA:3,0,_ZNSt3__118__unwrap_iter_implIPPN7testing17TestEventListenerELb1EE8__unwrapB8ne200100ES4_
FNA:3,0,_ZNSt3__118__unwrap_iter_implIPPN7testing9TestSuiteELb1EE8__unwrapB8ne200100ES4_
FNA:3,0,_ZNSt3__118__unwrap_iter_implIPPcLb1EE8__unwrapB8ne200100ES2_
FNA:3,0,_ZNSt3__118__unwrap_iter_implIPPiLb1EE8__unwrapB8ne200100ES2_
FNA:3,37,_ZNSt3__118__unwrap_iter_implIPcLb1EE8__unwrapB8ne200100ES1_
FNA:3,0,_ZNSt3__118__unwrap_iter_implIPdLb1EE8__unwrapB8ne200100ES1_
FNA:3,38,_ZNSt3__118__unwrap_iter_implIPiLb1EE8__unwrapB8ne200100ES1_
FNL:4,64
FNA:4,7,_ZNSt3__113__unwrap_iterB8ne200100IN3fmt3v1214basic_appenderIcEENS_18__unwrap_iter_implIS4_Lb0EEELi0EEEDTclsrT0_8__unwrapclsr3stdE7declvalIT_EEEES8_
FNA:4,0,_ZNSt3__113__unwrap_iterB8ne200100IN3fmt3v1214basic_appenderIwEENS_18__unwrap_iter_implIS4_Lb0EEELi0EEEDTclsrT0_8__unwrapclsr3stdE7declvalIT_EEEES8_
FNA:4,0,_ZNSt3__113__unwrap_iterB8ne200100INS_11__wrap_iterIPKNS_12basic_stringIcNS_11char_traitsIcEENS_9allocatorIcEEEEEENS_18__unwrap_iter_implISA_Lb1EEELi0EEEDTclsrT0_8__unwrapclsr3stdE7declvalIT_EEEESE_
FNA:4,2,_ZNSt3__113__unwrap_iterB8ne200100INS_14__bit_iteratorINS_6vectorIbNS_9allocatorIbEEEELb0ELm0EEENS_18__unwrap_iter_implIS6_Lb0EEELi0EEEDTclsrT0_8__unwrapclsr3stdE7declvalIT_EEEESA_
FNA:4,2,_ZNSt3__113__unwrap_iterB8ne200100IP17basic_test_stringIcENS_18__unwrap_iter_implIS3_Lb1EEELi0EEEDTclsrT0_8__unwrapclsr3stdE7declvalIT_EEEES7_
FNA:4,1,_ZNSt3__113__unwrap_iterB8ne200100IP2tmNS_18__unwrap_iter_implIS2_Lb1EEELi0EEEDTclsrT0_8__unwrapclsr3stdE7declvalIT_EEEES6_
FNA:4,2,_ZNSt3__113__unwrap_iterB8ne200100IP9test_enumNS_18__unwrap_iter_implIS2_Lb1EEELi0EEEDTclsrT0_8__unwrapclsr3stdE7declvalIT_EEEES6_
FNA:4,4,_ZNSt3__113__unwrap_iterB8ne200100IPK17basic_test_stringIcENS_18__unwrap_iter_implIS4_Lb1EEELi0EEEDTclsrT0_8__unwrapclsr3stdE7declvalIT_EEEES8_
FNA:4,2,_ZNSt3__113__unwrap_iterB8ne200100IPK2tmNS_18__unwrap_iter_implIS3_Lb1EEELi0EEEDTclsrT0_8__unwrapclsr3stdE7declvalIT_EEEES7_
FNA:4,4,_ZNSt3__113__unwrap_iterB8ne200100IPK9test_enumNS_18__unwrap_iter_implIS3_Lb1EEELi0EEEDTclsrT0_8__unwrapclsr3stdE7declvalIT_EEEES7_
FNA:4,30,_ZNSt3__113__unwrap_iterB8ne200100IPKNS_12basic_stringIcNS_11char_traitsIcEENS_9allocatorIcEEEENS_18__unwrap_iter_implIS8_Lb1EEELi0EEEDTclsrT0_8__unwrapclsr3stdE7declvalIT_EEEESC_
FNA:4,6,_ZNSt3__113__unwrap_iterB8ne200100IPKNS_12basic_stringIwNS_11char_traitsIwEENS_9allocatorIwEEEENS_18__unwrap_iter_implIS8_Lb1EEELi0EEEDTclsrT0_8__unwrapclsr3stdE7declvalIT_EEEESC_
FNA:4,4,_ZNSt3__113__unwrap_iterB8ne200100IPKNS_6vectorIcNS_9allocatorIcEEEENS_18__unwrap_iter_implIS6_Lb1EEELi0EEEDTclsrT0_8__unwrapclsr3stdE7declvalIT_EEEESA_
FNA:4,4,_ZNSt3__113__unwrap_iterB8ne200100IPKNS_6vectorIiNS_9allocatorIiEEEENS_18__unwrap_iter_implIS6_Lb1EEELi0EEEDTclsrT0_8__unwrapclsr3stdE7declvalIT_EEEESA_
FNA:4,0,_ZNSt3__113__unwrap_iterB8ne200100IPKPKcNS_18__unwrap_iter_implIS4_Lb1EEELi0EEEDTclsrT0_8__unwrapclsr3stdE7declvalIT_EEEES8_
FNA:4,4,_ZNSt3__113__unwrap_iterB8ne200100IPKbNS_18__unwrap_iter_implIS2_Lb1EEELi0EEEDTclsrT0_8__unwrapclsr3stdE7declvalIT_EEEES6_
FNA:4,34,_ZNSt3__113__unwrap_iterB8ne200100IPKcNS_18__unwrap_iter_implIS2_Lb1EEELi0EEEDTclsrT0_8__unwrapclsr3stdE7declvalIT_EEEES6_
FNA:4,16,_ZNSt3__113__unwrap_iterB8ne200100IPKiNS_18__unwrap_iter_implIS2_Lb1EEELi0EEEDTclsrT0_8__unwrapclsr3stdE7declvalIT_EEEES6_
FNA:4,0,_ZNSt3__113__unwrap_iterB8ne200100IPKwNS_18__unwrap_iter_implIS2_Lb1EEELi0EEEDTclsrT0_8__unwrapclsr3stdE7declvalIT_EEEES6_
FNA:4,3,_ZNSt3__113__unwrap_iterB8ne200100IPN3fmt3v1216basic_format_argINS2_7contextEEENS_18__unwrap_iter_implIS6_Lb1EEELi0EEEDTclsrT0_8__unwrapclsr3stdE7declvalIT_EEEESA_
FNA:4,0,_ZNSt3__113__unwrap_iterB8ne200100IPN7testing8internal13edit_distance8EditTypeENS_18__unwrap_iter_implIS5_Lb1EEELi0EEEDTclsrT0_8__unwrapclsr3stdE7declvalIT_EEEES9_
FNA:4,75,_ZNSt3__113__unwrap_iterB8ne200100IPNS_12basic_stringIcNS_11char_traitsIcEENS_9allocatorIcEEEENS_18__unwrap_iter_implIS7_Lb1EEELi0EEEDTclsrT0_8__unwrapclsr3stdE7declvalIT_EEEESB_
FNA:4,3,_ZNSt3__113__unwrap_iterB8ne200100IPNS_12basic_stringIwNS_11char_traitsIwEENS_9allocatorIwEEEENS_18__unwrap_iter_implIS7_Lb1EEELi0EEEDTclsrT0_8__unwrapclsr3stdE7declvalIT_EEEESB_
FNA:4,2,_ZNSt3__113__unwrap_iterB8ne200100IPNS_6vectorIcNS_9allocatorIcEEEENS_18__unwrap_iter_implIS5_Lb1EEELi0EEEDTclsrT0_8__unwrapclsr3stdE7declvalIT_EEEES9_
FNA:4,2,_ZNSt3__113__unwrap_iterB8ne200100IPNS_6vectorIiNS_9allocatorIiEEEENS_18__unwrap_iter_implIS5_Lb1EEELi0EEEDTclsrT0_8__unwrapclsr3stdE7declvalIT_EEEES9_
FNA:4,0,_ZNSt3__113__unwrap_iterB8ne200100IPPN7testing17TestEventListenerENS_18__unwrap_iter_implIS4_Lb1EEELi0EEEDTclsrT0_8__unwrapclsr3stdE7declvalIT_EEEES8_
FNA:4,0,_ZNSt3__113__unwrap_iterB8ne200100IPPN7testing9TestSuiteENS_18__unwrap_iter_implIS4_Lb1EEELi0EEEDTclsrT0_8__unwrapclsr3stdE7declvalIT_EEEES8_
FNA:4,0,_ZNSt3__113__unwrap_iterB8ne200100IPPcNS_18__unwrap_iter_implIS2_Lb1EEELi0EEEDTclsrT0_8__unwrapclsr3stdE7declvalIT_EEEES6_
FNA:4,0,_ZNSt3__113__unwrap_iterB8ne200100IPPiNS_18__unwrap_iter_implIS2_Lb1EEELi0EEEDTclsrT0_8__unwrapclsr3stdE7declvalIT_EEEES6_
FNA:4,37,_ZNSt3__113__unwrap_iterB8ne200100IPcNS_18__unwrap_iter_implIS1_Lb1EEELi0EEEDTclsrT0_8__unwrapclsr3stdE7declvalIT_EEEES5_
FNA:4,0,_ZNSt3__113__unwrap_iterB8ne200100IPdNS_18__unwrap_iter_implIS1_Lb1EEELi0EEEDTclsrT0_8__unwrapclsr3stdE7declvalIT_EEEES5_
FNA:4,38,_ZNSt3__113__unwrap_iterB8ne200100IPiNS_18__unwrap_iter_implIS1_Lb1EEELi0EEEDTclsrT0_8__unwrapclsr3stdE7declvalIT_EEEES5_
FNL:5,77
FNA:5,7,_ZNSt3__113__rewrap_iterB8ne200100IN3fmt3v1214basic_appenderIcEES4_NS_18__unwrap_iter_implIS4_Lb0EEEEET_S7_T0_
FNA:5,0,_ZNSt3__113__rewrap_iterB8ne200100IN3fmt3v1214basic_appenderIwEES4_NS_18__unwrap_iter_implIS4_Lb0EEEEET_S7_T0_
FNA:5,0,_ZNSt3__113__rewrap_iterB8ne200100INS_11__wrap_iterIPKNS_12basic_stringIcNS_11char_traitsIcEENS_9allocatorIcEEEEEES9_NS_18__unwrap_iter_implISA_Lb1EEEEET_SD_T0_
FNA:5,2,_ZNSt3__113__rewrap_iterB8ne200100INS_14__bit_iteratorINS_6vectorIbNS_9allocatorIbEEEELb0ELm0EEES6_NS_18__unwrap_iter_implIS6_Lb0EEEEET_S9_T0_
FNA:5,2,_ZNSt3__113__rewrap_iterB8ne200100IP17basic_test_stringIcES3_NS_18__unwrap_iter_implIS3_Lb1EEEEET_S6_T0_
FNA:5,1,_ZNSt3__113__rewrap_iterB8ne200100IP2tmS2_NS_18__unwrap_iter_implIS2_Lb1EEEEET_S5_T0_
FNA:5,2,_ZNSt3__113__rewrap_iterB8ne200100IP9test_enumS2_NS_18__unwrap_iter_implIS2_Lb1EEEEET_S5_T0_
FNA:5,2,_ZNSt3__113__rewrap_iterB8ne200100IPKbS2_NS_18__unwrap_iter_implIS2_Lb1EEEEET_S5_T0_
FNA:5,10,_ZNSt3__113__rewrap_iterB8ne200100IPKcS2_NS_18__unwrap_iter_implIS2_Lb1EEEEET_S5_T0_
FNA:5,0,_ZNSt3__113__rewrap_iterB8ne200100IPKwS2_NS_18__unwrap_iter_implIS2_Lb1EEEEET_S5_T0_
FNA:5,2,_ZNSt3__113__rewrap_iterB8ne200100IPN3fmt3v1216basic_format_argINS2_7contextEEES6_NS_18__unwrap_iter_implIS6_Lb1EEEEET_S9_T0_
FNA:5,0,_ZNSt3__113__rewrap_iterB8ne200100IPN7testing8internal13edit_distance8EditTypeES5_NS_18__unwrap_iter_implIS5_Lb1EEEEET_S8_T0_
FNA:5,35,_ZNSt3__113__rewrap_iterB8ne200100IPNS_12basic_stringIcNS_11char_traitsIcEENS_9allocatorIcEEEES7_NS_18__unwrap_iter_implIS7_Lb1EEEEET_SA_T0_
FNA:5,3,_ZNSt3__113__rewrap_iterB8ne200100IPNS_12basic_stringIwNS_11char_traitsIwEENS_9allocatorIwEEEES7_NS_18__unwrap_iter_implIS7_Lb1EEEEET_SA_T0_
FNA:5,2,_ZNSt3__113__rewrap_iterB8ne200100IPNS_6vectorIcNS_9allocatorIcEEEES5_NS_18__unwrap_iter_implIS5_Lb1EEEEET_S8_T0_
FNA:5,2,_ZNSt3__113__rewrap_iterB8ne200100IPNS_6vectorIiNS_9allocatorIiEEEES5_NS_18__unwrap_iter_implIS5_Lb1EEEEET_S8_T0_
FNA:5,0,_ZNSt3__113__rewrap_iterB8ne200100IPPN7testing17TestEventListenerES4_NS_18__unwrap_iter_implIS4_Lb1EEEEET_S7_T0_
FNA:5,0,_ZNSt3__113__rewrap_iterB8ne200100IPPN7testing9TestSuiteES4_NS_18__unwrap_iter_implIS4_Lb1EEEEET_S7_T0_
FNA:5,0,_ZNSt3__113__rewrap_iterB8ne200100IPPcS2_NS_18__unwrap_iter_implIS2_Lb1EEEEET_S5_T0_
FNA:5,0,_ZNSt3__113__rewrap_iterB8ne200100IPPiS2_NS_18__unwrap_iter_implIS2_Lb1EEEEET_S5_T0_
FNA:5,22,_ZNSt3__113__rewrap_iterB8ne200100IPcS1_NS_18__unwrap_iter_implIS1_Lb1EEEEET_S4_T0_
FNA:5,0,_ZNSt3__113__rewrap_iterB8ne200100IPdS1_NS_18__unwrap_iter_implIS1_Lb1EEEEET_S4_T0_
FNA:5,23,_ZNSt3__113__rewrap_iterB8ne200100IPiS1_NS_18__unwrap_iter_implIS1_Lb1EEEEET_S4_T0_
FNF:6
FNH:6
DA:39,9
DA:40,9
DA:51,106
DA:52,106
DA:55,273
DA:56,273
DA:64,282
DA:65,282
DA:77,115
DA:78,115
LF:10
LH:10
end_of_record
TN:
SF:/Applications/Xcode.app/Contents/Developer/Platforms/MacOSX.platform/Developer/SDKs/MacOSX.sdk/usr/include/c++/v1/__algorithm/unwrap_range.h
FNL:0,85
FNA:0,0,_ZNSt3__114__unwrap_rangeB8ne200100INS_11__wrap_iterIPKNS_12basic_stringIcNS_11char_traitsIcEENS_9allocatorIcEEEEEES9_EENS_4pairIT0_SC_EET_SE_
FNA:0,2,_ZNSt3__114__unwrap_rangeB8ne200100IPK17basic_test_stringIcES4_EENS_4pairIT0_S6_EET_S8_
FNA:0,1,_ZNSt3__114__unwrap_rangeB8ne200100IPK2tmS3_EENS_4pairIT0_S5_EET_S7_
FNA:0,2,_ZNSt3__114__unwrap_rangeB8ne200100IPK9test_enumS3_EENS_4pairIT0_S5_EET_S7_
FNA:0,15,_ZNSt3__114__unwrap_rangeB8ne200100IPKNS_12basic_stringIcNS_11char_traitsIcEENS_9allocatorIcEEEES8_EENS_4pairIT0_SA_EET_SC_
FNA:0,3,_ZNSt3__114__unwrap_rangeB8ne200100IPKNS_12basic_stringIwNS_11char_traitsIwEENS_9allocatorIwEEEES8_EENS_4pairIT0_SA_EET_SC_
FNA:0,2,_ZNSt3__114__unwrap_rangeB8ne200100IPKNS_6vectorIcNS_9allocatorIcEEEES6_EENS_4pairIT0_S8_EET_SA_
FNA:0,2,_ZNSt3__114__unwrap_rangeB8ne200100IPKNS_6vectorIiNS_9allocatorIiEEEES6_EENS_4pairIT0_S8_EET_SA_
FNA:0,0,_ZNSt3__114__unwrap_rangeB8ne200100IPKPKcS4_EENS_4pairIT0_S6_EET_S8_
FNA:0,2,_ZNSt3__114__unwrap_rangeB8ne200100IPKbS2_EENS_4pairIT0_S4_EET_S6_
FNA:0,14,_ZNSt3__114__unwrap_rangeB8ne200100IPKcS2_EENS_4pairIT0_S4_EET_S6_
FNA:0,8,_ZNSt3__114__unwrap_rangeB8ne200100IPKiS2_EENS_4pairIT0_S4_EET_S6_
FNA:0,1,_ZNSt3__114__unwrap_rangeB8ne200100IPN3fmt3v1216basic_format_argINS2_7contextEEES6_EENS_4pairIT0_S8_EET_SA_
FNA:0,0,_ZNSt3__114__unwrap_rangeB8ne200100IPN7testing8internal13edit_distance8EditTypeES5_EENS_4pairIT0_S7_EET_S9_
FNA:0,20,_ZNSt3__114__unwrap_rangeB8ne200100IPNS_12basic_stringIcNS_11char_traitsIcEENS_9allocatorIcEEEES7_EENS_4pairIT0_S9_EET_SB_
FNA:0,0,_ZNSt3__114__unwrap_rangeB8ne200100IPPN7testing17TestEventListenerES4_EENS_4pairIT0_S6_EET_S8_
FNA:0,0,_ZNSt3__114__unwrap_rangeB8ne200100IPPN7testing9TestSuiteES4_EENS_4pairIT0_S6_EET_S8_
FNA:0,0,_ZNSt3__114__unwrap_rangeB8ne200100IPPcS2_EENS_4pairIT0_S4_EET_S6_
FNA:0,0,_ZNSt3__114__unwrap_rangeB8ne200100IPPiS2_EENS_4pairIT0_S4_EET_S6_
FNA:0,10,_ZNSt3__114__unwrap_rangeB8ne200100IPcS1_EENS_4pairIT0_S3_EET_S5_
FNA:0,0,_ZNSt3__114__unwrap_rangeB8ne200100IPdS1_EENS_4pairIT0_S3_EET_S5_
FNA:0,10,_ZNSt3__114__unwrap_rangeB8ne200100IPiS1_EENS_4pairIT0_S3_EET_S5_
FNL:1,90
FNA:1,2,_ZNSt3__114__rewrap_rangeB8ne200100IPKbS2_EET_S3_T0_
FNA:1,7,_ZNSt3__114__rewrap_rangeB8ne200100IPKcS2_EET_S3_T0_
FNA:1,1,_ZNSt3__114__rewrap_rangeB8ne200100IPN3fmt3v1216basic_format_argINS2_7contextEEES6_EET_S7_T0_
FNA:1,0,_ZNSt3__114__rewrap_rangeB8ne200100IPN7testing8internal13edit_distance8EditTypeES5_EET_S6_T0_
FNA:1,0,_ZNSt3__114__rewrap_rangeB8ne200100IPPN7testing17TestEventListenerES4_EET_S5_T0_
FNA:1,0,_ZNSt3__114__rewrap_rangeB8ne200100IPPN7testing9TestSuiteES4_EET_S5_T0_
FNA:1,0,_ZNSt3__114__rewrap_rangeB8ne200100IPPcS2_EET_S3_T0_
FNA:1,0,_ZNSt3__114__rewrap_rangeB8ne200100IPPiS2_EET_S3_T0_
FNA:1,5,_ZNSt3__114__rewrap_rangeB8ne200100IPcS1_EET_S2_T0_
FNA:1,0,_ZNSt3__114__rewrap_rangeB8ne200100IPdS1_EET_S2_T0_
FNA:1,5,_ZNSt3__114__rewrap_rangeB8ne200100IPiS1_EET_S2_T0_
FNF:2
FNH:2
DA:85,92
DA:86,92
DA:90,20
DA:91,20
LF:4
LH:4
end_of_record
TN:
SF:/Applications/Xcode.app/Contents/Developer/Platforms/MacOSX.platform/Developer/SDKs/MacOSX.sdk/usr/include/c++/v1/__atomic/atomic.h
FNL:0,137
FNA:0,16,_ZNSt3__113__atomic_baseIiLb0EEC2B8ne200100Ei
FNL:1,150
FNA:1,16,_ZNSt3__113__atomic_baseIiLb1EEC2B8ne200100Ei
FNL:2,155
FNA:2,1003,_ZNSt3__113__atomic_baseIiLb1EE9fetch_addB8ne200100EiNS_12memory_orderE
FNL:3,161
FNA:3,19,_ZNSt3__113__atomic_baseIiLb1EE9fetch_subB8ne200100EiNS_12memory_orderE
FNL:4,188
FNA:4,1000,_ZNSt3__113__atomic_baseIiLb1EEppB8ne200100Ev
FNL:5,241
FNA:5,16,_ZNSt3__16atomicIiEC1B8ne200100Ei
FNA:5,16,_ZNSt3__16atomicIiEC2B8ne200100Ei
FNL:6,65
FNA:6,2,_ZNKSt3__113__atomic_baseIbLb0EE4loadB8ne200100ENS_12memory_orderE
FNA:6,1,_ZNKSt3__113__atomic_baseIiLb0EE4loadB8ne200100ENS_12memory_orderE
FNL:7,70
FNA:7,1,_ZNKSt3__113__atomic_baseIiLb0EEcviB8ne200100Ev
FNF:8
FNH:8
DA:65,3
DA:67,3
DA:70,1
DA:137,16
DA:150,16
DA:155,1003
DA:156,1003
DA:161,19
DA:162,19
DA:188,1000
DA:241,32
LF:11
LH:11
end_of_record
TN:
SF:/Applications/Xcode.app/Contents/Developer/Platforms/MacOSX.platform/Developer/SDKs/MacOSX.sdk/usr/include/c++/v1/__atomic/support.h
FNL:0,119
FNA:0,16,_ZNSt3__117__cxx_atomic_implIiNS_22__cxx_atomic_base_implIiEEEC1B8ne200100Ei
FNA:0,16,_ZNSt3__117__cxx_atomic_implIiNS_22__cxx_atomic_base_implIiEEEC2B8ne200100Ei
FNF:1
FNH:1
DA:119,32
LF:1
LH:1
end_of_record
TN:
SF:/Applications/Xcode.app/Contents/Developer/Platforms/MacOSX.platform/Developer/SDKs/MacOSX.sdk/usr/include/c++/v1/__atomic/support/c11.h
FNL:0,180
FNA:0,1003,_ZNSt3__122__cxx_atomic_fetch_addB8ne200100IiEET_PNS_22__cxx_atomic_base_implIS1_EES1_NS_12memory_orderE
FNL:1,206
FNA:1,19,_ZNSt3__122__cxx_atomic_fetch_subB8ne200100IiEET_PNS_22__cxx_atomic_base_implIS1_EES1_NS_12memory_orderE
FNL:2,37
FNA:2,16,_ZNSt3__122__cxx_atomic_base_implIiEC2Ei
FNL:3,79
FNA:3,2,_ZNSt3__117__cxx_atomic_loadB8ne200100IbEET_PKNS_22__cxx_atomic_base_implIS1_EENS_12memory_orderE
FNA:3,1,_ZNSt3__117__cxx_atomic_loadB8ne200100IiEET_PKNS_22__cxx_atomic_base_implIS1_EENS_12memory_orderE
FNF:4
FNH:4
DA:37,16
DA:79,3
DA:81,3
DA:82,3
DA:180,1003
DA:181,1003
DA:182,1003
DA:206,19
DA:207,19
DA:208,19
LF:10
LH:10
end_of_record
TN:
SF:/Applications/Xcode.app/Contents/Developer/Platforms/MacOSX.platform/Developer/SDKs/MacOSX.sdk/usr/include/c++/v1/__bit/countl.h
FNL:0,34
FNA:0,0,_ZNSt3__112__libcpp_clzB8ne200100Em
FNF:1
FNH:0
DA:34,0
DA:35,0
LF:2
LH:0
end_of_record
TN:
SF:/Applications/Xcode.app/Contents/Developer/Platforms/MacOSX.platform/Developer/SDKs/MacOSX.sdk/usr/include/c++/v1/__bit_reference
FNL:0,112
FNA:0,6,_ZNSt3__115__bit_referenceINS_6vectorIbNS_9allocatorIbEEEELb1EEC1B8ne200100EPmm
FNA:0,6,_ZNSt3__115__bit_referenceINS_6vectorIbNS_9allocatorIbEEEELb1EEC2B8ne200100EPmm
FNA:0,2,_ZNSt3__115__bit_referenceINS_8__bitsetILm1ELm2EEELb1EEC1B8ne200100EPmm
FNA:0,2,_ZNSt3__115__bit_referenceINS_8__bitsetILm1ELm2EEELb1EEC2B8ne200100EPmm
FNL:1,171
FNA:1,2,_ZNKSt3__121__bit_const_referenceINS_6vectorIbNS_9allocatorIbEEEEEcvbB8ne200100Ev
FNA:1,2,_ZNKSt3__121__bit_const_referenceINS_8__bitsetILm1ELm2EEEEcvbB8ne200100Ev
FNA:1,36,_ZNKSt3__121__bit_const_referenceINS_8__bitsetILm1ELm6EEEEcvbB8ne200100Ev
FNL:2,181
FNA:2,2,_ZNSt3__121__bit_const_referenceINS_6vectorIbNS_9allocatorIbEEEEEC1B8ne200100EPKmm
FNA:2,2,_ZNSt3__121__bit_const_referenceINS_6vectorIbNS_9allocatorIbEEEEEC2B8ne200100EPKmm
FNA:2,2,_ZNSt3__121__bit_const_referenceINS_8__bitsetILm1ELm2EEEEC1B8ne200100EPKmm
FNA:2,2,_ZNSt3__121__bit_const_referenceINS_8__bitsetILm1ELm2EEEEC2B8ne200100EPKmm
FNA:2,36,_ZNSt3__121__bit_const_referenceINS_8__bitsetILm1ELm6EEEEC1B8ne200100EPKmm
FNA:2,36,_ZNSt3__121__bit_const_referenceINS_8__bitsetILm1ELm6EEEEC2B8ne200100EPKmm
FNL:3,76
FNA:3,2,_ZNKSt3__115__bit_referenceINS_6vectorIbNS_9allocatorIbEEEELb1EEcvbB8ne200100Ev
FNA:3,2,_ZNKSt3__115__bit_referenceINS_8__bitsetILm1ELm2EEELb1EEcvbB8ne200100Ev
FNL:4,83
FNA:4,4,_ZNSt3__115__bit_referenceINS_6vectorIbNS_9allocatorIbEEEELb1EEaSB8ne200100Eb
FNL:5,830
FNA:5,22,_ZNSt3__114__bit_iteratorINS_6vectorIbNS_9allocatorIbEEEELb0ELm0EEC1B8ne200100ERKS5_
FNA:5,22,_ZNSt3__114__bit_iteratorINS_6vectorIbNS_9allocatorIbEEEELb0ELm0EEC2B8ne200100ERKS5_
FNL:6,846
FNA:6,4,_ZNKSt3__114__bit_iteratorINS_6vectorIbNS_9allocatorIbEEEELb0ELm0EEdeB8ne200100Ev
FNL:7,851
FNA:7,4,_ZNSt3__114__bit_iteratorINS_6vectorIbNS_9allocatorIbEEEELb0ELm0EEppB8ne200100Ev
FNL:8,969
FNA:8,2,_ZNSt3__114__bit_iteratorINS_6vectorIbNS_9allocatorIbEEEELb0ELm0EEC1B8ne200100EPmj
FNA:8,2,_ZNSt3__114__bit_iteratorINS_6vectorIbNS_9allocatorIbEEEELb0ELm0EEC2B8ne200100EPmj
FNF:9
FNH:9
DA:76,4
DA:77,4
DA:83,4
DA:84,4
DA:85,2
DA:87,2
DA:88,4
DA:112,16
DA:113,8
DA:114,16
DA:171,40
DA:172,40
DA:181,80
DA:182,40
DA:183,80
DA:830,44
DA:831,22
DA:832,44
DA:846,4
DA:847,4
DA:848,4
DA:851,4
DA:852,4
DA:853,4
DA:855,0
DA:856,0
DA:858,4
DA:969,4
DA:970,2
DA:971,4
LF:30
LH:28
end_of_record
TN:
SF:/Applications/Xcode.app/Contents/Developer/Platforms/MacOSX.platform/Developer/SDKs/MacOSX.sdk/usr/include/c++/v1/__chrono/duration.h
FNL:0,105
FNA:0,2,_ZNSt3__16chrono13duration_castB8ne200100INS0_8durationIdNS_5ratioILl1ELl1EEEEExS4_Li0EEET_RKNS2_IT0_T1_EE
FNA:0,1,_ZNSt3__16chrono13duration_castB8ne200100INS0_8durationIdNS_5ratioILl1ELl3EEEEExNS3_ILl1ELl1EEELi0EEET_RKNS2_IT0_T1_EE
FNA:0,1,_ZNSt3__16chrono13duration_castB8ne200100INS0_8durationIlNS_5ratioILl1ELl1EEEEEdNS3_ILl1ELl3EEELi0EEET_RKNS2_IT0_T1_EE
FNA:0,2,_ZNSt3__16chrono13duration_castB8ne200100INS0_8durationIlNS_5ratioILl1ELl1EEEEEdS4_Li0EEET_RKNS2_IT0_T1_EE
FNA:0,0,_ZNSt3__16chrono13duration_castB8ne200100INS0_8durationIxNS_5ratioILl1ELl1000000000000000000EEEEEjS4_Li0EEET_RKNS2_IT0_T1_EE
FNA:0,0,_ZNSt3__16chrono13duration_castB8ne200100INS0_8durationIxNS_5ratioILl1ELl1000000000000000000EEEEExNS3_ILl1ELl1EEELi0EEET_RKNS2_IT0_T1_EE
FNA:0,0,_ZNSt3__16chrono13duration_castB8ne200100INS0_8durationIxNS_5ratioILl1ELl1000000000000000EEEEEjS4_Li0EEET_RKNS2_IT0_T1_EE
FNA:0,0,_ZNSt3__16chrono13duration_castB8ne200100INS0_8durationIxNS_5ratioILl1ELl1000000000000000EEEEExNS3_ILl1ELl1EEELi0EEET_RKNS2_IT0_T1_EE
FNA:0,0,_ZNSt3__16chrono13duration_castB8ne200100INS0_8durationIxNS_5ratioILl1ELl1000000000000EEEEEjS4_Li0EEET_RKNS2_IT0_T1_EE
FNA:0,0,_ZNSt3__16chrono13duration_castB8ne200100INS0_8durationIxNS_5ratioILl1ELl1000000000000EEEEExNS3_ILl1ELl1EEELi0EEET_RKNS2_IT0_T1_EE
FNA:0,4,_ZNSt3__16chrono13duration_castB8ne200100INS0_8durationIxNS_5ratioILl1ELl1000000000EEEEExNS3_ILl1ELl1EEELi0EEET_RKNS2_IT0_T1_EE
FNA:0,20,_ZNSt3__16chrono13duration_castB8ne200100INS0_8durationIxNS_5ratioILl1ELl1000000EEEEExNS3_ILl1ELl1EEELi0EEET_RKNS2_IT0_T1_EE
FNA:0,1,_ZNSt3__16chrono13duration_castB8ne200100INS0_8durationIxNS_5ratioILl1ELl1000000EEEEExS4_Li0EEET_RKNS2_IT0_T1_EE
FNA:0,1,_ZNSt3__16chrono13duration_castB8ne200100INS0_8durationIxNS_5ratioILl1ELl1000EEEEEjS4_Li0EEET_RKNS2_IT0_T1_EE
FNA:0,612,_ZNSt3__16chrono13duration_castB8ne200100INS0_8durationIxNS_5ratioILl1ELl1000EEEEExNS3_ILl1ELl1000000000EEELi0EEET_RKNS2_IT0_T1_EE
FNA:0,612,_ZNSt3__16chrono13duration_castB8ne200100INS0_8durationIxNS_5ratioILl1ELl1000EEEEExNS3_ILl1ELl1000000EEELi0EEET_RKNS2_IT0_T1_EE
FNA:0,16,_ZNSt3__16chrono13duration_castB8ne200100INS0_8durationIxNS_5ratioILl1ELl1000EEEEExNS3_ILl1ELl1EEELi0EEET_RKNS2_IT0_T1_EE
FNA:0,2,_ZNSt3__16chrono13duration_castB8ne200100INS0_8durationIxNS_5ratioILl1ELl100EEEEEjS4_Li0EEET_RKNS2_IT0_T1_EE
FNA:0,2,_ZNSt3__16chrono13duration_castB8ne200100INS0_8durationIxNS_5ratioILl1ELl100EEEEExNS3_ILl1ELl1EEELi0EEET_RKNS2_IT0_T1_EE
FNA:0,0,_ZNSt3__16chrono13duration_castB8ne200100INS0_8durationIxNS_5ratioILl1ELl10EEEEEjS4_Li0EEET_RKNS2_IT0_T1_EE
FNA:0,0,_ZNSt3__16chrono13duration_castB8ne200100INS0_8durationIxNS_5ratioILl1ELl10EEEEExNS3_ILl1ELl1EEELi0EEET_RKNS2_IT0_T1_EE
FNA:0,1,_ZNSt3__16chrono13duration_castB8ne200100INS0_8durationIxNS_5ratioILl1ELl1EEEEEdNS3_ILl1ELl3EEELi0EEET_RKNS2_IT0_T1_EE
FNA:0,2,_ZNSt3__16chrono13duration_castB8ne200100INS0_8durationIxNS_5ratioILl1ELl1EEEEEdS4_Li0EEET_RKNS2_IT0_T1_EE
FNA:0,2,_ZNSt3__16chrono13duration_castB8ne200100INS0_8durationIxNS_5ratioILl1ELl1EEEEEiNS3_ILl63ELl1EEELi0EEET_RKNS2_IT0_T1_EE
FNA:0,2,_ZNSt3__16chrono13duration_castB8ne200100INS0_8durationIxNS_5ratioILl1ELl1EEEEEiNS3_ILl9ELl1EEELi0EEET_RKNS2_IT0_T1_EE
FNA:0,0,_ZNSt3__16chrono13duration_castB8ne200100INS0_8durationIxNS_5ratioILl1ELl1EEEEEjNS3_ILl1000000000000000000ELl1EEELi0EEET_RKNS2_IT0_T1_EE
FNA:0,0,_ZNSt3__16chrono13duration_castB8ne200100INS0_8durationIxNS_5ratioILl1ELl1EEEEEjNS3_ILl1000000000000000ELl1EEELi0EEET_RKNS2_IT0_T1_EE
FNA:0,0,_ZNSt3__16chrono13duration_castB8ne200100INS0_8durationIxNS_5ratioILl1ELl1EEEEEjNS3_ILl1000000000000ELl1EEELi0EEET_RKNS2_IT0_T1_EE
FNA:0,0,_ZNSt3__16chrono13duration_castB8ne200100INS0_8durationIxNS_5ratioILl1ELl1EEEEEjNS3_ILl1000000000ELl1EEELi0EEET_RKNS2_IT0_T1_EE
FNA:0,1,_ZNSt3__16chrono13duration_castB8ne200100INS0_8durationIxNS_5ratioILl1ELl1EEEEEjNS3_ILl1000000ELl1EEELi0EEET_RKNS2_IT0_T1_EE
FNA:0,0,_ZNSt3__16chrono13duration_castB8ne200100INS0_8durationIxNS_5ratioILl1ELl1EEEEEjNS3_ILl1000ELl1EEELi0EEET_RKNS2_IT0_T1_EE
FNA:0,0,_ZNSt3__16chrono13duration_castB8ne200100INS0_8durationIxNS_5ratioILl1ELl1EEEEEjNS3_ILl100ELl1EEELi0EEET_RKNS2_IT0_T1_EE
FNA:0,0,_ZNSt3__16chrono13duration_castB8ne200100INS0_8durationIxNS_5ratioILl1ELl1EEEEEjNS3_ILl10ELl1EEELi0EEET_RKNS2_IT0_T1_EE
FNA:0,0,_ZNSt3__16chrono13duration_castB8ne200100INS0_8durationIxNS_5ratioILl1ELl1EEEEEjNS3_ILl15ELl1EEELi0EEET_RKNS2_IT0_T1_EE
FNA:0,0,_ZNSt3__16chrono13duration_castB8ne200100INS0_8durationIxNS_5ratioILl1ELl1EEEEEjS4_Li0EEET_RKNS2_IT0_T1_EE
FNA:0,2,_ZNSt3__16chrono13duration_castB8ne200100INS0_8durationIxNS_5ratioILl1ELl1EEEEElNS3_ILl60ELl1EEELi0EEET_RKNS2_IT0_T1_EE
FNA:0,0,_ZNSt3__16chrono13duration_castB8ne200100INS0_8durationIxNS_5ratioILl1ELl1EEEEExNS3_ILl31556952ELl1EEELi0EEET_RKNS2_IT0_T1_EE
FNA:0,2,_ZNSt3__16chrono13duration_castB8ne200100INS0_8durationIxNS_5ratioILl1ELl3EEEEExNS3_ILl1ELl1EEELi0EEET_RKNS2_IT0_T1_EE
FNA:0,0,_ZNSt3__16chrono13duration_castB8ne200100INS0_8durationIxNS_5ratioILl1ELl4EEEEEjNS3_ILl15ELl4EEELi0EEET_RKNS2_IT0_T1_EE
FNA:0,0,_ZNSt3__16chrono13duration_castB8ne200100INS0_8durationIxNS_5ratioILl1ELl4EEEEExNS3_ILl1ELl1EEELi0EEET_RKNS2_IT0_T1_EE
FNA:0,3,_ZNSt3__16chrono13duration_castB8ne200100INS0_8durationIyNS_5ratioILl1ELl1000000000000000000EEEEExNS3_ILl1ELl1EEELi0EEET_RKNS2_IT0_T1_EE
FNA:0,5,_ZNSt3__16chrono13duration_castB8ne200100INS0_8durationIyNS_5ratioILl1ELl1000000000EEEEExNS3_ILl1ELl1EEELi0EEET_RKNS2_IT0_T1_EE
FNA:0,1,_ZNSt3__16chrono13duration_castB8ne200100INS0_8durationIyNS_5ratioILl1ELl1000000EEEEExNS3_ILl1ELl1EEELi0EEET_RKNS2_IT0_T1_EE
FNA:0,17,_ZNSt3__16chrono13duration_castB8ne200100INS0_8durationIyNS_5ratioILl1ELl1000EEEEExNS3_ILl1ELl1EEELi0EEET_RKNS2_IT0_T1_EE
FNA:0,0,_ZNSt3__16chrono13duration_castB8ne200100INS0_8durationIyNS_5ratioILl1ELl1EEEEEmNS3_ILl1000000000ELl1EEELi0EEET_RKNS2_IT0_T1_EE
FNA:0,1,_ZNSt3__16chrono13duration_castB8ne200100INS0_8durationIyNS_5ratioILl1ELl1EEEEEmNS3_ILl3600ELl1EEELi0EEET_RKNS2_IT0_T1_EE
FNA:0,0,_ZNSt3__16chrono13duration_castB8ne200100INS0_8durationIyNS_5ratioILl1ELl1EEEEEmNS3_ILl60ELl1EEELi0EEET_RKNS2_IT0_T1_EE
FNA:0,0,_ZNSt3__16chrono13duration_castB8ne200100INS0_8durationIyNS_5ratioILl1ELl1EEEEEmNS3_ILl86400ELl1EEELi0EEET_RKNS2_IT0_T1_EE
FNA:0,16,_ZNSt3__16chrono13duration_castB8ne200100INS0_8durationIyNS_5ratioILl1ELl1EEEEExS4_Li0EEET_RKNS2_IT0_T1_EE
FNA:0,1,_ZNSt3__16chrono13duration_castB8ne200100INS0_8durationIyNS_5ratioILl1ELl3EEEEExNS3_ILl1ELl1EEELi0EEET_RKNS2_IT0_T1_EE
FNA:0,1,_ZNSt3__16chrono13duration_castB8ne200100INS0_8durationIyNS_5ratioILl1ELl7EEEEExNS3_ILl1ELl1EEELi0EEET_RKNS2_IT0_T1_EE
FNL:1,120
FNA:1,1,_ZNSt3__16chrono15duration_valuesIxE4zeroB8ne200100Ev
FNL:2,209
FNA:2,1,_ZNSt3__16chrono8durationIaNS_5ratioILl1ELl1000EEEEC1B8ne200100IiLi0EEERKT_
FNA:2,1,_ZNSt3__16chrono8durationIaNS_5ratioILl1ELl1000EEEEC2B8ne200100IiLi0EEERKT_
FNA:2,1,_ZNSt3__16chrono8durationIaNS_5ratioILl1ELl100EEEEC1B8ne200100IiLi0EEERKT_
FNA:2,1,_ZNSt3__16chrono8durationIaNS_5ratioILl1ELl100EEEEC2B8ne200100IiLi0EEERKT_
FNA:2,2,_ZNSt3__16chrono8durationIcNS_5ratioILl1000000ELl1EEEEC1B8ne200100IiLi0EEERKT_
FNA:2,2,_ZNSt3__16chrono8durationIcNS_5ratioILl1000000ELl1EEEEC2B8ne200100IiLi0EEERKT_
FNA:2,14,_ZNSt3__16chrono8durationIdNS_5ratioILl1ELl1000000000EEEEC1B8ne200100IdLi0EEERKT_
FNA:2,1,_ZNSt3__16chrono8durationIdNS_5ratioILl1ELl1000000000EEEEC1B8ne200100IiLi0EEERKT_
FNA:2,3,_ZNSt3__16chrono8durationIdNS_5ratioILl1ELl1000000000EEEEC1B8ne200100IlLi0EEERKT_
FNA:2,14,_ZNSt3__16chrono8durationIdNS_5ratioILl1ELl1000000000EEEEC2B8ne200100IdLi0EEERKT_
FNA:2,1,_ZNSt3__16chrono8durationIdNS_5ratioILl1ELl1000000000EEEEC2B8ne200100IiLi0EEERKT_
FNA:2,3,_ZNSt3__16chrono8durationIdNS_5ratioILl1ELl1000000000EEEEC2B8ne200100IlLi0EEERKT_
FNA:2,58,_ZNSt3__16chrono8durationIdNS_5ratioILl1ELl1000EEEEC1B8ne200100IdLi0EEERKT_
FNA:2,58,_ZNSt3__16chrono8durationIdNS_5ratioILl1ELl1000EEEEC2B8ne200100IdLi0EEERKT_
FNA:2,63,_ZNSt3__16chrono8durationIdNS_5ratioILl1ELl1EEEEC1B8ne200100IdLi0EEERKT_
FNA:2,2,_ZNSt3__16chrono8durationIdNS_5ratioILl1ELl1EEEEC1B8ne200100IiLi0EEERKT_
FNA:2,63,_ZNSt3__16chrono8durationIdNS_5ratioILl1ELl1EEEEC2B8ne200100IdLi0EEERKT_
FNA:2,2,_ZNSt3__16chrono8durationIdNS_5ratioILl1ELl1EEEEC2B8ne200100IiLi0EEERKT_
FNA:2,3,_ZNSt3__16chrono8durationIdNS_5ratioILl1ELl3EEEEC1B8ne200100IdLi0EEERKT_
FNA:2,1,_ZNSt3__16chrono8durationIdNS_5ratioILl1ELl3EEEEC1B8ne200100IiLi0EEERKT_
FNA:2,3,_ZNSt3__16chrono8durationIdNS_5ratioILl1ELl3EEEEC2B8ne200100IdLi0EEERKT_
FNA:2,1,_ZNSt3__16chrono8durationIdNS_5ratioILl1ELl3EEEEC2B8ne200100IiLi0EEERKT_
FNA:2,0,_ZNSt3__16chrono8durationIfNS_5ratioILl1000000000000000000ELl1EEEEC1B8ne200100IfLi0EEERKT_
FNA:2,1,_ZNSt3__16chrono8durationIfNS_5ratioILl1000000000000000000ELl1EEEEC1B8ne200100IiLi0EEERKT_
FNA:2,0,_ZNSt3__16chrono8durationIfNS_5ratioILl1000000000000000000ELl1EEEEC2B8ne200100IfLi0EEERKT_
FNA:2,1,_ZNSt3__16chrono8durationIfNS_5ratioILl1000000000000000000ELl1EEEEC2B8ne200100IiLi0EEERKT_
FNA:2,0,_ZNSt3__16chrono8durationIfNS_5ratioILl1ELl1000000000000000000EEEEC1B8ne200100IfLi0EEERKT_
FNA:2,1,_ZNSt3__16chrono8durationIfNS_5ratioILl1ELl1000000000000000000EEEEC1B8ne200100IiLi0EEERKT_
FNA:2,0,_ZNSt3__16chrono8durationIfNS_5ratioILl1ELl1000000000000000000EEEEC2B8ne200100IfLi0EEERKT_
FNA:2,1,_ZNSt3__16chrono8durationIfNS_5ratioILl1ELl1000000000000000000EEEEC2B8ne200100IiLi0EEERKT_
FNA:2,1,_ZNSt3__16chrono8durationIfNS_5ratioILl1ELl1000000000000EEEEC1B8ne200100IdLi0EEERKT_
FNA:2,2,_ZNSt3__16chrono8durationIfNS_5ratioILl1ELl1000000000000EEEEC1B8ne200100IfLi0EEERKT_
FNA:2,1,_ZNSt3__16chrono8durationIfNS_5ratioILl1ELl1000000000000EEEEC2B8ne200100IdLi0EEERKT_
FNA:2,2,_ZNSt3__16chrono8durationIfNS_5ratioILl1ELl1000000000000EEEEC2B8ne200100IfLi0EEERKT_
FNA:2,2,_ZNSt3__16chrono8durationIfNS_5ratioILl1ELl1000EEEEC1B8ne200100IdLi0EEERKT_
FNA:2,1,_ZNSt3__16chrono8durationIfNS_5ratioILl1ELl1000EEEEC1B8ne200100IfLi0EEERKT_
FNA:2,2,_ZNSt3__16chrono8durationIfNS_5ratioILl1ELl1000EEEEC2B8ne200100IdLi0EEERKT_
FNA:2,1,_ZNSt3__16chrono8durationIfNS_5ratioILl1ELl1000EEEEC2B8ne200100IfLi0EEERKT_
FNA:2,2,_ZNSt3__16chrono8durationIfNS_5ratioILl1ELl1EEEEC1B8ne200100IdLi0EEERKT_
FNA:2,4,_ZNSt3__16chrono8durationIfNS_5ratioILl1ELl1EEEEC1B8ne200100IfLi0EEERKT_
FNA:2,2,_ZNSt3__16chrono8durationIfNS_5ratioILl1ELl1EEEEC2B8ne200100IdLi0EEERKT_
FNA:2,4,_ZNSt3__16chrono8durationIfNS_5ratioILl1ELl1EEEEC2B8ne200100IfLi0EEERKT_
FNA:2,1,_ZNSt3__16chrono8durationIiNS_5ratioILl1000000000000000000ELl1EEEEC1B8ne200100IiLi0EEERKT_
FNA:2,1,_ZNSt3__16chrono8durationIiNS_5ratioILl1000000000000000000ELl1EEEEC2B8ne200100IiLi0EEERKT_
FNA:2,1,_ZNSt3__16chrono8durationIiNS_5ratioILl1000000000000000ELl1EEEEC1B8ne200100IiLi0EEERKT_
FNA:2,1,_ZNSt3__16chrono8durationIiNS_5ratioILl1000000000000000ELl1EEEEC2B8ne200100IiLi0EEERKT_
FNA:2,1,_ZNSt3__16chrono8durationIiNS_5ratioILl1000000000000ELl1EEEEC1B8ne200100IiLi0EEERKT_
FNA:2,1,_ZNSt3__16chrono8durationIiNS_5ratioILl1000000000000ELl1EEEEC2B8ne200100IiLi0EEERKT_
FNA:2,1,_ZNSt3__16chrono8durationIiNS_5ratioILl1000000000ELl1EEEEC1B8ne200100IiLi0EEERKT_
FNA:2,1,_ZNSt3__16chrono8durationIiNS_5ratioILl1000000000ELl1EEEEC2B8ne200100IiLi0EEERKT_
FNA:2,1,_ZNSt3__16chrono8durationIiNS_5ratioILl1000000ELl1EEEEC1B8ne200100IiLi0EEERKT_
FNA:2,1,_ZNSt3__16chrono8durationIiNS_5ratioILl1000000ELl1EEEEC2B8ne200100IiLi0EEERKT_
FNA:2,1,_ZNSt3__16chrono8durationIiNS_5ratioILl1000ELl1EEEEC1B8ne200100IiLi0EEERKT_
FNA:2,1,_ZNSt3__16chrono8durationIiNS_5ratioILl1000ELl1EEEEC2B8ne200100IiLi0EEERKT_
FNA:2,1,_ZNSt3__16chrono8durationIiNS_5ratioILl100ELl1EEEEC1B8ne200100IiLi0EEERKT_
FNA:2,1,_ZNSt3__16chrono8durationIiNS_5ratioILl100ELl1EEEEC2B8ne200100IiLi0EEERKT_
FNA:2,1,_ZNSt3__16chrono8durationIiNS_5ratioILl10ELl1EEEEC1B8ne200100IiLi0EEERKT_
FNA:2,1,_ZNSt3__16chrono8durationIiNS_5ratioILl10ELl1EEEEC2B8ne200100IiLi0EEERKT_
FNA:2,1,_ZNSt3__16chrono8durationIiNS_5ratioILl15ELl1EEEEC1B8ne200100IiLi0EEERKT_
FNA:2,1,_ZNSt3__16chrono8durationIiNS_5ratioILl15ELl1EEEEC2B8ne200100IiLi0EEERKT_
FNA:2,1,_ZNSt3__16chrono8durationIiNS_5ratioILl15ELl4EEEEC1B8ne200100IiLi0EEERKT_
FNA:2,1,_ZNSt3__16chrono8durationIiNS_5ratioILl15ELl4EEEEC2B8ne200100IiLi0EEERKT_
FNA:2,1,_ZNSt3__16chrono8durationIiNS_5ratioILl1ELl1000000000000000000EEEEC1B8ne200100IiLi0EEERKT_
FNA:2,1,_ZNSt3__16chrono8durationIiNS_5ratioILl1ELl1000000000000000000EEEEC2B8ne200100IiLi0EEERKT_
FNA:2,1,_ZNSt3__16chrono8durationIiNS_5ratioILl1ELl1000000000000000EEEEC1B8ne200100IiLi0EEERKT_
FNA:2,1,_ZNSt3__16chrono8durationIiNS_5ratioILl1ELl1000000000000000EEEEC2B8ne200100IiLi0EEERKT_
FNA:2,1,_ZNSt3__16chrono8durationIiNS_5ratioILl1ELl1000000000000EEEEC1B8ne200100IiLi0EEERKT_
FNA:2,1,_ZNSt3__16chrono8durationIiNS_5ratioILl1ELl1000000000000EEEEC2B8ne200100IiLi0EEERKT_
FNA:2,1,_ZNSt3__16chrono8durationIiNS_5ratioILl1ELl100EEEEC1B8ne200100IiLi0EEERKT_
FNA:2,1,_ZNSt3__16chrono8durationIiNS_5ratioILl1ELl100EEEEC2B8ne200100IiLi0EEERKT_
FNA:2,1,_ZNSt3__16chrono8durationIiNS_5ratioILl1ELl10EEEEC1B8ne200100IiLi0EEERKT_
FNA:2,1,_ZNSt3__16chrono8durationIiNS_5ratioILl1ELl10EEEEC2B8ne200100IiLi0EEERKT_
FNA:2,1,_ZNSt3__16chrono8durationIiNS_5ratioILl1ELl1EEEEC1B8ne200100IiLi0EEERKT_
FNA:2,1,_ZNSt3__16chrono8durationIiNS_5ratioILl1ELl1EEEEC2B8ne200100IiLi0EEERKT_
FNA:2,2,_ZNSt3__16chrono8durationIiNS_5ratioILl63ELl1EEEEC1B8ne200100IiLi0EEERKT_
FNA:2,2,_ZNSt3__16chrono8durationIiNS_5ratioILl63ELl1EEEEC2B8ne200100IiLi0EEERKT_
FNA:2,2,_ZNSt3__16chrono8durationIiNS_5ratioILl9ELl1EEEEC1B8ne200100IiLi0EEERKT_
FNA:2,2,_ZNSt3__16chrono8durationIiNS_5ratioILl9ELl1EEEEC2B8ne200100IiLi0EEERKT_
FNA:2,0,_ZNSt3__16chrono8durationIjNS_5ratioILl1000000000000000000ELl1EEEEC1B8ne200100IjLi0EEERKT_
FNA:2,0,_ZNSt3__16chrono8durationIjNS_5ratioILl1000000000000000000ELl1EEEEC2B8ne200100IjLi0EEERKT_
FNA:2,0,_ZNSt3__16chrono8durationIjNS_5ratioILl1000000000000000ELl1EEEEC1B8ne200100IjLi0EEERKT_
FNA:2,0,_ZNSt3__16chrono8durationIjNS_5ratioILl1000000000000000ELl1EEEEC2B8ne200100IjLi0EEERKT_
FNA:2,0,_ZNSt3__16chrono8durationIjNS_5ratioILl1000000000000ELl1EEEEC1B8ne200100IjLi0EEERKT_
FNA:2,0,_ZNSt3__16chrono8durationIjNS_5ratioILl1000000000000ELl1EEEEC2B8ne200100IjLi0EEERKT_
FNA:2,0,_ZNSt3__16chrono8durationIjNS_5ratioILl1000000000ELl1EEEEC1B8ne200100IjLi0EEERKT_
FNA:2,0,_ZNSt3__16chrono8durationIjNS_5ratioILl1000000000ELl1EEEEC2B8ne200100IjLi0EEERKT_
FNA:2,3,_ZNSt3__16chrono8durationIjNS_5ratioILl1000000ELl1EEEEC1B8ne200100IjLi0EEERKT_
FNA:2,3,_ZNSt3__16chrono8durationIjNS_5ratioILl1000000ELl1EEEEC2B8ne200100IjLi0EEERKT_
FNA:2,0,_ZNSt3__16chrono8durationIjNS_5ratioILl1000ELl1EEEEC1B8ne200100IjLi0EEERKT_
FNA:2,0,_ZNSt3__16chrono8durationIjNS_5ratioILl1000ELl1EEEEC2B8ne200100IjLi0EEERKT_
FNA:2,0,_ZNSt3__16chrono8durationIjNS_5ratioILl100ELl1EEEEC1B8ne200100IjLi0EEERKT_
FNA:2,0,_ZNSt3__16chrono8durationIjNS_5ratioILl100ELl1EEEEC2B8ne200100IjLi0EEERKT_
FNA:2,0,_ZNSt3__16chrono8durationIjNS_5ratioILl10ELl1EEEEC1B8ne200100IjLi0EEERKT_
FNA:2,0,_ZNSt3__16chrono8durationIjNS_5ratioILl10ELl1EEEEC2B8ne200100IjLi0EEERKT_
FNA:2,0,_ZNSt3__16chrono8durationIjNS_5ratioILl15ELl1EEEEC1B8ne200100IjLi0EEERKT_
FNA:2,0,_ZNSt3__16chrono8durationIjNS_5ratioILl15ELl1EEEEC2B8ne200100IjLi0EEERKT_
FNA:2,0,_ZNSt3__16chrono8durationIjNS_5ratioILl15ELl4EEEEC1B8ne200100IjLi0EEERKT_
FNA:2,0,_ZNSt3__16chrono8durationIjNS_5ratioILl15ELl4EEEEC2B8ne200100IjLi0EEERKT_
FNA:2,0,_ZNSt3__16chrono8durationIjNS_5ratioILl1ELl1000000000000000000EEEEC1B8ne200100IjLi0EEERKT_
FNA:2,0,_ZNSt3__16chrono8durationIjNS_5ratioILl1ELl1000000000000000000EEEEC2B8ne200100IjLi0EEERKT_
FNA:2,0,_ZNSt3__16chrono8durationIjNS_5ratioILl1ELl1000000000000000EEEEC1B8ne200100IjLi0EEERKT_
FNA:2,0,_ZNSt3__16chrono8durationIjNS_5ratioILl1ELl1000000000000000EEEEC2B8ne200100IjLi0EEERKT_
FNA:2,0,_ZNSt3__16chrono8durationIjNS_5ratioILl1ELl1000000000000EEEEC1B8ne200100IjLi0EEERKT_
FNA:2,0,_ZNSt3__16chrono8durationIjNS_5ratioILl1ELl1000000000000EEEEC2B8ne200100IjLi0EEERKT_
FNA:2,2,_ZNSt3__16chrono8durationIjNS_5ratioILl1ELl1000EEEEC1B8ne200100IjLi0EEERKT_
FNA:2,2,_ZNSt3__16chrono8durationIjNS_5ratioILl1ELl1000EEEEC2B8ne200100IjLi0EEERKT_
FNA:2,4,_ZNSt3__16chrono8durationIjNS_5ratioILl1ELl100EEEEC1B8ne200100IjLi0EEERKT_
FNA:2,4,_ZNSt3__16chrono8durationIjNS_5ratioILl1ELl100EEEEC2B8ne200100IjLi0EEERKT_
FNA:2,0,_ZNSt3__16chrono8durationIjNS_5ratioILl1ELl10EEEEC1B8ne200100IjLi0EEERKT_
FNA:2,0,_ZNSt3__16chrono8durationIjNS_5ratioILl1ELl10EEEEC2B8ne200100IjLi0EEERKT_
FNA:2,1,_ZNSt3__16chrono8durationIjNS_5ratioILl1ELl1EEEEC1B8ne200100IiLi0EEERKT_
FNA:2,7,_ZNSt3__16chrono8durationIjNS_5ratioILl1ELl1EEEEC1B8ne200100IjLi0EEERKT_
FNA:2,1,_ZNSt3__16chrono8durationIjNS_5ratioILl1ELl1EEEEC2B8ne200100IiLi0EEERKT_
FNA:2,7,_ZNSt3__16chrono8durationIjNS_5ratioILl1ELl1EEEEC2B8ne200100IjLi0EEERKT_
FNA:2,90,_ZNSt3__16chrono8durationIlNS_5ratioILl1ELl1EEEEC1B8ne200100IlLi0EEERKT_
FNA:2,90,_ZNSt3__16chrono8durationIlNS_5ratioILl1ELl1EEEEC2B8ne200100IlLi0EEERKT_
FNA:2,11,_ZNSt3__16chrono8durationIlNS_5ratioILl3600ELl1EEEEC1B8ne200100IiLi0EEERKT_
FNA:2,11,_ZNSt3__16chrono8durationIlNS_5ratioILl3600ELl1EEEEC2B8ne200100IiLi0EEERKT_
FNA:2,6,_ZNSt3__16chrono8durationIlNS_5ratioILl60ELl1EEEEC1B8ne200100IiLi0EEERKT_
FNA:2,1,_ZNSt3__16chrono8durationIlNS_5ratioILl60ELl1EEEEC1B8ne200100IlLi0EEERKT_
FNA:2,6,_ZNSt3__16chrono8durationIlNS_5ratioILl60ELl1EEEEC2B8ne200100IiLi0EEERKT_
FNA:2,1,_ZNSt3__16chrono8durationIlNS_5ratioILl60ELl1EEEEC2B8ne200100IlLi0EEERKT_
FNA:2,3,_ZNSt3__16chrono8durationIlNS_5ratioILl86400ELl1EEEEC1B8ne200100IiLi0EEERKT_
FNA:2,3,_ZNSt3__16chrono8durationIlNS_5ratioILl86400ELl1EEEEC2B8ne200100IiLi0EEERKT_
FNA:2,1,_ZNSt3__16chrono8durationImNS_5ratioILl1000000000ELl1EEEEC1B8ne200100ImLi0EEERKT_
FNA:2,1,_ZNSt3__16chrono8durationImNS_5ratioILl1000000000ELl1EEEEC2B8ne200100ImLi0EEERKT_
FNA:2,17,_ZNSt3__16chrono8durationImNS_5ratioILl1ELl1EEEEC1B8ne200100ImLi0EEERKT_
FNA:2,17,_ZNSt3__16chrono8durationImNS_5ratioILl1ELl1EEEEC2B8ne200100ImLi0EEERKT_
FNA:2,11,_ZNSt3__16chrono8durationImNS_5ratioILl3600ELl1EEEEC1B8ne200100ImLi0EEERKT_
FNA:2,11,_ZNSt3__16chrono8durationImNS_5ratioILl3600ELl1EEEEC2B8ne200100ImLi0EEERKT_
FNA:2,4,_ZNSt3__16chrono8durationImNS_5ratioILl60ELl1EEEEC1B8ne200100ImLi0EEERKT_
FNA:2,4,_ZNSt3__16chrono8durationImNS_5ratioILl60ELl1EEEEC2B8ne200100ImLi0EEERKT_
FNA:2,2,_ZNSt3__16chrono8durationImNS_5ratioILl86400ELl1EEEEC1B8ne200100ImLi0EEERKT_
FNA:2,2,_ZNSt3__16chrono8durationImNS_5ratioILl86400ELl1EEEEC2B8ne200100ImLi0EEERKT_
FNA:2,1,_ZNSt3__16chrono8durationIsNS_5ratioILl1ELl100EEEEC1B8ne200100IiLi0EEERKT_
FNA:2,1,_ZNSt3__16chrono8durationIsNS_5ratioILl1ELl100EEEEC2B8ne200100IiLi0EEERKT_
FNA:2,3,_ZNSt3__16chrono8durationIxNS_5ratioILl1ELl1000000000000000000EEEEC1B8ne200100IlLi0EEERKT_
FNA:2,0,_ZNSt3__16chrono8durationIxNS_5ratioILl1ELl1000000000000000000EEEEC1B8ne200100IxLi0EEERKT_
FNA:2,3,_ZNSt3__16chrono8durationIxNS_5ratioILl1ELl1000000000000000000EEEEC2B8ne200100IlLi0EEERKT_
FNA:2,0,_ZNSt3__16chrono8durationIxNS_5ratioILl1ELl1000000000000000000EEEEC2B8ne200100IxLi0EEERKT_
FNA:2,0,_ZNSt3__16chrono8durationIxNS_5ratioILl1ELl1000000000000000EEEEC1B8ne200100IxLi0EEERKT_
FNA:2,0,_ZNSt3__16chrono8durationIxNS_5ratioILl1ELl1000000000000000EEEEC2B8ne200100IxLi0EEERKT_
FNA:2,0,_ZNSt3__16chrono8durationIxNS_5ratioILl1ELl1000000000000EEEEC1B8ne200100IxLi0EEERKT_
FNA:2,0,_ZNSt3__16chrono8durationIxNS_5ratioILl1ELl1000000000000EEEEC2B8ne200100IxLi0EEERKT_
FNA:2,5,_ZNSt3__16chrono8durationIxNS_5ratioILl1ELl1000000000EEEEC1B8ne200100IiLi0EEERKT_
FNA:2,2,_ZNSt3__16chrono8durationIxNS_5ratioILl1ELl1000000000EEEEC1B8ne200100IlLi0EEERKT_
FNA:2,624,_ZNSt3__16chrono8durationIxNS_5ratioILl1ELl1000000000EEEEC1B8ne200100IxLi0EEERKT_
FNA:2,5,_ZNSt3__16chrono8durationIxNS_5ratioILl1ELl1000000000EEEEC2B8ne200100IiLi0EEERKT_
FNA:2,2,_ZNSt3__16chrono8durationIxNS_5ratioILl1ELl1000000000EEEEC2B8ne200100IlLi0EEERKT_
FNA:2,624,_ZNSt3__16chrono8durationIxNS_5ratioILl1ELl1000000000EEEEC2B8ne200100IxLi0EEERKT_
FNA:2,3,_ZNSt3__16chrono8durationIxNS_5ratioILl1ELl1000000EEEEC1B8ne200100IiLi0EEERKT_
FNA:2,674,_ZNSt3__16chrono8durationIxNS_5ratioILl1ELl1000000EEEEC1B8ne200100IxLi0EEERKT_
FNA:2,3,_ZNSt3__16chrono8durationIxNS_5ratioILl1ELl1000000EEEEC2B8ne200100IiLi0EEERKT_
FNA:2,674,_ZNSt3__16chrono8durationIxNS_5ratioILl1ELl1000000EEEEC2B8ne200100IxLi0EEERKT_
FNA:2,15,_ZNSt3__16chrono8durationIxNS_5ratioILl1ELl1000EEEEC1B8ne200100IiLi0EEERKT_
FNA:2,1275,_ZNSt3__16chrono8durationIxNS_5ratioILl1ELl1000EEEEC1B8ne200100IxLi0EEERKT_
FNA:2,15,_ZNSt3__16chrono8durationIxNS_5ratioILl1ELl1000EEEEC2B8ne200100IiLi0EEERKT_
FNA:2,1275,_ZNSt3__16chrono8durationIxNS_5ratioILl1ELl1000EEEEC2B8ne200100IxLi0EEERKT_
FNA:2,8,_ZNSt3__16chrono8durationIxNS_5ratioILl1ELl100EEEEC1B8ne200100IxLi0EEERKT_
FNA:2,8,_ZNSt3__16chrono8durationIxNS_5ratioILl1ELl100EEEEC2B8ne200100IxLi0EEERKT_
FNA:2,0,_ZNSt3__16chrono8durationIxNS_5ratioILl1ELl10EEEEC1B8ne200100IxLi0EEERKT_
FNA:2,0,_ZNSt3__16chrono8durationIxNS_5ratioILl1ELl10EEEEC2B8ne200100IxLi0EEERKT_
FNA:2,36,_ZNSt3__16chrono8durationIxNS_5ratioILl1ELl1EEEEC1B8ne200100IiLi0EEERKT_
FNA:2,1,_ZNSt3__16chrono8durationIxNS_5ratioILl1ELl1EEEEC1B8ne200100IlLi0EEERKT_
FNA:2,172,_ZNSt3__16chrono8durationIxNS_5ratioILl1ELl1EEEEC1B8ne200100IxLi0EEERKT_
FNA:2,36,_ZNSt3__16chrono8durationIxNS_5ratioILl1ELl1EEEEC2B8ne200100IiLi0EEERKT_
FNA:2,1,_ZNSt3__16chrono8durationIxNS_5ratioILl1ELl1EEEEC2B8ne200100IlLi0EEERKT_
FNA:2,172,_ZNSt3__16chrono8durationIxNS_5ratioILl1ELl1EEEEC2B8ne200100IxLi0EEERKT_
FNA:2,2,_ZNSt3__16chrono8durationIxNS_5ratioILl1ELl3EEEEC1B8ne200100IiLi0EEERKT_
FNA:2,5,_ZNSt3__16chrono8durationIxNS_5ratioILl1ELl3EEEEC1B8ne200100IxLi0EEERKT_
FNA:2,2,_ZNSt3__16chrono8durationIxNS_5ratioILl1ELl3EEEEC2B8ne200100IiLi0EEERKT_
FNA:2,5,_ZNSt3__16chrono8durationIxNS_5ratioILl1ELl3EEEEC2B8ne200100IxLi0EEERKT_
FNA:2,0,_ZNSt3__16chrono8durationIxNS_5ratioILl1ELl4EEEEC1B8ne200100IxLi0EEERKT_
FNA:2,0,_ZNSt3__16chrono8durationIxNS_5ratioILl1ELl4EEEEC2B8ne200100IxLi0EEERKT_
FNA:2,1,_ZNSt3__16chrono8durationIxNS_5ratioILl1ELl7EEEEC1B8ne200100IiLi0EEERKT_
FNA:2,1,_ZNSt3__16chrono8durationIxNS_5ratioILl1ELl7EEEEC2B8ne200100IiLi0EEERKT_
FNA:2,1,_ZNSt3__16chrono8durationIxNS_5ratioILl31556952ELl1EEEEC1B8ne200100IxLi0EEERKT_
FNA:2,1,_ZNSt3__16chrono8durationIxNS_5ratioILl31556952ELl1EEEEC2B8ne200100IxLi0EEERKT_
FNA:2,15,_ZNSt3__16chrono8durationIyNS_5ratioILl1ELl1000000000000000000EEEEC1B8ne200100IyLi0EEERKT_
FNA:2,15,_ZNSt3__16chrono8durationIyNS_5ratioILl1ELl1000000000000000000EEEEC2B8ne200100IyLi0EEERKT_
FNA:2,25,_ZNSt3__16chrono8durationIyNS_5ratioILl1ELl1000000000EEEEC1B8ne200100IyLi0EEERKT_
FNA:2,25,_ZNSt3__16chrono8durationIyNS_5ratioILl1ELl1000000000EEEEC2B8ne200100IyLi0EEERKT_
FNA:2,7,_ZNSt3__16chrono8durationIyNS_5ratioILl1ELl1000000EEEEC1B8ne200100IyLi0EEERKT_
FNA:2,7,_ZNSt3__16chrono8durationIyNS_5ratioILl1ELl1000000EEEEC2B8ne200100IyLi0EEERKT_
FNA:2,85,_ZNSt3__16chrono8durationIyNS_5ratioILl1ELl1000EEEEC1B8ne200100IyLi0EEERKT_
FNA:2,85,_ZNSt3__16chrono8durationIyNS_5ratioILl1ELl1000EEEEC2B8ne200100IyLi0EEERKT_
FNA:2,146,_ZNSt3__16chrono8durationIyNS_5ratioILl1ELl1EEEEC1B8ne200100IyLi0EEERKT_
FNA:2,146,_ZNSt3__16chrono8durationIyNS_5ratioILl1ELl1EEEEC2B8ne200100IyLi0EEERKT_
FNA:2,4,_ZNSt3__16chrono8durationIyNS_5ratioILl1ELl3EEEEC1B8ne200100IyLi0EEERKT_
FNA:2,4,_ZNSt3__16chrono8durationIyNS_5ratioILl1ELl3EEEEC2B8ne200100IyLi0EEERKT_
FNA:2,4,_ZNSt3__16chrono8durationIyNS_5ratioILl1ELl7EEEEC1B8ne200100IyLi0EEERKT_
FNA:2,4,_ZNSt3__16chrono8durationIyNS_5ratioILl1ELl7EEEEC2B8ne200100IyLi0EEERKT_
FNL:3,218
FNA:3,2,_ZNSt3__16chrono8durationIdNS_5ratioILl1ELl1EEEEC1B8ne200100IxS3_Li0EEERKNS1_IT_T0_EE
FNA:3,2,_ZNSt3__16chrono8durationIdNS_5ratioILl1ELl1EEEEC2B8ne200100IxS3_Li0EEERKNS1_IT_T0_EE
FNA:3,1,_ZNSt3__16chrono8durationIdNS_5ratioILl1ELl3EEEEC1B8ne200100IxNS2_ILl1ELl1EEELi0EEERKNS1_IT_T0_EE
FNA:3,1,_ZNSt3__16chrono8durationIdNS_5ratioILl1ELl3EEEEC2B8ne200100IxNS2_ILl1ELl1EEELi0EEERKNS1_IT_T0_EE
FNA:3,0,_ZNSt3__16chrono8durationIxNS_5ratioILl1ELl1000000000000000000EEEEC1B8ne200100IjS3_Li0EEERKNS1_IT_T0_EE
FNA:3,0,_ZNSt3__16chrono8durationIxNS_5ratioILl1ELl1000000000000000000EEEEC1B8ne200100IxNS2_ILl1ELl1EEELi0EEERKNS1_IT_T0_EE
FNA:3,0,_ZNSt3__16chrono8durationIxNS_5ratioILl1ELl1000000000000000000EEEEC2B8ne200100IjS3_Li0EEERKNS1_IT_T0_EE
FNA:3,0,_ZNSt3__16chrono8durationIxNS_5ratioILl1ELl1000000000000000000EEEEC2B8ne200100IxNS2_ILl1ELl1EEELi0EEERKNS1_IT_T0_EE
FNA:3,0,_ZNSt3__16chrono8durationIxNS_5ratioILl1ELl1000000000000000EEEEC1B8ne200100IjS3_Li0EEERKNS1_IT_T0_EE
FNA:3,0,_ZNSt3__16chrono8durationIxNS_5ratioILl1ELl1000000000000000EEEEC1B8ne200100IxNS2_ILl1ELl1EEELi0EEERKNS1_IT_T0_EE
FNA:3,0,_ZNSt3__16chrono8durationIxNS_5ratioILl1ELl1000000000000000EEEEC2B8ne200100IjS3_Li0EEERKNS1_IT_T0_EE
FNA:3,0,_ZNSt3__16chrono8durationIxNS_5ratioILl1ELl1000000000000000EEEEC2B8ne200100IxNS2_ILl1ELl1EEELi0EEERKNS1_IT_T0_EE
FNA:3,0,_ZNSt3__16chrono8durationIxNS_5ratioILl1ELl1000000000000EEEEC1B8ne200100IjS3_Li0EEERKNS1_IT_T0_EE
FNA:3,0,_ZNSt3__16chrono8durationIxNS_5ratioILl1ELl1000000000000EEEEC1B8ne200100IxNS2_ILl1ELl1EEELi0EEERKNS1_IT_T0_EE
FNA:3,0,_ZNSt3__16chrono8durationIxNS_5ratioILl1ELl1000000000000EEEEC2B8ne200100IjS3_Li0EEERKNS1_IT_T0_EE
FNA:3,0,_ZNSt3__16chrono8durationIxNS_5ratioILl1ELl1000000000000EEEEC2B8ne200100IxNS2_ILl1ELl1EEELi0EEERKNS1_IT_T0_EE
FNA:3,4,_ZNSt3__16chrono8durationIxNS_5ratioILl1ELl1000000000EEEEC1B8ne200100IxNS2_ILl1ELl1EEELi0EEERKNS1_IT_T0_EE
FNA:3,4,_ZNSt3__16chrono8durationIxNS_5ratioILl1ELl1000000000EEEEC2B8ne200100IxNS2_ILl1ELl1EEELi0EEERKNS1_IT_T0_EE
FNA:3,20,_ZNSt3__16chrono8durationIxNS_5ratioILl1ELl1000000EEEEC1B8ne200100IxNS2_ILl1ELl1EEELi0EEERKNS1_IT_T0_EE
FNA:3,20,_ZNSt3__16chrono8durationIxNS_5ratioILl1ELl1000000EEEEC2B8ne200100IxNS2_ILl1ELl1EEELi0EEERKNS1_IT_T0_EE
FNA:3,1,_ZNSt3__16chrono8durationIxNS_5ratioILl1ELl1000EEEEC1B8ne200100IjS3_Li0EEERKNS1_IT_T0_EE
FNA:3,16,_ZNSt3__16chrono8durationIxNS_5ratioILl1ELl1000EEEEC1B8ne200100IxNS2_ILl1ELl1EEELi0EEERKNS1_IT_T0_EE
FNA:3,1,_ZNSt3__16chrono8durationIxNS_5ratioILl1ELl1000EEEEC2B8ne200100IjS3_Li0EEERKNS1_IT_T0_EE
FNA:3,16,_ZNSt3__16chrono8durationIxNS_5ratioILl1ELl1000EEEEC2B8ne200100IxNS2_ILl1ELl1EEELi0EEERKNS1_IT_T0_EE
FNA:3,2,_ZNSt3__16chrono8durationIxNS_5ratioILl1ELl100EEEEC1B8ne200100IjS3_Li0EEERKNS1_IT_T0_EE
FNA:3,2,_ZNSt3__16chrono8durationIxNS_5ratioILl1ELl100EEEEC1B8ne200100IxNS2_ILl1ELl1EEELi0EEERKNS1_IT_T0_EE
FNA:3,2,_ZNSt3__16chrono8durationIxNS_5ratioILl1ELl100EEEEC2B8ne200100IjS3_Li0EEERKNS1_IT_T0_EE
FNA:3,2,_ZNSt3__16chrono8durationIxNS_5ratioILl1ELl100EEEEC2B8ne200100IxNS2_ILl1ELl1EEELi0EEERKNS1_IT_T0_EE
FNA:3,0,_ZNSt3__16chrono8durationIxNS_5ratioILl1ELl10EEEEC1B8ne200100IjS3_Li0EEERKNS1_IT_T0_EE
FNA:3,0,_ZNSt3__16chrono8durationIxNS_5ratioILl1ELl10EEEEC1B8ne200100IxNS2_ILl1ELl1EEELi0EEERKNS1_IT_T0_EE
FNA:3,0,_ZNSt3__16chrono8durationIxNS_5ratioILl1ELl10EEEEC2B8ne200100IjS3_Li0EEERKNS1_IT_T0_EE
FNA:3,0,_ZNSt3__16chrono8durationIxNS_5ratioILl1ELl10EEEEC2B8ne200100IxNS2_ILl1ELl1EEELi0EEERKNS1_IT_T0_EE
FNA:3,2,_ZNSt3__16chrono8durationIxNS_5ratioILl1ELl1EEEEC1B8ne200100IiNS2_ILl63ELl1EEELi0EEERKNS1_IT_T0_EE
FNA:3,2,_ZNSt3__16chrono8durationIxNS_5ratioILl1ELl1EEEEC1B8ne200100IiNS2_ILl9ELl1EEELi0EEERKNS1_IT_T0_EE
FNA:3,0,_ZNSt3__16chrono8durationIxNS_5ratioILl1ELl1EEEEC1B8ne200100IjNS2_ILl1000000000000000000ELl1EEELi0EEERKNS1_IT_T0_EE
FNA:3,0,_ZNSt3__16chrono8durationIxNS_5ratioILl1ELl1EEEEC1B8ne200100IjNS2_ILl1000000000000000ELl1EEELi0EEERKNS1_IT_T0_EE
FNA:3,0,_ZNSt3__16chrono8durationIxNS_5ratioILl1ELl1EEEEC1B8ne200100IjNS2_ILl1000000000000ELl1EEELi0EEERKNS1_IT_T0_EE
FNA:3,0,_ZNSt3__16chrono8durationIxNS_5ratioILl1ELl1EEEEC1B8ne200100IjNS2_ILl1000000000ELl1EEELi0EEERKNS1_IT_T0_EE
FNA:3,1,_ZNSt3__16chrono8durationIxNS_5ratioILl1ELl1EEEEC1B8ne200100IjNS2_ILl1000000ELl1EEELi0EEERKNS1_IT_T0_EE
FNA:3,0,_ZNSt3__16chrono8durationIxNS_5ratioILl1ELl1EEEEC1B8ne200100IjNS2_ILl1000ELl1EEELi0EEERKNS1_IT_T0_EE
FNA:3,0,_ZNSt3__16chrono8durationIxNS_5ratioILl1ELl1EEEEC1B8ne200100IjNS2_ILl100ELl1EEELi0EEERKNS1_IT_T0_EE
FNA:3,0,_ZNSt3__16chrono8durationIxNS_5ratioILl1ELl1EEEEC1B8ne200100IjNS2_ILl10ELl1EEELi0EEERKNS1_IT_T0_EE
FNA:3,0,_ZNSt3__16chrono8durationIxNS_5ratioILl1ELl1EEEEC1B8ne200100IjNS2_ILl15ELl1EEELi0EEERKNS1_IT_T0_EE
FNA:3,0,_ZNSt3__16chrono8durationIxNS_5ratioILl1ELl1EEEEC1B8ne200100IjS3_Li0EEERKNS1_IT_T0_EE
FNA:3,2,_ZNSt3__16chrono8durationIxNS_5ratioILl1ELl1EEEEC1B8ne200100IlNS2_ILl60ELl1EEELi0EEERKNS1_IT_T0_EE
FNA:3,0,_ZNSt3__16chrono8durationIxNS_5ratioILl1ELl1EEEEC1B8ne200100IxNS2_ILl31556952ELl1EEELi0EEERKNS1_IT_T0_EE
FNA:3,2,_ZNSt3__16chrono8durationIxNS_5ratioILl1ELl1EEEEC2B8ne200100IiNS2_ILl63ELl1EEELi0EEERKNS1_IT_T0_EE
FNA:3,2,_ZNSt3__16chrono8durationIxNS_5ratioILl1ELl1EEEEC2B8ne200100IiNS2_ILl9ELl1EEELi0EEERKNS1_IT_T0_EE
FNA:3,0,_ZNSt3__16chrono8durationIxNS_5ratioILl1ELl1EEEEC2B8ne200100IjNS2_ILl1000000000000000000ELl1EEELi0EEERKNS1_IT_T0_EE
FNA:3,0,_ZNSt3__16chrono8durationIxNS_5ratioILl1ELl1EEEEC2B8ne200100IjNS2_ILl1000000000000000ELl1EEELi0EEERKNS1_IT_T0_EE
FNA:3,0,_ZNSt3__16chrono8durationIxNS_5ratioILl1ELl1EEEEC2B8ne200100IjNS2_ILl1000000000000ELl1EEELi0EEERKNS1_IT_T0_EE
FNA:3,0,_ZNSt3__16chrono8durationIxNS_5ratioILl1ELl1EEEEC2B8ne200100IjNS2_ILl1000000000ELl1EEELi0EEERKNS1_IT_T0_EE
FNA:3,1,_ZNSt3__16chrono8durationIxNS_5ratioILl1ELl1EEEEC2B8ne200100IjNS2_ILl1000000ELl1EEELi0EEERKNS1_IT_T0_EE
FNA:3,0,_ZNSt3__16chrono8durationIxNS_5ratioILl1ELl1EEEEC2B8ne200100IjNS2_ILl1000ELl1EEELi0EEERKNS1_IT_T0_EE
FNA:3,0,_ZNSt3__16chrono8durationIxNS_5ratioILl1ELl1EEEEC2B8ne200100IjNS2_ILl100ELl1EEELi0EEERKNS1_IT_T0_EE
FNA:3,0,_ZNSt3__16chrono8durationIxNS_5ratioILl1ELl1EEEEC2B8ne200100IjNS2_ILl10ELl1EEELi0EEERKNS1_IT_T0_EE
FNA:3,0,_ZNSt3__16chrono8durationIxNS_5ratioILl1ELl1EEEEC2B8ne200100IjNS2_ILl15ELl1EEELi0EEERKNS1_IT_T0_EE
FNA:3,0,_ZNSt3__16chrono8durationIxNS_5ratioILl1ELl1EEEEC2B8ne200100IjS3_Li0EEERKNS1_IT_T0_EE
FNA:3,2,_ZNSt3__16chrono8durationIxNS_5ratioILl1ELl1EEEEC2B8ne200100IlNS2_ILl60ELl1EEELi0EEERKNS1_IT_T0_EE
FNA:3,0,_ZNSt3__16chrono8durationIxNS_5ratioILl1ELl1EEEEC2B8ne200100IxNS2_ILl31556952ELl1EEELi0EEERKNS1_IT_T0_EE
FNA:3,2,_ZNSt3__16chrono8durationIxNS_5ratioILl1ELl3EEEEC1B8ne200100IxNS2_ILl1ELl1EEELi0EEERKNS1_IT_T0_EE
FNA:3,2,_ZNSt3__16chrono8durationIxNS_5ratioILl1ELl3EEEEC2B8ne200100IxNS2_ILl1ELl1EEELi0EEERKNS1_IT_T0_EE
FNA:3,0,_ZNSt3__16chrono8durationIxNS_5ratioILl1ELl4EEEEC1B8ne200100IjNS2_ILl15ELl4EEELi0EEERKNS1_IT_T0_EE
FNA:3,0,_ZNSt3__16chrono8durationIxNS_5ratioILl1ELl4EEEEC1B8ne200100IxNS2_ILl1ELl1EEELi0EEERKNS1_IT_T0_EE
FNA:3,0,_ZNSt3__16chrono8durationIxNS_5ratioILl1ELl4EEEEC2B8ne200100IjNS2_ILl15ELl4EEELi0EEERKNS1_IT_T0_EE
FNA:3,0,_ZNSt3__16chrono8durationIxNS_5ratioILl1ELl4EEEEC2B8ne200100IxNS2_ILl1ELl1EEELi0EEERKNS1_IT_T0_EE
FNA:3,3,_ZNSt3__16chrono8durationIyNS_5ratioILl1ELl1000000000000000000EEEEC1B8ne200100IxNS2_ILl1ELl1EEELi0EEERKNS1_IT_T0_EE
FNA:3,3,_ZNSt3__16chrono8durationIyNS_5ratioILl1ELl1000000000000000000EEEEC2B8ne200100IxNS2_ILl1ELl1EEELi0EEERKNS1_IT_T0_EE
FNA:3,5,_ZNSt3__16chrono8durationIyNS_5ratioILl1ELl1000000000EEEEC1B8ne200100IxNS2_ILl1ELl1EEELi0EEERKNS1_IT_T0_EE
FNA:3,5,_ZNSt3__16chrono8durationIyNS_5ratioILl1ELl1000000000EEEEC2B8ne200100IxNS2_ILl1ELl1EEELi0EEERKNS1_IT_T0_EE
FNA:3,1,_ZNSt3__16chrono8durationIyNS_5ratioILl1ELl1000000EEEEC1B8ne200100IxNS2_ILl1ELl1EEELi0EEERKNS1_IT_T0_EE
FNA:3,1,_ZNSt3__16chrono8durationIyNS_5ratioILl1ELl1000000EEEEC2B8ne200100IxNS2_ILl1ELl1EEELi0EEERKNS1_IT_T0_EE
FNA:3,17,_ZNSt3__16chrono8durationIyNS_5ratioILl1ELl1000EEEEC1B8ne200100IxNS2_ILl1ELl1EEELi0EEERKNS1_IT_T0_EE
FNA:3,17,_ZNSt3__16chrono8durationIyNS_5ratioILl1ELl1000EEEEC2B8ne200100IxNS2_ILl1ELl1EEELi0EEERKNS1_IT_T0_EE
FNA:3,0,_ZNSt3__16chrono8durationIyNS_5ratioILl1ELl1EEEEC1B8ne200100ImNS2_ILl1000000000ELl1EEELi0EEERKNS1_IT_T0_EE
FNA:3,1,_ZNSt3__16chrono8durationIyNS_5ratioILl1ELl1EEEEC1B8ne200100ImNS2_ILl3600ELl1EEELi0EEERKNS1_IT_T0_EE
FNA:3,0,_ZNSt3__16chrono8durationIyNS_5ratioILl1ELl1EEEEC1B8ne200100ImNS2_ILl60ELl1EEELi0EEERKNS1_IT_T0_EE
FNA:3,0,_ZNSt3__16chrono8durationIyNS_5ratioILl1ELl1EEEEC1B8ne200100ImNS2_ILl86400ELl1EEELi0EEERKNS1_IT_T0_EE
FNA:3,16,_ZNSt3__16chrono8durationIyNS_5ratioILl1ELl1EEEEC1B8ne200100IxS3_Li0EEERKNS1_IT_T0_EE
FNA:3,0,_ZNSt3__16chrono8durationIyNS_5ratioILl1ELl1EEEEC2B8ne200100ImNS2_ILl1000000000ELl1EEELi0EEERKNS1_IT_T0_EE
FNA:3,1,_ZNSt3__16chrono8durationIyNS_5ratioILl1ELl1EEEEC2B8ne200100ImNS2_ILl3600ELl1EEELi0EEERKNS1_IT_T0_EE
FNA:3,0,_ZNSt3__16chrono8durationIyNS_5ratioILl1ELl1EEEEC2B8ne200100ImNS2_ILl60ELl1EEELi0EEERKNS1_IT_T0_EE
FNA:3,0,_ZNSt3__16chrono8durationIyNS_5ratioILl1ELl1EEEEC2B8ne200100ImNS2_ILl86400ELl1EEELi0EEERKNS1_IT_T0_EE
FNA:3,16,_ZNSt3__16chrono8durationIyNS_5ratioILl1ELl1EEEEC2B8ne200100IxS3_Li0EEERKNS1_IT_T0_EE
FNA:3,1,_ZNSt3__16chrono8durationIyNS_5ratioILl1ELl3EEEEC1B8ne200100IxNS2_ILl1ELl1EEELi0EEERKNS1_IT_T0_EE
FNA:3,1,_ZNSt3__16chrono8durationIyNS_5ratioILl1ELl3EEEEC2B8ne200100IxNS2_ILl1ELl1EEELi0EEERKNS1_IT_T0_EE
FNA:3,1,_ZNSt3__16chrono8durationIyNS_5ratioILl1ELl7EEEEC1B8ne200100IxNS2_ILl1ELl1EEELi0EEERKNS1_IT_T0_EE
FNA:3,1,_ZNSt3__16chrono8durationIyNS_5ratioILl1ELl7EEEEC2B8ne200100IxNS2_ILl1ELl1EEELi0EEERKNS1_IT_T0_EE
FNL:4,223
FNA:4,2,_ZNKSt3__16chrono8durationIaNS_5ratioILl1ELl1000EEEE5countB8ne200100Ev
FNA:4,2,_ZNKSt3__16chrono8durationIaNS_5ratioILl1ELl100EEEE5countB8ne200100Ev
FNA:4,4,_ZNKSt3__16chrono8durationIcNS_5ratioILl1000000ELl1EEEE5countB8ne200100Ev
FNA:4,35,_ZNKSt3__16chrono8durationIdNS_5ratioILl1ELl1000000000EEEE5countB8ne200100Ev
FNA:4,94,_ZNKSt3__16chrono8durationIdNS_5ratioILl1ELl1000EEEE5countB8ne200100Ev
FNA:4,70,_ZNKSt3__16chrono8durationIdNS_5ratioILl1ELl1EEEE5countB8ne200100Ev
FNA:4,9,_ZNKSt3__16chrono8durationIdNS_5ratioILl1ELl3EEEE5countB8ne200100Ev
FNA:4,1,_ZNKSt3__16chrono8durationIfNS_5ratioILl1000000000000000000ELl1EEEE5countB8ne200100Ev
FNA:4,1,_ZNKSt3__16chrono8durationIfNS_5ratioILl1ELl1000000000000000000EEEE5countB8ne200100Ev
FNA:4,5,_ZNKSt3__16chrono8durationIfNS_5ratioILl1ELl1000000000000EEEE5countB8ne200100Ev
FNA:4,5,_ZNKSt3__16chrono8durationIfNS_5ratioILl1ELl1000EEEE5countB8ne200100Ev
FNA:4,5,_ZNKSt3__16chrono8durationIfNS_5ratioILl1ELl1EEEE5countB8ne200100Ev
FNA:4,1,_ZNKSt3__16chrono8durationIiNS_5ratioILl1000000000000000000ELl1EEEE5countB8ne200100Ev
FNA:4,1,_ZNKSt3__16chrono8durationIiNS_5ratioILl1000000000000000ELl1EEEE5countB8ne200100Ev
FNA:4,1,_ZNKSt3__16chrono8durationIiNS_5ratioILl1000000000000ELl1EEEE5countB8ne200100Ev
FNA:4,1,_ZNKSt3__16chrono8durationIiNS_5ratioILl1000000000ELl1EEEE5countB8ne200100Ev
FNA:4,1,_ZNKSt3__16chrono8durationIiNS_5ratioILl1000000ELl1EEEE5countB8ne200100Ev
FNA:4,1,_ZNKSt3__16chrono8durationIiNS_5ratioILl1000ELl1EEEE5countB8ne200100Ev
FNA:4,1,_ZNKSt3__16chrono8durationIiNS_5ratioILl100ELl1EEEE5countB8ne200100Ev
FNA:4,1,_ZNKSt3__16chrono8durationIiNS_5ratioILl10ELl1EEEE5countB8ne200100Ev
FNA:4,1,_ZNKSt3__16chrono8durationIiNS_5ratioILl15ELl1EEEE5countB8ne200100Ev
FNA:4,1,_ZNKSt3__16chrono8durationIiNS_5ratioILl15ELl4EEEE5countB8ne200100Ev
FNA:4,1,_ZNKSt3__16chrono8durationIiNS_5ratioILl1ELl1000000000000000000EEEE5countB8ne200100Ev
FNA:4,1,_ZNKSt3__16chrono8durationIiNS_5ratioILl1ELl1000000000000000EEEE5countB8ne200100Ev
FNA:4,1,_ZNKSt3__16chrono8durationIiNS_5ratioILl1ELl1000000000000EEEE5countB8ne200100Ev
FNA:4,1,_ZNKSt3__16chrono8durationIiNS_5ratioILl1ELl100EEEE5countB8ne200100Ev
FNA:4,1,_ZNKSt3__16chrono8durationIiNS_5ratioILl1ELl10EEEE5countB8ne200100Ev
FNA:4,2,_ZNKSt3__16chrono8durationIiNS_5ratioILl1ELl1EEEE5countB8ne200100Ev
FNA:4,6,_ZNKSt3__16chrono8durationIiNS_5ratioILl63ELl1EEEE5countB8ne200100Ev
FNA:4,6,_ZNKSt3__16chrono8durationIiNS_5ratioILl9ELl1EEEE5countB8ne200100Ev
FNA:4,0,_ZNKSt3__16chrono8durationIjNS_5ratioILl1000000000000000000ELl1EEEE5countB8ne200100Ev
FNA:4,0,_ZNKSt3__16chrono8durationIjNS_5ratioILl1000000000000000ELl1EEEE5countB8ne200100Ev
FNA:4,0,_ZNKSt3__16chrono8durationIjNS_5ratioILl1000000000000ELl1EEEE5countB8ne200100Ev
FNA:4,0,_ZNKSt3__16chrono8durationIjNS_5ratioILl1000000000ELl1EEEE5countB8ne200100Ev
FNA:4,4,_ZNKSt3__16chrono8durationIjNS_5ratioILl1000000ELl1EEEE5countB8ne200100Ev
FNA:4,0,_ZNKSt3__16chrono8durationIjNS_5ratioILl1000ELl1EEEE5countB8ne200100Ev
FNA:4,0,_ZNKSt3__16chrono8durationIjNS_5ratioILl100ELl1EEEE5countB8ne200100Ev
FNA:4,0,_ZNKSt3__16chrono8durationIjNS_5ratioILl10ELl1EEEE5countB8ne200100Ev
FNA:4,0,_ZNKSt3__16chrono8durationIjNS_5ratioILl15ELl1EEEE5countB8ne200100Ev
FNA:4,0,_ZNKSt3__16chrono8durationIjNS_5ratioILl15ELl4EEEE5countB8ne200100Ev
FNA:4,0,_ZNKSt3__16chrono8durationIjNS_5ratioILl1ELl1000000000000000000EEEE5countB8ne200100Ev
FNA:4,0,_ZNKSt3__16chrono8durationIjNS_5ratioILl1ELl1000000000000000EEEE5countB8ne200100Ev
FNA:4,0,_ZNKSt3__16chrono8durationIjNS_5ratioILl1ELl1000000000000EEEE5countB8ne200100Ev
FNA:4,3,_ZNKSt3__16chrono8durationIjNS_5ratioILl1ELl1000EEEE5countB8ne200100Ev
FNA:4,6,_ZNKSt3__16chrono8durationIjNS_5ratioILl1ELl100EEEE5countB8ne200100Ev
FNA:4,0,_ZNKSt3__16chrono8durationIjNS_5ratioILl1ELl10EEEE5countB8ne200100Ev
FNA:4,11,_ZNKSt3__16chrono8durationIjNS_5ratioILl1ELl1EEEE5countB8ne200100Ev
FNA:4,90,_ZNKSt3__16chrono8durationIlNS_5ratioILl1ELl1EEEE5countB8ne200100Ev
FNA:4,21,_ZNKSt3__16chrono8durationIlNS_5ratioILl3600ELl1EEEE5countB8ne200100Ev
FNA:4,15,_ZNKSt3__16chrono8durationIlNS_5ratioILl60ELl1EEEE5countB8ne200100Ev
FNA:4,5,_ZNKSt3__16chrono8durationIlNS_5ratioILl86400ELl1EEEE5countB8ne200100Ev
FNA:4,3,_ZNKSt3__16chrono8durationImNS_5ratioILl1000000000ELl1EEEE5countB8ne200100Ev
FNA:4,17,_ZNKSt3__16chrono8durationImNS_5ratioILl1ELl1EEEE5countB8ne200100Ev
FNA:4,12,_ZNKSt3__16chrono8durationImNS_5ratioILl3600ELl1EEEE5countB8ne200100Ev
FNA:4,4,_ZNKSt3__16chrono8durationImNS_5ratioILl60ELl1EEEE5countB8ne200100Ev
FNA:4,2,_ZNKSt3__16chrono8durationImNS_5ratioILl86400ELl1EEEE5countB8ne200100Ev
FNA:4,2,_ZNKSt3__16chrono8durationIsNS_5ratioILl1ELl100EEEE5countB8ne200100Ev
FNA:4,6,_ZNKSt3__16chrono8durationIxNS_5ratioILl1ELl1000000000000000000EEEE5countB8ne200100Ev
FNA:4,0,_ZNKSt3__16chrono8durationIxNS_5ratioILl1ELl1000000000000000EEEE5countB8ne200100Ev
FNA:4,0,_ZNKSt3__16chrono8durationIxNS_5ratioILl1ELl1000000000000EEEE5countB8ne200100Ev
FNA:4,1873,_ZNKSt3__16chrono8durationIxNS_5ratioILl1ELl1000000000EEEE5countB8ne200100Ev
FNA:4,1971,_ZNKSt3__16chrono8durationIxNS_5ratioILl1ELl1000000EEEE5countB8ne200100Ev
FNA:4,1362,_ZNKSt3__16chrono8durationIxNS_5ratioILl1ELl1000EEEE5countB8ne200100Ev
FNA:4,12,_ZNKSt3__16chrono8durationIxNS_5ratioILl1ELl100EEEE5countB8ne200100Ev
FNA:4,0,_ZNKSt3__16chrono8durationIxNS_5ratioILl1ELl10EEEE5countB8ne200100Ev
FNA:4,367,_ZNKSt3__16chrono8durationIxNS_5ratioILl1ELl1EEEE5countB8ne200100Ev
FNA:4,14,_ZNKSt3__16chrono8durationIxNS_5ratioILl1ELl3EEEE5countB8ne200100Ev
FNA:4,0,_ZNKSt3__16chrono8durationIxNS_5ratioILl1ELl4EEEE5countB8ne200100Ev
FNA:4,2,_ZNKSt3__16chrono8durationIxNS_5ratioILl1ELl7EEEE5countB8ne200100Ev
FNA:4,1,_ZNKSt3__16chrono8durationIxNS_5ratioILl31556952ELl1EEEE5countB8ne200100Ev
FNA:4,21,_ZNKSt3__16chrono8durationIyNS_5ratioILl1ELl1000000000000000000EEEE5countB8ne200100Ev
FNA:4,35,_ZNKSt3__16chrono8durationIyNS_5ratioILl1ELl1000000000EEEE5countB8ne200100Ev
FNA:4,9,_ZNKSt3__16chrono8durationIyNS_5ratioILl1ELl1000000EEEE5countB8ne200100Ev
FNA:4,119,_ZNKSt3__16chrono8durationIyNS_5ratioILl1ELl1000EEEE5countB8ne200100Ev
FNA:4,213,_ZNKSt3__16chrono8durationIyNS_5ratioILl1ELl1EEEE5countB8ne200100Ev
FNA:4,6,_ZNKSt3__16chrono8durationIyNS_5ratioILl1ELl3EEEE5countB8ne200100Ev
FNA:4,6,_ZNKSt3__16chrono8durationIyNS_5ratioILl1ELl7EEEE5countB8ne200100Ev
FNL:5,244
FNA:5,0,_ZNSt3__16chrono8durationIdNS_5ratioILl1ELl1EEEEpLB8ne200100ERKS4_
FNA:5,0,_ZNSt3__16chrono8durationIdNS_5ratioILl1ELl3EEEEpLB8ne200100ERKS4_
FNA:5,0,_ZNSt3__16chrono8durationIiNS_5ratioILl63ELl1EEEEpLB8ne200100ERKS4_
FNA:5,0,_ZNSt3__16chrono8durationIiNS_5ratioILl9ELl1EEEEpLB8ne200100ERKS4_
FNA:5,0,_ZNSt3__16chrono8durationIlNS_5ratioILl60ELl1EEEEpLB8ne200100ERKS4_
FNA:5,0,_ZNSt3__16chrono8durationIxNS_5ratioILl1ELl1000000000EEEEpLB8ne200100ERKS4_
FNA:5,0,_ZNSt3__16chrono8durationIxNS_5ratioILl1ELl1000000EEEEpLB8ne200100ERKS4_
FNA:5,1,_ZNSt3__16chrono8durationIxNS_5ratioILl1ELl1000EEEEpLB8ne200100ERKS4_
FNA:5,0,_ZNSt3__16chrono8durationIxNS_5ratioILl1ELl3EEEEpLB8ne200100ERKS4_
FNA:5,0,_ZNSt3__16chrono8durationIxNS_5ratioILl31556952ELl1EEEEpLB8ne200100ERKS4_
FNL:6,272
FNA:6,1,_ZNSt3__16chrono8durationIxNS_5ratioILl1ELl1000EEEE4zeroB8ne200100Ev
FNL:7,394
FNA:7,1,_ZNSt3__16chronoplB8ne200100IxNS_5ratioILl1ELl1000EEExS3_EENS_11common_typeIJNS0_8durationIT_T0_EENS5_IT1_T2_EEEE4typeERKS8_RKSB_
FNA:7,1,_ZNSt3__16chronoplB8ne200100IxNS_5ratioILl1ELl1EEExNS2_ILl1ELl1000EEEEENS_11common_typeIJNS0_8durationIT_T0_EENS6_IT1_T2_EEEE4typeERKS9_RKSC_
FNL:8,404
FNA:8,0,_ZNSt3__16chronomiB8ne200100IdNS_5ratioILl1ELl1EEEdS3_EENS_11common_typeIJNS0_8durationIT_T0_EENS5_IT1_T2_EEEE4typeERKS8_RKSB_
FNA:8,2,_ZNSt3__16chronomiB8ne200100IdNS_5ratioILl1ELl1EEExS3_EENS_11common_typeIJNS0_8durationIT_T0_EENS5_IT1_T2_EEEE4typeERKS8_RKSB_
FNA:8,0,_ZNSt3__16chronomiB8ne200100IdNS_5ratioILl1ELl3EEEdS3_EENS_11common_typeIJNS0_8durationIT_T0_EENS5_IT1_T2_EEEE4typeERKS8_RKSB_
FNA:8,1,_ZNSt3__16chronomiB8ne200100IdNS_5ratioILl1ELl3EEExNS2_ILl1ELl1EEEEENS_11common_typeIJNS0_8durationIT_T0_EENS6_IT1_T2_EEEE4typeERKS9_RKSC_
FNA:8,0,_ZNSt3__16chronomiB8ne200100IiNS_5ratioILl63ELl1EEEiS3_EENS_11common_typeIJNS0_8durationIT_T0_EENS5_IT1_T2_EEEE4typeERKS8_RKSB_
FNA:8,2,_ZNSt3__16chronomiB8ne200100IiNS_5ratioILl63ELl1EEExNS2_ILl1ELl1EEEEENS_11common_typeIJNS0_8durationIT_T0_EENS6_IT1_T2_EEEE4typeERKS9_RKSC_
FNA:8,0,_ZNSt3__16chronomiB8ne200100IiNS_5ratioILl9ELl1EEEiS3_EENS_11common_typeIJNS0_8durationIT_T0_EENS5_IT1_T2_EEEE4typeERKS8_RKSB_
FNA:8,2,_ZNSt3__16chronomiB8ne200100IiNS_5ratioILl9ELl1EEExNS2_ILl1ELl1EEEEENS_11common_typeIJNS0_8durationIT_T0_EENS6_IT1_T2_EEEE4typeERKS9_RKSC_
FNA:8,0,_ZNSt3__16chronomiB8ne200100IjNS_5ratioILl1000000000000000000ELl1EEExNS2_ILl1ELl1EEEEENS_11common_typeIJNS0_8durationIT_T0_EENS6_IT1_T2_EEEE4typeERKS9_RKSC_
FNA:8,0,_ZNSt3__16chronomiB8ne200100IjNS_5ratioILl1000000000000000ELl1EEExNS2_ILl1ELl1EEEEENS_11common_typeIJNS0_8durationIT_T0_EENS6_IT1_T2_EEEE4typeERKS9_RKSC_
FNA:8,0,_ZNSt3__16chronomiB8ne200100IjNS_5ratioILl1000000000000ELl1EEExNS2_ILl1ELl1EEEEENS_11common_typeIJNS0_8durationIT_T0_EENS6_IT1_T2_EEEE4typeERKS9_RKSC_
FNA:8,0,_ZNSt3__16chronomiB8ne200100IjNS_5ratioILl1000000000ELl1EEExNS2_ILl1ELl1EEEEENS_11common_typeIJNS0_8durationIT_T0_EENS6_IT1_T2_EEEE4typeERKS9_RKSC_
FNA:8,1,_ZNSt3__16chronomiB8ne200100IjNS_5ratioILl1000000ELl1EEExNS2_ILl1ELl1EEEEENS_11common_typeIJNS0_8durationIT_T0_EENS6_IT1_T2_EEEE4typeERKS9_RKSC_
FNA:8,0,_ZNSt3__16chronomiB8ne200100IjNS_5ratioILl1000ELl1EEExNS2_ILl1ELl1EEEEENS_11common_typeIJNS0_8durationIT_T0_EENS6_IT1_T2_EEEE4typeERKS9_RKSC_
FNA:8,0,_ZNSt3__16chronomiB8ne200100IjNS_5ratioILl100ELl1EEExNS2_ILl1ELl1EEEEENS_11common_typeIJNS0_8durationIT_T0_EENS6_IT1_T2_EEEE4typeERKS9_RKSC_
FNA:8,0,_ZNSt3__16chronomiB8ne200100IjNS_5ratioILl10ELl1EEExNS2_ILl1ELl1EEEEENS_11common_typeIJNS0_8durationIT_T0_EENS6_IT1_T2_EEEE4typeERKS9_RKSC_
FNA:8,0,_ZNSt3__16chronomiB8ne200100IjNS_5ratioILl15ELl1EEExNS2_ILl1ELl1EEEEENS_11common_typeIJNS0_8durationIT_T0_EENS6_IT1_T2_EEEE4typeERKS9_RKSC_
FNA:8,0,_ZNSt3__16chronomiB8ne200100IjNS_5ratioILl15ELl4EEExNS2_ILl1ELl1EEEEENS_11common_typeIJNS0_8durationIT_T0_EENS6_IT1_T2_EEEE4typeERKS9_RKSC_
FNA:8,0,_ZNSt3__16chronomiB8ne200100IjNS_5ratioILl1ELl1000000000000000000EEExNS2_ILl1ELl1EEEEENS_11common_typeIJNS0_8durationIT_T0_EENS6_IT1_T2_EEEE4typeERKS9_RKSC_
FNA:8,0,_ZNSt3__16chronomiB8ne200100IjNS_5ratioILl1ELl1000000000000000EEExNS2_ILl1ELl1EEEEENS_11common_typeIJNS0_8durationIT_T0_EENS6_IT1_T2_EEEE4typeERKS9_RKSC_
FNA:8,0,_ZNSt3__16chronomiB8ne200100IjNS_5ratioILl1ELl1000000000000EEExNS2_ILl1ELl1EEEEENS_11common_typeIJNS0_8durationIT_T0_EENS6_IT1_T2_EEEE4typeERKS9_RKSC_
FNA:8,1,_ZNSt3__16chronomiB8ne200100IjNS_5ratioILl1ELl1000EEExNS2_ILl1ELl1EEEEENS_11common_typeIJNS0_8durationIT_T0_EENS6_IT1_T2_EEEE4typeERKS9_RKSC_
FNA:8,2,_ZNSt3__16chronomiB8ne200100IjNS_5ratioILl1ELl100EEExNS2_ILl1ELl1EEEEENS_11common_typeIJNS0_8durationIT_T0_EENS6_IT1_T2_EEEE4typeERKS9_RKSC_
FNA:8,0,_ZNSt3__16chronomiB8ne200100IjNS_5ratioILl1ELl10EEExNS2_ILl1ELl1EEEEENS_11common_typeIJNS0_8durationIT_T0_EENS6_IT1_T2_EEEE4typeERKS9_RKSC_
FNA:8,0,_ZNSt3__16chronomiB8ne200100IjNS_5ratioILl1ELl1EEExS3_EENS_11common_typeIJNS0_8durationIT_T0_EENS5_IT1_T2_EEEE4typeERKS8_RKSB_
FNA:8,0,_ZNSt3__16chronomiB8ne200100IlNS_5ratioILl60ELl1EEElS3_EENS_11common_typeIJNS0_8durationIT_T0_EENS5_IT1_T2_EEEE4typeERKS8_RKSB_
FNA:8,2,_ZNSt3__16chronomiB8ne200100IlNS_5ratioILl60ELl1EEExNS2_ILl1ELl1EEEEENS_11common_typeIJNS0_8durationIT_T0_EENS6_IT1_T2_EEEE4typeERKS9_RKSC_
FNA:8,0,_ZNSt3__16chronomiB8ne200100ImNS_5ratioILl1000000000ELl1EEExNS2_ILl1ELl1EEEEENS_11common_typeIJNS0_8durationIT_T0_EENS6_IT1_T2_EEEE4typeERKS9_RKSC_
FNA:8,1,_ZNSt3__16chronomiB8ne200100ImNS_5ratioILl3600ELl1EEExNS2_ILl1ELl1EEEEENS_11common_typeIJNS0_8durationIT_T0_EENS6_IT1_T2_EEEE4typeERKS9_RKSC_
FNA:8,0,_ZNSt3__16chronomiB8ne200100ImNS_5ratioILl60ELl1EEExNS2_ILl1ELl1EEEEENS_11common_typeIJNS0_8durationIT_T0_EENS6_IT1_T2_EEEE4typeERKS9_RKSC_
FNA:8,0,_ZNSt3__16chronomiB8ne200100ImNS_5ratioILl86400ELl1EEExNS2_ILl1ELl1EEEEENS_11common_typeIJNS0_8durationIT_T0_EENS6_IT1_T2_EEEE4typeERKS9_RKSC_
FNA:8,4,_ZNSt3__16chronomiB8ne200100IxNS_5ratioILl1ELl1000000000EEExNS2_ILl1ELl1EEEEENS_11common_typeIJNS0_8durationIT_T0_EENS6_IT1_T2_EEEE4typeERKS9_RKSC_
FNA:8,612,_ZNSt3__16chronomiB8ne200100IxNS_5ratioILl1ELl1000000000EEExS3_EENS_11common_typeIJNS0_8durationIT_T0_EENS5_IT1_T2_EEEE4typeERKS8_RKSB_
FNA:8,20,_ZNSt3__16chronomiB8ne200100IxNS_5ratioILl1ELl1000000EEExNS2_ILl1ELl1EEEEENS_11common_typeIJNS0_8durationIT_T0_EENS6_IT1_T2_EEEE4typeERKS9_RKSC_
FNA:8,612,_ZNSt3__16chronomiB8ne200100IxNS_5ratioILl1ELl1000000EEExS3_EENS_11common_typeIJNS0_8durationIT_T0_EENS5_IT1_T2_EEEE4typeERKS8_RKSB_
FNA:8,13,_ZNSt3__16chronomiB8ne200100IxNS_5ratioILl1ELl1000EEExNS2_ILl1ELl1EEEEENS_11common_typeIJNS0_8durationIT_T0_EENS6_IT1_T2_EEEE4typeERKS9_RKSC_
FNA:8,2,_ZNSt3__16chronomiB8ne200100IxNS_5ratioILl1ELl1000EEExS3_EENS_11common_typeIJNS0_8durationIT_T0_EENS5_IT1_T2_EEEE4typeERKS8_RKSB_
FNA:8,0,_ZNSt3__16chronomiB8ne200100IxNS_5ratioILl1ELl1EEExS3_EENS_11common_typeIJNS0_8durationIT_T0_EENS5_IT1_T2_EEEE4typeERKS8_RKSB_
FNA:8,2,_ZNSt3__16chronomiB8ne200100IxNS_5ratioILl1ELl3EEExNS2_ILl1ELl1EEEEENS_11common_typeIJNS0_8durationIT_T0_EENS6_IT1_T2_EEEE4typeERKS9_RKSC_
FNA:8,0,_ZNSt3__16chronomiB8ne200100IxNS_5ratioILl1ELl3EEExS3_EENS_11common_typeIJNS0_8durationIT_T0_EENS5_IT1_T2_EEEE4typeERKS8_RKSB_
FNA:8,0,_ZNSt3__16chronomiB8ne200100IxNS_5ratioILl31556952ELl1EEExNS2_ILl1ELl1EEEEENS_11common_typeIJNS0_8durationIT_T0_EENS6_IT1_T2_EEEE4typeERKS9_RKSC_
FNA:8,0,_ZNSt3__16chronomiB8ne200100IxNS_5ratioILl31556952ELl1EEExS3_EENS_11common_typeIJNS0_8durationIT_T0_EENS5_IT1_T2_EEEE4typeERKS8_RKSB_
FNA:8,3,_ZNSt3__16chronomiB8ne200100IyNS_5ratioILl1ELl1000000000000000000EEExNS2_ILl1ELl1EEEEENS_11common_typeIJNS0_8durationIT_T0_EENS6_IT1_T2_EEEE4typeERKS9_RKSC_
FNA:8,5,_ZNSt3__16chronomiB8ne200100IyNS_5ratioILl1ELl1000000000EEExNS2_ILl1ELl1EEEEENS_11common_typeIJNS0_8durationIT_T0_EENS6_IT1_T2_EEEE4typeERKS9_RKSC_
FNA:8,1,_ZNSt3__16chronomiB8ne200100IyNS_5ratioILl1ELl1000000EEExNS2_ILl1ELl1EEEEENS_11common_typeIJNS0_8durationIT_T0_EENS6_IT1_T2_EEEE4typeERKS9_RKSC_
FNA:8,17,_ZNSt3__16chronomiB8ne200100IyNS_5ratioILl1ELl1000EEExNS2_ILl1ELl1EEEEENS_11common_typeIJNS0_8durationIT_T0_EENS6_IT1_T2_EEEE4typeERKS9_RKSC_
FNA:8,15,_ZNSt3__16chronomiB8ne200100IyNS_5ratioILl1ELl1EEExS3_EENS_11common_typeIJNS0_8durationIT_T0_EENS5_IT1_T2_EEEE4typeERKS8_RKSB_
FNA:8,1,_ZNSt3__16chronomiB8ne200100IyNS_5ratioILl1ELl3EEExNS2_ILl1ELl1EEEEENS_11common_typeIJNS0_8durationIT_T0_EENS6_IT1_T2_EEEE4typeERKS9_RKSC_
FNA:8,1,_ZNSt3__16chronomiB8ne200100IyNS_5ratioILl1ELl7EEExNS2_ILl1ELl1EEEEENS_11common_typeIJNS0_8durationIT_T0_EENS6_IT1_T2_EEEE4typeERKS9_RKSC_
FNL:9,72
FNA:9,2,_ZNKSt3__16chrono15__duration_castINS0_8durationIdNS_5ratioILl1ELl1EEEEENS2_IlS4_EES4_Lb1ELb1EEclB8ne200100ERKS5_
FNA:9,2,_ZNKSt3__16chrono15__duration_castINS0_8durationIdNS_5ratioILl1ELl1EEEEENS2_IxS4_EES4_Lb1ELb1EEclB8ne200100ERKS5_
FNA:9,0,_ZNKSt3__16chrono15__duration_castINS0_8durationIjNS_5ratioILl1ELl1000000000000000000EEEEENS2_IxS4_EENS3_ILl1ELl1EEELb1ELb1EEclB8ne200100ERKS5_
FNA:9,0,_ZNKSt3__16chrono15__duration_castINS0_8durationIjNS_5ratioILl1ELl1000000000000000EEEEENS2_IxS4_EENS3_ILl1ELl1EEELb1ELb1EEclB8ne200100ERKS5_
FNA:9,0,_ZNKSt3__16chrono15__duration_castINS0_8durationIjNS_5ratioILl1ELl1000000000000EEEEENS2_IxS4_EENS3_ILl1ELl1EEELb1ELb1EEclB8ne200100ERKS5_
FNA:9,1,_ZNKSt3__16chrono15__duration_castINS0_8durationIjNS_5ratioILl1ELl1000EEEEENS2_IxS4_EENS3_ILl1ELl1EEELb1ELb1EEclB8ne200100ERKS5_
FNA:9,2,_ZNKSt3__16chrono15__duration_castINS0_8durationIjNS_5ratioILl1ELl100EEEEENS2_IxS4_EENS3_ILl1ELl1EEELb1ELb1EEclB8ne200100ERKS5_
FNA:9,0,_ZNKSt3__16chrono15__duration_castINS0_8durationIjNS_5ratioILl1ELl10EEEEENS2_IxS4_EENS3_ILl1ELl1EEELb1ELb1EEclB8ne200100ERKS5_
FNA:9,0,_ZNKSt3__16chrono15__duration_castINS0_8durationIjNS_5ratioILl1ELl1EEEEENS2_IxS4_EES4_Lb1ELb1EEclB8ne200100ERKS5_
FNA:9,1,_ZNKSt3__16chrono15__duration_castINS0_8durationIxNS_5ratioILl1ELl1000000EEEEES5_NS3_ILl1ELl1EEELb1ELb1EEclB8ne200100ERKS5_
FNA:9,2,_ZNKSt3__16chrono15__duration_castINS0_8durationIxNS_5ratioILl1ELl1EEEEENS2_IdS4_EES4_Lb1ELb1EEclB8ne200100ERKS5_
FNA:9,16,_ZNKSt3__16chrono15__duration_castINS0_8durationIxNS_5ratioILl1ELl1EEEEENS2_IyS4_EES4_Lb1ELb1EEclB8ne200100ERKS5_
FNL:10,79
FNA:10,1,_ZNKSt3__16chrono15__duration_castINS0_8durationIdNS_5ratioILl1ELl3EEEEENS2_IlNS3_ILl1ELl1EEEEES4_Lb1ELb0EEclB8ne200100ERKS5_
FNA:10,1,_ZNKSt3__16chrono15__duration_castINS0_8durationIdNS_5ratioILl1ELl3EEEEENS2_IxNS3_ILl1ELl1EEEEES4_Lb1ELb0EEclB8ne200100ERKS5_
FNA:10,612,_ZNKSt3__16chrono15__duration_castINS0_8durationIxNS_5ratioILl1ELl1000000000EEEEENS2_IxNS3_ILl1ELl1000EEEEENS3_ILl1ELl1000000EEELb1ELb0EEclB8ne200100ERKS5_
FNA:10,612,_ZNKSt3__16chrono15__duration_castINS0_8durationIxNS_5ratioILl1ELl1000000EEEEENS2_IxNS3_ILl1ELl1000EEEEES6_Lb1ELb0EEclB8ne200100ERKS5_
FNL:11,88
FNA:11,2,_ZNKSt3__16chrono15__duration_castINS0_8durationIiNS_5ratioILl63ELl1EEEEENS2_IxNS3_ILl1ELl1EEEEES4_Lb0ELb1EEclB8ne200100ERKS5_
FNA:11,2,_ZNKSt3__16chrono15__duration_castINS0_8durationIiNS_5ratioILl9ELl1EEEEENS2_IxNS3_ILl1ELl1EEEEES4_Lb0ELb1EEclB8ne200100ERKS5_
FNA:11,0,_ZNKSt3__16chrono15__duration_castINS0_8durationIjNS_5ratioILl1000000000000000000ELl1EEEEENS2_IxNS3_ILl1ELl1EEEEES4_Lb0ELb1EEclB8ne200100ERKS5_
FNA:11,0,_ZNKSt3__16chrono15__duration_castINS0_8durationIjNS_5ratioILl1000000000000000ELl1EEEEENS2_IxNS3_ILl1ELl1EEEEES4_Lb0ELb1EEclB8ne200100ERKS5_
FNA:11,0,_ZNKSt3__16chrono15__duration_castINS0_8durationIjNS_5ratioILl1000000000000ELl1EEEEENS2_IxNS3_ILl1ELl1EEEEES4_Lb0ELb1EEclB8ne200100ERKS5_
FNA:11,0,_ZNKSt3__16chrono15__duration_castINS0_8durationIjNS_5ratioILl1000000000ELl1EEEEENS2_IxNS3_ILl1ELl1EEEEES4_Lb0ELb1EEclB8ne200100ERKS5_
FNA:11,1,_ZNKSt3__16chrono15__duration_castINS0_8durationIjNS_5ratioILl1000000ELl1EEEEENS2_IxNS3_ILl1ELl1EEEEES4_Lb0ELb1EEclB8ne200100ERKS5_
FNA:11,0,_ZNKSt3__16chrono15__duration_castINS0_8durationIjNS_5ratioILl1000ELl1EEEEENS2_IxNS3_ILl1ELl1EEEEES4_Lb0ELb1EEclB8ne200100ERKS5_
FNA:11,0,_ZNKSt3__16chrono15__duration_castINS0_8durationIjNS_5ratioILl100ELl1EEEEENS2_IxNS3_ILl1ELl1EEEEES4_Lb0ELb1EEclB8ne200100ERKS5_
FNA:11,0,_ZNKSt3__16chrono15__duration_castINS0_8durationIjNS_5ratioILl10ELl1EEEEENS2_IxNS3_ILl1ELl1EEEEES4_Lb0ELb1EEclB8ne200100ERKS5_
FNA:11,0,_ZNKSt3__16chrono15__duration_castINS0_8durationIjNS_5ratioILl15ELl1EEEEENS2_IxNS3_ILl1ELl1EEEEES4_Lb0ELb1EEclB8ne200100ERKS5_
FNA:11,0,_ZNKSt3__16chrono15__duration_castINS0_8durationIjNS_5ratioILl15ELl4EEEEENS2_IxNS3_ILl1ELl4EEEEENS3_ILl15ELl1EEELb0ELb1EEclB8ne200100ERKS5_
FNA:11,2,_ZNKSt3__16chrono15__duration_castINS0_8durationIlNS_5ratioILl60ELl1EEEEENS2_IxNS3_ILl1ELl1EEEEES4_Lb0ELb1EEclB8ne200100ERKS5_
FNA:11,0,_ZNKSt3__16chrono15__duration_castINS0_8durationImNS_5ratioILl1000000000ELl1EEEEENS2_IyNS3_ILl1ELl1EEEEES4_Lb0ELb1EEclB8ne200100ERKS5_
FNA:11,1,_ZNKSt3__16chrono15__duration_castINS0_8durationImNS_5ratioILl3600ELl1EEEEENS2_IyNS3_ILl1ELl1EEEEES4_Lb0ELb1EEclB8ne200100ERKS5_
FNA:11,0,_ZNKSt3__16chrono15__duration_castINS0_8durationImNS_5ratioILl60ELl1EEEEENS2_IyNS3_ILl1ELl1EEEEES4_Lb0ELb1EEclB8ne200100ERKS5_
FNA:11,0,_ZNKSt3__16chrono15__duration_castINS0_8durationImNS_5ratioILl86400ELl1EEEEENS2_IyNS3_ILl1ELl1EEEEES4_Lb0ELb1EEclB8ne200100ERKS5_
FNA:11,1,_ZNKSt3__16chrono15__duration_castINS0_8durationIxNS_5ratioILl1ELl1EEEEENS2_IdNS3_ILl1ELl3EEEEENS3_ILl3ELl1EEELb0ELb1EEclB8ne200100ERKS5_
FNA:11,0,_ZNKSt3__16chrono15__duration_castINS0_8durationIxNS_5ratioILl1ELl1EEEEENS2_IxNS3_ILl1ELl1000000000000000000EEEEENS3_ILl1000000000000000000ELl1EEELb0ELb1EEclB8ne200100ERKS5_
FNA:11,0,_ZNKSt3__16chrono15__duration_castINS0_8durationIxNS_5ratioILl1ELl1EEEEENS2_IxNS3_ILl1ELl1000000000000000EEEEENS3_ILl1000000000000000ELl1EEELb0ELb1EEclB8ne200100ERKS5_
FNA:11,0,_ZNKSt3__16chrono15__duration_castINS0_8durationIxNS_5ratioILl1ELl1EEEEENS2_IxNS3_ILl1ELl1000000000000EEEEENS3_ILl1000000000000ELl1EEELb0ELb1EEclB8ne200100ERKS5_
FNA:11,4,_ZNKSt3__16chrono15__duration_castINS0_8durationIxNS_5ratioILl1ELl1EEEEENS2_IxNS3_ILl1ELl1000000000EEEEENS3_ILl1000000000ELl1EEELb0ELb1EEclB8ne200100ERKS5_
FNA:11,20,_ZNKSt3__16chrono15__duration_castINS0_8durationIxNS_5ratioILl1ELl1EEEEENS2_IxNS3_ILl1ELl1000000EEEEENS3_ILl1000000ELl1EEELb0ELb1EEclB8ne200100ERKS5_
FNA:11,16,_ZNKSt3__16chrono15__duration_castINS0_8durationIxNS_5ratioILl1ELl1EEEEENS2_IxNS3_ILl1ELl1000EEEEENS3_ILl1000ELl1EEELb0ELb1EEclB8ne200100ERKS5_
FNA:11,2,_ZNKSt3__16chrono15__duration_castINS0_8durationIxNS_5ratioILl1ELl1EEEEENS2_IxNS3_ILl1ELl100EEEEENS3_ILl100ELl1EEELb0ELb1EEclB8ne200100ERKS5_
FNA:11,0,_ZNKSt3__16chrono15__duration_castINS0_8durationIxNS_5ratioILl1ELl1EEEEENS2_IxNS3_ILl1ELl10EEEEENS3_ILl10ELl1EEELb0ELb1EEclB8ne200100ERKS5_
FNA:11,2,_ZNKSt3__16chrono15__duration_castINS0_8durationIxNS_5ratioILl1ELl1EEEEENS2_IxNS3_ILl1ELl3EEEEENS3_ILl3ELl1EEELb0ELb1EEclB8ne200100ERKS5_
FNA:11,0,_ZNKSt3__16chrono15__duration_castINS0_8durationIxNS_5ratioILl1ELl1EEEEENS2_IxNS3_ILl1ELl4EEEEENS3_ILl4ELl1EEELb0ELb1EEclB8ne200100ERKS5_
FNA:11,3,_ZNKSt3__16chrono15__duration_castINS0_8durationIxNS_5ratioILl1ELl1EEEEENS2_IyNS3_ILl1ELl1000000000000000000EEEEENS3_ILl1000000000000000000ELl1EEELb0ELb1EEclB8ne200100ERKS5_
FNA:11,5,_ZNKSt3__16chrono15__duration_castINS0_8durationIxNS_5ratioILl1ELl1EEEEENS2_IyNS3_ILl1ELl1000000000EEEEENS3_ILl1000000000ELl1EEELb0ELb1EEclB8ne200100ERKS5_
FNA:11,1,_ZNKSt3__16chrono15__duration_castINS0_8durationIxNS_5ratioILl1ELl1EEEEENS2_IyNS3_ILl1ELl1000000EEEEENS3_ILl1000000ELl1EEELb0ELb1EEclB8ne200100ERKS5_
FNA:11,17,_ZNKSt3__16chrono15__duration_castINS0_8durationIxNS_5ratioILl1ELl1EEEEENS2_IyNS3_ILl1ELl1000EEEEENS3_ILl1000ELl1EEELb0ELb1EEclB8ne200100ERKS5_
FNA:11,1,_ZNKSt3__16chrono15__duration_castINS0_8durationIxNS_5ratioILl1ELl1EEEEENS2_IyNS3_ILl1ELl3EEEEENS3_ILl3ELl1EEELb0ELb1EEclB8ne200100ERKS5_
FNA:11,1,_ZNKSt3__16chrono15__duration_castINS0_8durationIxNS_5ratioILl1ELl1EEEEENS2_IyNS3_ILl1ELl7EEEEENS3_ILl7ELl1EEELb0ELb1EEclB8ne200100ERKS5_
FNA:11,0,_ZNKSt3__16chrono15__duration_castINS0_8durationIxNS_5ratioILl31556952ELl1EEEEENS2_IxNS3_ILl1ELl1EEEEES4_Lb0ELb1EEclB8ne200100ERKS5_
FNF:12
FNH:12
DA:72,26
DA:73,26
DA:79,1226
DA:81,1226
DA:82,1226
DA:88,81
DA:90,81
DA:91,81
DA:105,1333
DA:106,1333
DA:120,1
DA:209,6920
DA:218,204
DA:219,204
DA:223,6474
DA:244,1
DA:245,1
DA:246,1
DA:272,1
DA:273,1
DA:394,2
DA:396,2
DA:404,1322
DA:406,1322
LF:24
LH:24
end_of_record
TN:
SF:/Applications/Xcode.app/Contents/Developer/Platforms/MacOSX.platform/Developer/SDKs/MacOSX.sdk/usr/include/c++/v1/__chrono/time_point.h
FNL:0,181
FNA:0,1,_ZNSt3__16chronoplB8ne200100INS0_12system_clockENS0_8durationIxNS_5ratioILl1ELl1000EEEEExS5_EENS0_10time_pointIT_NS_11common_typeIJT0_NS3_IT1_T2_EEEE4typeEEERKNS7_IS8_SA_EERKSD_
FNL:1,200
FNA:1,0,_ZNSt3__16chronomiB8ne200100INS0_12system_clockENS0_8durationIdNS_5ratioILl1ELl1EEEEEdS5_EENS0_10time_pointIT_NS_11common_typeIJT0_NS3_IT1_T2_EEEE4typeEEERKNS7_IS8_SA_EERKSD_
FNA:1,0,_ZNSt3__16chronomiB8ne200100INS0_12system_clockENS0_8durationIdNS_5ratioILl1ELl3EEEEEdS5_EENS0_10time_pointIT_NS_11common_typeIJT0_NS3_IT1_T2_EEEE4typeEEERKNS7_IS8_SA_EERKSD_
FNA:1,0,_ZNSt3__16chronomiB8ne200100INS0_12system_clockENS0_8durationIiNS_5ratioILl63ELl1EEEEEiS5_EENS0_10time_pointIT_NS_11common_typeIJT0_NS3_IT1_T2_EEEE4typeEEERKNS7_IS8_SA_EERKSD_
FNA:1,0,_ZNSt3__16chronomiB8ne200100INS0_12system_clockENS0_8durationIiNS_5ratioILl9ELl1EEEEEiS5_EENS0_10time_pointIT_NS_11common_typeIJT0_NS3_IT1_T2_EEEE4typeEEERKNS7_IS8_SA_EERKSD_
FNA:1,0,_ZNSt3__16chronomiB8ne200100INS0_12system_clockENS0_8durationIlNS_5ratioILl60ELl1EEEEElS5_EENS0_10time_pointIT_NS_11common_typeIJT0_NS3_IT1_T2_EEEE4typeEEERKNS7_IS8_SA_EERKSD_
FNA:1,0,_ZNSt3__16chronomiB8ne200100INS0_12system_clockENS0_8durationIxNS_5ratioILl1ELl1000000000EEEEExS5_EENS0_10time_pointIT_NS_11common_typeIJT0_NS3_IT1_T2_EEEE4typeEEERKNS7_IS8_SA_EERKSD_
FNA:1,0,_ZNSt3__16chronomiB8ne200100INS0_12system_clockENS0_8durationIxNS_5ratioILl1ELl1000000EEEEExS5_EENS0_10time_pointIT_NS_11common_typeIJT0_NS3_IT1_T2_EEEE4typeEEERKNS7_IS8_SA_EERKSD_
FNA:1,2,_ZNSt3__16chronomiB8ne200100INS0_12system_clockENS0_8durationIxNS_5ratioILl1ELl1000EEEEExS5_EENS0_10time_pointIT_NS_11common_typeIJT0_NS3_IT1_T2_EEEE4typeEEERKNS7_IS8_SA_EERKSD_
FNA:1,0,_ZNSt3__16chronomiB8ne200100INS0_12system_clockENS0_8durationIxNS_5ratioILl1ELl3EEEEExS5_EENS0_10time_pointIT_NS_11common_typeIJT0_NS3_IT1_T2_EEEE4typeEEERKNS7_IS8_SA_EERKSD_
FNA:1,0,_ZNSt3__16chronomiB8ne200100INS0_12system_clockENS0_8durationIxNS_5ratioILl31556952ELl1EEEEExS5_EENS0_10time_pointIT_NS_11common_typeIJT0_NS3_IT1_T2_EEEE4typeEEERKNS7_IS8_SA_EERKSD_
FNL:2,209
FNA:2,612,_ZNSt3__16chronomiB8ne200100INS0_12steady_clockENS0_8durationIxNS_5ratioILl1ELl1000000000EEEEES6_EENS_11common_typeIJT0_T1_EE4typeERKNS0_10time_pointIT_S8_EERKNSC_ISD_S9_EE
FNA:2,612,_ZNSt3__16chronomiB8ne200100INS0_12system_clockENS0_8durationIxNS_5ratioILl1ELl1000000EEEEES6_EENS_11common_typeIJT0_T1_EE4typeERKNS0_10time_pointIT_S8_EERKNSC_ISD_S9_EE
FNL:3,47
FNA:3,1,_ZNSt3__16chrono10time_pointINS0_12system_clockENS0_8durationIxNS_5ratioILl1ELl1000EEEEEEC1B8ne200100Ev
FNA:3,1,_ZNSt3__16chrono10time_pointINS0_12system_clockENS0_8durationIxNS_5ratioILl1ELl1000EEEEEEC2B8ne200100Ev
FNL:4,48
FNA:4,2,_ZNSt3__16chrono10time_pointIN3fmt3v126detail7local_tENS0_8durationIxNS_5ratioILl1ELl1EEEEEEC1B8ne200100ERKS9_
FNA:4,2,_ZNSt3__16chrono10time_pointIN3fmt3v126detail7local_tENS0_8durationIxNS_5ratioILl1ELl1EEEEEEC2B8ne200100ERKS9_
FNA:4,2,_ZNSt3__16chrono10time_pointINS0_12system_clockENS0_8durationIdNS_5ratioILl1ELl1EEEEEEC1B8ne200100ERKS6_
FNA:4,2,_ZNSt3__16chrono10time_pointINS0_12system_clockENS0_8durationIdNS_5ratioILl1ELl1EEEEEEC2B8ne200100ERKS6_
FNA:4,1,_ZNSt3__16chrono10time_pointINS0_12system_clockENS0_8durationIdNS_5ratioILl1ELl3EEEEEEC1B8ne200100ERKS6_
FNA:4,1,_ZNSt3__16chrono10time_pointINS0_12system_clockENS0_8durationIdNS_5ratioILl1ELl3EEEEEEC2B8ne200100ERKS6_
FNA:4,1,_ZNSt3__16chrono10time_pointINS0_12system_clockENS0_8durationIiNS_5ratioILl63ELl1EEEEEEC1B8ne200100ERKS6_
FNA:4,1,_ZNSt3__16chrono10time_pointINS0_12system_clockENS0_8durationIiNS_5ratioILl63ELl1EEEEEEC2B8ne200100ERKS6_
FNA:4,1,_ZNSt3__16chrono10time_pointINS0_12system_clockENS0_8durationIiNS_5ratioILl9ELl1EEEEEEC1B8ne200100ERKS6_
FNA:4,1,_ZNSt3__16chrono10time_pointINS0_12system_clockENS0_8durationIiNS_5ratioILl9ELl1EEEEEEC2B8ne200100ERKS6_
FNA:4,1,_ZNSt3__16chrono10time_pointINS0_12system_clockENS0_8durationIlNS_5ratioILl60ELl1EEEEEEC1B8ne200100ERKS6_
FNA:4,1,_ZNSt3__16chrono10time_pointINS0_12system_clockENS0_8durationIlNS_5ratioILl60ELl1EEEEEEC2B8ne200100ERKS6_
FNA:4,1,_ZNSt3__16chrono10time_pointINS0_12system_clockENS0_8durationIxNS_5ratioILl1ELl1000000000EEEEEEC1B8ne200100ERKS6_
FNA:4,1,_ZNSt3__16chrono10time_pointINS0_12system_clockENS0_8durationIxNS_5ratioILl1ELl1000000000EEEEEEC2B8ne200100ERKS6_
FNA:4,2,_ZNSt3__16chrono10time_pointINS0_12system_clockENS0_8durationIxNS_5ratioILl1ELl1000000EEEEEEC1B8ne200100ERKS6_
FNA:4,2,_ZNSt3__16chrono10time_pointINS0_12system_clockENS0_8durationIxNS_5ratioILl1ELl1000000EEEEEEC2B8ne200100ERKS6_
FNA:4,7,_ZNSt3__16chrono10time_pointINS0_12system_clockENS0_8durationIxNS_5ratioILl1ELl1000EEEEEEC1B8ne200100ERKS6_
FNA:4,7,_ZNSt3__16chrono10time_pointINS0_12system_clockENS0_8durationIxNS_5ratioILl1ELl1000EEEEEEC2B8ne200100ERKS6_
FNA:4,3,_ZNSt3__16chrono10time_pointINS0_12system_clockENS0_8durationIxNS_5ratioILl1ELl1EEEEEEC1B8ne200100ERKS6_
FNA:4,3,_ZNSt3__16chrono10time_pointINS0_12system_clockENS0_8durationIxNS_5ratioILl1ELl1EEEEEEC2B8ne200100ERKS6_
FNA:4,1,_ZNSt3__16chrono10time_pointINS0_12system_clockENS0_8durationIxNS_5ratioILl1ELl3EEEEEEC1B8ne200100ERKS6_
FNA:4,1,_ZNSt3__16chrono10time_pointINS0_12system_clockENS0_8durationIxNS_5ratioILl1ELl3EEEEEEC2B8ne200100ERKS6_
FNA:4,1,_ZNSt3__16chrono10time_pointINS0_12system_clockENS0_8durationIxNS_5ratioILl31556952ELl1EEEEEEC1B8ne200100ERKS6_
FNA:4,1,_ZNSt3__16chrono10time_pointINS0_12system_clockENS0_8durationIxNS_5ratioILl31556952ELl1EEEEEEC2B8ne200100ERKS6_
FNL:5,57
FNA:5,58,_ZNKSt3__16chrono10time_pointIN3fmt3v126detail7local_tENS0_8durationIxNS_5ratioILl1ELl1EEEEEE16time_since_epochB8ne200100Ev
FNA:5,1224,_ZNKSt3__16chrono10time_pointINS0_12steady_clockENS0_8durationIxNS_5ratioILl1ELl1000000000EEEEEE16time_since_epochB8ne200100Ev
FNA:5,4,_ZNKSt3__16chrono10time_pointINS0_12system_clockENS0_8durationIdNS_5ratioILl1ELl1EEEEEE16time_since_epochB8ne200100Ev
FNA:5,2,_ZNKSt3__16chrono10time_pointINS0_12system_clockENS0_8durationIdNS_5ratioILl1ELl3EEEEEE16time_since_epochB8ne200100Ev
FNA:5,2,_ZNKSt3__16chrono10time_pointINS0_12system_clockENS0_8durationIiNS_5ratioILl63ELl1EEEEEE16time_since_epochB8ne200100Ev
FNA:5,2,_ZNKSt3__16chrono10time_pointINS0_12system_clockENS0_8durationIiNS_5ratioILl9ELl1EEEEEE16time_since_epochB8ne200100Ev
FNA:5,2,_ZNKSt3__16chrono10time_pointINS0_12system_clockENS0_8durationIlNS_5ratioILl60ELl1EEEEEE16time_since_epochB8ne200100Ev
FNA:5,4,_ZNKSt3__16chrono10time_pointINS0_12system_clockENS0_8durationIxNS_5ratioILl1ELl1000000000EEEEEE16time_since_epochB8ne200100Ev
FNA:5,1245,_ZNKSt3__16chrono10time_pointINS0_12system_clockENS0_8durationIxNS_5ratioILl1ELl1000000EEEEEE16time_since_epochB8ne200100Ev
FNA:5,18,_ZNKSt3__16chrono10time_pointINS0_12system_clockENS0_8durationIxNS_5ratioILl1ELl1000EEEEEE16time_since_epochB8ne200100Ev
FNA:5,63,_ZNKSt3__16chrono10time_pointINS0_12system_clockENS0_8durationIxNS_5ratioILl1ELl1EEEEEE16time_since_epochB8ne200100Ev
FNA:5,2,_ZNKSt3__16chrono10time_pointINS0_12system_clockENS0_8durationIxNS_5ratioILl1ELl3EEEEEE16time_since_epochB8ne200100Ev
FNA:5,1,_ZNKSt3__16chrono10time_pointINS0_12system_clockENS0_8durationIxNS_5ratioILl31556952ELl1EEEEEE16time_since_epochB8ne200100Ev
FNL:6,88
FNA:6,1,_ZNSt3__16chrono15time_point_castB8ne200100INS0_8durationIxNS_5ratioILl1ELl1000000EEEEENS0_12system_clockES5_EENS0_10time_pointIT0_T_EERKNS7_IS8_T1_EE
FNF:7
FNH:7
DA:47,2
DA:48,46
DA:57,2627
DA:88,1
DA:89,1
DA:181,1
DA:183,1
DA:200,2
DA:202,2
DA:209,1224
DA:210,1224
LF:11
LH:11
end_of_record
TN:
SF:/Applications/Xcode.app/Contents/Developer/Platforms/MacOSX.platform/Developer/SDKs/MacOSX.sdk/usr/include/c++/v1/__exception/exception.h
FNL:0,74
FNA:0,2,_ZNSt9exceptionC1B8ne200100Ev
FNA:0,3,_ZNSt9exceptionC2B8ne200100Ev
FNL:1,75
FNA:1,9,_ZNSt9exceptionC1B8ne200100ERKS_
FNA:1,9,_ZNSt9exceptionC2B8ne200100ERKS_
FNF:2
FNH:2
DA:74,5
DA:75,18
LF:2
LH:2
end_of_record
TN:
SF:/Applications/Xcode.app/Contents/Developer/Platforms/MacOSX.platform/Developer/SDKs/MacOSX.sdk/usr/include/c++/v1/__functional/function.h
FNL:0,1020
FNA:0,3,_ZNSt3__1eqB8ne200100I11test_resultJN3fmt3v1216basic_format_argINS3_7contextEE6handleEEEEbRKNS_8functionIFT_DpT0_EEEDn
FNA:0,3,_ZNSt3__1eqB8ne200100I11test_resultJN3fmt3v1217basic_string_viewIcEEEEEbRKNS_8functionIFT_DpT0_EEEDn
FNA:0,3,_ZNSt3__1eqB8ne200100I11test_resultJN3fmt3v129monostateEEEEbRKNS_8functionIFT_DpT0_EEEDn
FNA:0,3,_ZNSt3__1eqB8ne200100I11test_resultJPKcEEEbRKNS_8functionIFT_DpT0_EEEDn
FNA:0,12,_ZNSt3__1eqB8ne200100I11test_resultJPKvEEEbRKNS_8functionIFT_DpT0_EEEDn
FNA:0,9,_ZNSt3__1eqB8ne200100I11test_resultJbEEEbRKNS_8functionIFT_DpT0_EEEDn
FNA:0,3,_ZNSt3__1eqB8ne200100I11test_resultJcEEEbRKNS_8functionIFT_DpT0_EEEDn
FNA:0,9,_ZNSt3__1eqB8ne200100I11test_resultJdEEEbRKNS_8functionIFT_DpT0_EEEDn
FNA:0,9,_ZNSt3__1eqB8ne200100I11test_resultJeEEEbRKNS_8functionIFT_DpT0_EEEDn
FNA:0,9,_ZNSt3__1eqB8ne200100I11test_resultJfEEEbRKNS_8functionIFT_DpT0_EEEDn
FNA:0,27,_ZNSt3__1eqB8ne200100I11test_resultJiEEEbRKNS_8functionIFT_DpT0_EEEDn
FNA:0,27,_ZNSt3__1eqB8ne200100I11test_resultJjEEEbRKNS_8functionIFT_DpT0_EEEDn
FNA:0,18,_ZNSt3__1eqB8ne200100I11test_resultJxEEEbRKNS_8functionIFT_DpT0_EEEDn
FNA:0,18,_ZNSt3__1eqB8ne200100I11test_resultJyEEEbRKNS_8functionIFT_DpT0_EEEDn
FNA:0,6,_ZNSt3__1eqB8ne200100IPcJmEEEbRKNS_8functionIFT_DpT0_EEEDn
FNA:0,8,_ZNSt3__1eqB8ne200100IPiJmEEEbRKNS_8functionIFT_DpT0_EEEDn
FNA:0,6,_ZNSt3__1eqB8ne200100IlJPKvlEEEbRKNS_8functionIFT_DpT0_EEEDn
FNA:0,27,_ZNSt3__1eqB8ne200100ImJmEEEbRKNS_8functionIFT_DpT0_EEEDn
FNA:0,0,_ZNSt3__1eqB8ne200100IvJEEEbRKNS_8functionIFT_DpT0_EEEDn
FNA:0,4,_ZNSt3__1eqB8ne200100IvJPcmEEEbRKNS_8functionIFT_DpT0_EEEDn
FNA:0,4,_ZNSt3__1eqB8ne200100IvJPimEEEbRKNS_8functionIFT_DpT0_EEEDn
FNL:1,106
FNA:1,1,_ZNSt3__110__function10__not_nullB8ne200100I12check_customEEbRKT_
FNA:1,1,_ZNSt3__110__function10__not_nullB8ne200100IN7testing6ActionIF11test_resultN3fmt3v1216basic_format_argINS6_7contextEE6handleEEE13ActionAdapterEEEbRKT_
FNA:1,1,_ZNSt3__110__function10__not_nullB8ne200100IN7testing6ActionIF11test_resultN3fmt3v1217basic_string_viewIcEEEE13ActionAdapterEEEbRKT_
FNA:1,1,_ZNSt3__110__function10__not_nullB8ne200100IN7testing6ActionIF11test_resultN3fmt3v129monostateEEE13ActionAdapterEEEbRKT_
FNA:1,1,_ZNSt3__110__function10__not_nullB8ne200100IN7testing6ActionIF11test_resultPKcEE13ActionAdapterEEEbRKT_
FNA:1,4,_ZNSt3__110__function10__not_nullB8ne200100IN7testing6ActionIF11test_resultPKvEE13ActionAdapterEEEbRKT_
FNA:1,3,_ZNSt3__110__function10__not_nullB8ne200100IN7testing6ActionIF11test_resultbEE13ActionAdapterEEEbRKT_
FNA:1,1,_ZNSt3__110__function10__not_nullB8ne200100IN7testing6ActionIF11test_resultcEE13ActionAdapterEEEbRKT_
FNA:1,3,_ZNSt3__110__function10__not_nullB8ne200100IN7testing6ActionIF11test_resultdEE13ActionAdapterEEEbRKT_
FNA:1,3,_ZNSt3__110__function10__not_nullB8ne200100IN7testing6ActionIF11test_resulteEE13ActionAdapterEEEbRKT_
FNA:1,3,_ZNSt3__110__function10__not_nullB8ne200100IN7testing6ActionIF11test_resultfEE13ActionAdapterEEEbRKT_
FNA:1,9,_ZNSt3__110__function10__not_nullB8ne200100IN7testing6ActionIF11test_resultiEE13ActionAdapterEEEbRKT_
FNA:1,9,_ZNSt3__110__function10__not_nullB8ne200100IN7testing6ActionIF11test_resultjEE13ActionAdapterEEEbRKT_
FNA:1,6,_ZNSt3__110__function10__not_nullB8ne200100IN7testing6ActionIF11test_resultxEE13ActionAdapterEEEbRKT_
FNA:1,6,_ZNSt3__110__function10__not_nullB8ne200100IN7testing6ActionIF11test_resultyEE13ActionAdapterEEEbRKT_
FNA:1,3,_ZNSt3__110__function10__not_nullB8ne200100IN7testing6ActionIFPcmEE13ActionAdapterEEEbRKT_
FNA:1,4,_ZNSt3__110__function10__not_nullB8ne200100IN7testing6ActionIFPimEE13ActionAdapterEEEbRKT_
FNA:1,3,_ZNSt3__110__function10__not_nullB8ne200100IN7testing6ActionIFlPKvlEE13ActionAdapterEEEbRKT_
FNA:1,2,_ZNSt3__110__function10__not_nullB8ne200100IN7testing6ActionIFmmEE13ActionAdapterEEEbRKT_
FNA:1,8,_ZNSt3__110__function10__not_nullB8ne200100IZN11mock_bufferIcEC1EPcmEUlmE_EEbRKT_
FNA:1,3,_ZNSt3__110__function10__not_nullB8ne200100IZN11mock_bufferIiEC1EPimEUlmE_EEbRKT_
FNA:1,1,_ZNSt3__110__function10__not_nullB8ne200100IZN31buffer_test_append_partial_Test8TestBodyEvE3$_0EEbRKT_
FNA:1,1,_ZNSt3__110__function10__not_nullB8ne200100IZNK7testing8internal11ThrowActionISt9exceptionEcvNS2_6ActionIFT_DpT0_EEEIvJPcmEEEvEUlSE_mE_EEbRKS8_
FNL:2,144
FNA:2,0,_ZNSt3__110__function12__alloc_funcIN7testing6ActionIF11test_resultN3fmt3v1216basic_format_argINS6_7contextEE6handleEEE13ActionAdapterENS_9allocatorISD_EESB_ED1Ev
FNA:2,0,_ZNSt3__110__function12__alloc_funcIN7testing6ActionIF11test_resultN3fmt3v1216basic_format_argINS6_7contextEE6handleEEE13ActionAdapterENS_9allocatorISD_EESB_ED2Ev
FNA:2,0,_ZNSt3__110__function12__alloc_funcIN7testing6ActionIF11test_resultN3fmt3v1217basic_string_viewIcEEEE13ActionAdapterENS_9allocatorISB_EES9_ED1Ev
FNA:2,0,_ZNSt3__110__function12__alloc_funcIN7testing6ActionIF11test_resultN3fmt3v1217basic_string_viewIcEEEE13ActionAdapterENS_9allocatorISB_EES9_ED2Ev
FNA:2,0,_ZNSt3__110__function12__alloc_funcIN7testing6ActionIF11test_resultN3fmt3v129monostateEEE13ActionAdapterENS_9allocatorISA_EES8_ED1Ev
FNA:2,0,_ZNSt3__110__function12__alloc_funcIN7testing6ActionIF11test_resultN3fmt3v129monostateEEE13ActionAdapterENS_9allocatorISA_EES8_ED2Ev
FNA:2,0,_ZNSt3__110__function12__alloc_funcIN7testing6ActionIF11test_resultPKcEE13ActionAdapterENS_9allocatorIS9_EES7_ED1Ev
FNA:2,0,_ZNSt3__110__function12__alloc_funcIN7testing6ActionIF11test_resultPKcEE13ActionAdapterENS_9allocatorIS9_EES7_ED2Ev
FNA:2,0,_ZNSt3__110__function12__alloc_funcIN7testing6ActionIF11test_resultPKvEE13ActionAdapterENS_9allocatorIS9_EES7_ED1Ev
FNA:2,0,_ZNSt3__110__function12__alloc_funcIN7testing6ActionIF11test_resultPKvEE13ActionAdapterENS_9allocatorIS9_EES7_ED2Ev
FNA:2,0,_ZNSt3__110__function12__alloc_funcIN7testing6ActionIF11test_resultbEE13ActionAdapterENS_9allocatorIS7_EES5_ED1Ev
FNA:2,0,_ZNSt3__110__function12__alloc_funcIN7testing6ActionIF11test_resultbEE13ActionAdapterENS_9allocatorIS7_EES5_ED2Ev
FNA:2,0,_ZNSt3__110__function12__alloc_funcIN7testing6ActionIF11test_resultcEE13ActionAdapterENS_9allocatorIS7_EES5_ED1Ev
FNA:2,0,_ZNSt3__110__function12__alloc_funcIN7testing6ActionIF11test_resultcEE13ActionAdapterENS_9allocatorIS7_EES5_ED2Ev
FNA:2,0,_ZNSt3__110__function12__alloc_funcIN7testing6ActionIF11test_resultdEE13ActionAdapterENS_9allocatorIS7_EES5_ED1Ev
FNA:2,0,_ZNSt3__110__function12__alloc_funcIN7testing6ActionIF11test_resultdEE13ActionAdapterENS_9allocatorIS7_EES5_ED2Ev
FNA:2,0,_ZNSt3__110__function12__alloc_funcIN7testing6ActionIF11test_resulteEE13ActionAdapterENS_9allocatorIS7_EES5_ED1Ev
FNA:2,0,_ZNSt3__110__function12__alloc_funcIN7testing6ActionIF11test_resulteEE13ActionAdapterENS_9allocatorIS7_EES5_ED2Ev
FNA:2,0,_ZNSt3__110__function12__alloc_funcIN7testing6ActionIF11test_resultfEE13ActionAdapterENS_9allocatorIS7_EES5_ED1Ev
FNA:2,0,_ZNSt3__110__function12__alloc_funcIN7testing6ActionIF11test_resultfEE13ActionAdapterENS_9allocatorIS7_EES5_ED2Ev
FNA:2,0,_ZNSt3__110__function12__alloc_funcIN7testing6ActionIF11test_resultiEE13ActionAdapterENS_9allocatorIS7_EES5_ED1Ev
FNA:2,0,_ZNSt3__110__function12__alloc_funcIN7testing6ActionIF11test_resultiEE13ActionAdapterENS_9allocatorIS7_EES5_ED2Ev
FNA:2,0,_ZNSt3__110__function12__alloc_funcIN7testing6ActionIF11test_resultjEE13ActionAdapterENS_9allocatorIS7_EES5_ED1Ev
FNA:2,0,_ZNSt3__110__function12__alloc_funcIN7testing6ActionIF11test_resultjEE13ActionAdapterENS_9allocatorIS7_EES5_ED2Ev
FNA:2,0,_ZNSt3__110__function12__alloc_funcIN7testing6ActionIF11test_resultxEE13ActionAdapterENS_9allocatorIS7_EES5_ED1Ev
FNA:2,0,_ZNSt3__110__function12__alloc_funcIN7testing6ActionIF11test_resultxEE13ActionAdapterENS_9allocatorIS7_EES5_ED2Ev
FNA:2,0,_ZNSt3__110__function12__alloc_funcIN7testing6ActionIF11test_resultyEE13ActionAdapterENS_9allocatorIS7_EES5_ED1Ev
FNA:2,0,_ZNSt3__110__function12__alloc_funcIN7testing6ActionIF11test_resultyEE13ActionAdapterENS_9allocatorIS7_EES5_ED2Ev
FNA:2,0,_ZNSt3__110__function12__alloc_funcIN7testing6ActionIFPcmEE13ActionAdapterENS_9allocatorIS7_EES5_ED1Ev
FNA:2,0,_ZNSt3__110__function12__alloc_funcIN7testing6ActionIFPcmEE13ActionAdapterENS_9allocatorIS7_EES5_ED2Ev
FNA:2,0,_ZNSt3__110__function12__alloc_funcIN7testing6ActionIFPimEE13ActionAdapterENS_9allocatorIS7_EES5_ED1Ev
FNA:2,0,_ZNSt3__110__function12__alloc_funcIN7testing6ActionIFPimEE13ActionAdapterENS_9allocatorIS7_EES5_ED2Ev
FNA:2,0,_ZNSt3__110__function12__alloc_funcIN7testing6ActionIFlPKvlEE13ActionAdapterENS_9allocatorIS8_EES6_ED1Ev
FNA:2,0,_ZNSt3__110__function12__alloc_funcIN7testing6ActionIFlPKvlEE13ActionAdapterENS_9allocatorIS8_EES6_ED2Ev
FNA:2,0,_ZNSt3__110__function12__alloc_funcIN7testing6ActionIFmmEE13ActionAdapterENS_9allocatorIS6_EES4_ED1Ev
FNA:2,0,_ZNSt3__110__function12__alloc_funcIN7testing6ActionIFmmEE13ActionAdapterENS_9allocatorIS6_EES4_ED2Ev
FNA:2,0,_ZNSt3__110__function12__alloc_funcIZNK7testing8internal11ThrowActionISt9exceptionEcvNS2_6ActionIFT_DpT0_EEEIvJPcmEEEvEUlSE_mE_NS_9allocatorISF_EEFvSE_mEED1Ev
FNA:2,0,_ZNSt3__110__function12__alloc_funcIZNK7testing8internal11ThrowActionISt9exceptionEcvNS2_6ActionIFT_DpT0_EEEIvJPcmEEEvEUlSE_mE_NS_9allocatorISF_EEFvSE_mEED2Ev
FNL:3,151
FNA:3,3,_ZNKSt3__110__function12__alloc_funcI12check_customNS_9allocatorIS2_EEF11test_resultN3fmt3v1216basic_format_argINS7_7contextEE6handleEEE8__targetB8ne200100Ev
FNA:3,2,_ZNKSt3__110__function12__alloc_funcIN7testing6ActionIF11test_resultN3fmt3v1216basic_format_argINS6_7contextEE6handleEEE13ActionAdapterENS_9allocatorISD_EESB_E8__targetB8ne200100Ev
FNA:3,2,_ZNKSt3__110__function12__alloc_funcIN7testing6ActionIF11test_resultN3fmt3v1217basic_string_viewIcEEEE13ActionAdapterENS_9allocatorISB_EES9_E8__targetB8ne200100Ev
FNA:3,2,_ZNKSt3__110__function12__alloc_funcIN7testing6ActionIF11test_resultN3fmt3v129monostateEEE13ActionAdapterENS_9allocatorISA_EES8_E8__targetB8ne200100Ev
FNA:3,2,_ZNKSt3__110__function12__alloc_funcIN7testing6ActionIF11test_resultPKcEE13ActionAdapterENS_9allocatorIS9_EES7_E8__targetB8ne200100Ev
FNA:3,8,_ZNKSt3__110__function12__alloc_funcIN7testing6ActionIF11test_resultPKvEE13ActionAdapterENS_9allocatorIS9_EES7_E8__targetB8ne200100Ev
FNA:3,6,_ZNKSt3__110__function12__alloc_funcIN7testing6ActionIF11test_resultbEE13ActionAdapterENS_9allocatorIS7_EES5_E8__targetB8ne200100Ev
FNA:3,2,_ZNKSt3__110__function12__alloc_funcIN7testing6ActionIF11test_resultcEE13ActionAdapterENS_9allocatorIS7_EES5_E8__targetB8ne200100Ev
FNA:3,6,_ZNKSt3__110__function12__alloc_funcIN7testing6ActionIF11test_resultdEE13ActionAdapterENS_9allocatorIS7_EES5_E8__targetB8ne200100Ev
FNA:3,6,_ZNKSt3__110__function12__alloc_funcIN7testing6ActionIF11test_resulteEE13ActionAdapterENS_9allocatorIS7_EES5_E8__targetB8ne200100Ev
FNA:3,6,_ZNKSt3__110__function12__alloc_funcIN7testing6ActionIF11test_resultfEE13ActionAdapterENS_9allocatorIS7_EES5_E8__targetB8ne200100Ev
FNA:3,18,_ZNKSt3__110__function12__alloc_funcIN7testing6ActionIF11test_resultiEE13ActionAdapterENS_9allocatorIS7_EES5_E8__targetB8ne200100Ev
FNA:3,18,_ZNKSt3__110__function12__alloc_funcIN7testing6ActionIF11test_resultjEE13ActionAdapterENS_9allocatorIS7_EES5_E8__targetB8ne200100Ev
FNA:3,12,_ZNKSt3__110__function12__alloc_funcIN7testing6ActionIF11test_resultxEE13ActionAdapterENS_9allocatorIS7_EES5_E8__targetB8ne200100Ev
FNA:3,12,_ZNKSt3__110__function12__alloc_funcIN7testing6ActionIF11test_resultyEE13ActionAdapterENS_9allocatorIS7_EES5_E8__targetB8ne200100Ev
FNA:3,6,_ZNKSt3__110__function12__alloc_funcIN7testing6ActionIFPcmEE13ActionAdapterENS_9allocatorIS7_EES5_E8__targetB8ne200100Ev
FNA:3,8,_ZNKSt3__110__function12__alloc_funcIN7testing6ActionIFPimEE13ActionAdapterENS_9allocatorIS7_EES5_E8__targetB8ne200100Ev
FNA:3,6,_ZNKSt3__110__function12__alloc_funcIN7testing6ActionIFlPKvlEE13ActionAdapterENS_9allocatorIS8_EES6_E8__targetB8ne200100Ev
FNA:3,4,_ZNKSt3__110__function12__alloc_funcIN7testing6ActionIFmmEE13ActionAdapterENS_9allocatorIS6_EES4_E8__targetB8ne200100Ev
FNA:3,24,_ZNKSt3__110__function12__alloc_funcIZN11mock_bufferIcEC1EPcmEUlmE_NS_9allocatorIS5_EEFmmEE8__targetB8ne200100Ev
FNA:3,9,_ZNKSt3__110__function12__alloc_funcIZN11mock_bufferIiEC1EPimEUlmE_NS_9allocatorIS5_EEFmmEE8__targetB8ne200100Ev
FNA:3,3,_ZNKSt3__110__function12__alloc_funcIZN31buffer_test_append_partial_Test8TestBodyEvE3$_0NS_9allocatorIS3_EEFmmEE8__targetB8ne200100Ev
FNA:3,3,_ZNKSt3__110__function12__alloc_funcIZNK7testing8internal11ThrowActionISt9exceptionEcvNS2_6ActionIFT_DpT0_EEEIvJPcmEEEvEUlSE_mE_NS_9allocatorISF_EEFvSE_mEE8__targetB8ne200100Ev
FNL:4,154
FNA:4,3,_ZNKSt3__110__function12__alloc_funcI12check_customNS_9allocatorIS2_EEF11test_resultN3fmt3v1216basic_format_argINS7_7contextEE6handleEEE15__get_allocatorB8ne200100Ev
FNA:4,2,_ZNKSt3__110__function12__alloc_funcIN7testing6ActionIF11test_resultN3fmt3v1216basic_format_argINS6_7contextEE6handleEEE13ActionAdapterENS_9allocatorISD_EESB_E15__get_allocatorB8ne200100Ev
FNA:4,2,_ZNKSt3__110__function12__alloc_funcIN7testing6ActionIF11test_resultN3fmt3v1217basic_string_viewIcEEEE13ActionAdapterENS_9allocatorISB_EES9_E15__get_allocatorB8ne200100Ev
FNA:4,2,_ZNKSt3__110__function12__alloc_funcIN7testing6ActionIF11test_resultN3fmt3v129monostateEEE13ActionAdapterENS_9allocatorISA_EES8_E15__get_allocatorB8ne200100Ev
FNA:4,2,_ZNKSt3__110__function12__alloc_funcIN7testing6ActionIF11test_resultPKcEE13ActionAdapterENS_9allocatorIS9_EES7_E15__get_allocatorB8ne200100Ev
FNA:4,8,_ZNKSt3__110__function12__alloc_funcIN7testing6ActionIF11test_resultPKvEE13ActionAdapterENS_9allocatorIS9_EES7_E15__get_allocatorB8ne200100Ev
FNA:4,6,_ZNKSt3__110__function12__alloc_funcIN7testing6ActionIF11test_resultbEE13ActionAdapterENS_9allocatorIS7_EES5_E15__get_allocatorB8ne200100Ev
FNA:4,2,_ZNKSt3__110__function12__alloc_funcIN7testing6ActionIF11test_resultcEE13ActionAdapterENS_9allocatorIS7_EES5_E15__get_allocatorB8ne200100Ev
FNA:4,6,_ZNKSt3__110__function12__alloc_funcIN7testing6ActionIF11test_resultdEE13ActionAdapterENS_9allocatorIS7_EES5_E15__get_allocatorB8ne200100Ev
FNA:4,6,_ZNKSt3__110__function12__alloc_funcIN7testing6ActionIF11test_resulteEE13ActionAdapterENS_9allocatorIS7_EES5_E15__get_allocatorB8ne200100Ev
FNA:4,6,_ZNKSt3__110__function12__alloc_funcIN7testing6ActionIF11test_resultfEE13ActionAdapterENS_9allocatorIS7_EES5_E15__get_allocatorB8ne200100Ev
FNA:4,18,_ZNKSt3__110__function12__alloc_funcIN7testing6ActionIF11test_resultiEE13ActionAdapterENS_9allocatorIS7_EES5_E15__get_allocatorB8ne200100Ev
FNA:4,18,_ZNKSt3__110__function12__alloc_funcIN7testing6ActionIF11test_resultjEE13ActionAdapterENS_9allocatorIS7_EES5_E15__get_allocatorB8ne200100Ev
FNA:4,12,_ZNKSt3__110__function12__alloc_funcIN7testing6ActionIF11test_resultxEE13ActionAdapterENS_9allocatorIS7_EES5_E15__get_allocatorB8ne200100Ev
FNA:4,12,_ZNKSt3__110__function12__alloc_funcIN7testing6ActionIF11test_resultyEE13ActionAdapterENS_9allocatorIS7_EES5_E15__get_allocatorB8ne200100Ev
FNA:4,6,_ZNKSt3__110__function12__alloc_funcIN7testing6ActionIFPcmEE13ActionAdapterENS_9allocatorIS7_EES5_E15__get_allocatorB8ne200100Ev
FNA:4,8,_ZNKSt3__110__function12__alloc_funcIN7testing6ActionIFPimEE13ActionAdapterENS_9allocatorIS7_EES5_E15__get_allocatorB8ne200100Ev
FNA:4,6,_ZNKSt3__110__function12__alloc_funcIN7testing6ActionIFlPKvlEE13ActionAdapterENS_9allocatorIS8_EES6_E15__get_allocatorB8ne200100Ev
FNA:4,4,_ZNKSt3__110__function12__alloc_funcIN7testing6ActionIFmmEE13ActionAdapterENS_9allocatorIS6_EES4_E15__get_allocatorB8ne200100Ev
FNA:4,24,_ZNKSt3__110__function12__alloc_funcIZN11mock_bufferIcEC1EPcmEUlmE_NS_9allocatorIS5_EEFmmEE15__get_allocatorB8ne200100Ev
FNA:4,9,_ZNKSt3__110__function12__alloc_funcIZN11mock_bufferIiEC1EPimEUlmE_NS_9allocatorIS5_EEFmmEE15__get_allocatorB8ne200100Ev
FNA:4,3,_ZNKSt3__110__function12__alloc_funcIZN31buffer_test_append_partial_Test8TestBodyEvE3$_0NS_9allocatorIS3_EEFmmEE15__get_allocatorB8ne200100Ev
FNA:4,3,_ZNKSt3__110__function12__alloc_funcIZNK7testing8internal11ThrowActionISt9exceptionEcvNS2_6ActionIFT_DpT0_EEEIvJPcmEEEvEUlSE_mE_NS_9allocatorISF_EEFvSE_mEE15__get_allocatorB8ne200100Ev
FNL:5,158
FNA:5,3,_ZNSt3__110__function12__alloc_funcI12check_customNS_9allocatorIS2_EEF11test_resultN3fmt3v1216basic_format_argINS7_7contextEE6handleEEEC1B8ne200100ERKS2_RKS4_
FNA:5,3,_ZNSt3__110__function12__alloc_funcI12check_customNS_9allocatorIS2_EEF11test_resultN3fmt3v1216basic_format_argINS7_7contextEE6handleEEEC2B8ne200100ERKS2_RKS4_
FNA:5,2,_ZNSt3__110__function12__alloc_funcIN7testing6ActionIF11test_resultN3fmt3v1216basic_format_argINS6_7contextEE6handleEEE13ActionAdapterENS_9allocatorISD_EESB_EC1B8ne200100ERKSD_RKSF_
FNA:5,2,_ZNSt3__110__function12__alloc_funcIN7testing6ActionIF11test_resultN3fmt3v1216basic_format_argINS6_7contextEE6handleEEE13ActionAdapterENS_9allocatorISD_EESB_EC2B8ne200100ERKSD_RKSF_
FNA:5,2,_ZNSt3__110__function12__alloc_funcIN7testing6ActionIF11test_resultN3fmt3v1217basic_string_viewIcEEEE13ActionAdapterENS_9allocatorISB_EES9_EC1B8ne200100ERKSB_RKSD_
FNA:5,2,_ZNSt3__110__function12__alloc_funcIN7testing6ActionIF11test_resultN3fmt3v1217basic_string_viewIcEEEE13ActionAdapterENS_9allocatorISB_EES9_EC2B8ne200100ERKSB_RKSD_
FNA:5,2,_ZNSt3__110__function12__alloc_funcIN7testing6ActionIF11test_resultN3fmt3v129monostateEEE13ActionAdapterENS_9allocatorISA_EES8_EC1B8ne200100ERKSA_RKSC_
FNA:5,2,_ZNSt3__110__function12__alloc_funcIN7testing6ActionIF11test_resultN3fmt3v129monostateEEE13ActionAdapterENS_9allocatorISA_EES8_EC2B8ne200100ERKSA_RKSC_
FNA:5,2,_ZNSt3__110__function12__alloc_funcIN7testing6ActionIF11test_resultPKcEE13ActionAdapterENS_9allocatorIS9_EES7_EC1B8ne200100ERKS9_RKSB_
FNA:5,2,_ZNSt3__110__function12__alloc_funcIN7testing6ActionIF11test_resultPKcEE13ActionAdapterENS_9allocatorIS9_EES7_EC2B8ne200100ERKS9_RKSB_
FNA:5,8,_ZNSt3__110__function12__alloc_funcIN7testing6ActionIF11test_resultPKvEE13ActionAdapterENS_9allocatorIS9_EES7_EC1B8ne200100ERKS9_RKSB_
FNA:5,8,_ZNSt3__110__function12__alloc_funcIN7testing6ActionIF11test_resultPKvEE13ActionAdapterENS_9allocatorIS9_EES7_EC2B8ne200100ERKS9_RKSB_
FNA:5,6,_ZNSt3__110__function12__alloc_funcIN7testing6ActionIF11test_resultbEE13ActionAdapterENS_9allocatorIS7_EES5_EC1B8ne200100ERKS7_RKS9_
FNA:5,6,_ZNSt3__110__function12__alloc_funcIN7testing6ActionIF11test_resultbEE13ActionAdapterENS_9allocatorIS7_EES5_EC2B8ne200100ERKS7_RKS9_
FNA:5,2,_ZNSt3__110__function12__alloc_funcIN7testing6ActionIF11test_resultcEE13ActionAdapterENS_9allocatorIS7_EES5_EC1B8ne200100ERKS7_RKS9_
FNA:5,2,_ZNSt3__110__function12__alloc_funcIN7testing6ActionIF11test_resultcEE13ActionAdapterENS_9allocatorIS7_EES5_EC2B8ne200100ERKS7_RKS9_
FNA:5,6,_ZNSt3__110__function12__alloc_funcIN7testing6ActionIF11test_resultdEE13ActionAdapterENS_9allocatorIS7_EES5_EC1B8ne200100ERKS7_RKS9_
FNA:5,6,_ZNSt3__110__function12__alloc_funcIN7testing6ActionIF11test_resultdEE13ActionAdapterENS_9allocatorIS7_EES5_EC2B8ne200100ERKS7_RKS9_
FNA:5,6,_ZNSt3__110__function12__alloc_funcIN7testing6ActionIF11test_resulteEE13ActionAdapterENS_9allocatorIS7_EES5_EC1B8ne200100ERKS7_RKS9_
FNA:5,6,_ZNSt3__110__function12__alloc_funcIN7testing6ActionIF11test_resulteEE13ActionAdapterENS_9allocatorIS7_EES5_EC2B8ne200100ERKS7_RKS9_
FNA:5,6,_ZNSt3__110__function12__alloc_funcIN7testing6ActionIF11test_resultfEE13ActionAdapterENS_9allocatorIS7_EES5_EC1B8ne200100ERKS7_RKS9_
FNA:5,6,_ZNSt3__110__function12__alloc_funcIN7testing6ActionIF11test_resultfEE13ActionAdapterENS_9allocatorIS7_EES5_EC2B8ne200100ERKS7_RKS9_
FNA:5,18,_ZNSt3__110__function12__alloc_funcIN7testing6ActionIF11test_resultiEE13ActionAdapterENS_9allocatorIS7_EES5_EC1B8ne200100ERKS7_RKS9_
FNA:5,18,_ZNSt3__110__function12__alloc_funcIN7testing6ActionIF11test_resultiEE13ActionAdapterENS_9allocatorIS7_EES5_EC2B8ne200100ERKS7_RKS9_
FNA:5,18,_ZNSt3__110__function12__alloc_funcIN7testing6ActionIF11test_resultjEE13ActionAdapterENS_9allocatorIS7_EES5_EC1B8ne200100ERKS7_RKS9_
FNA:5,18,_ZNSt3__110__function12__alloc_funcIN7testing6ActionIF11test_resultjEE13ActionAdapterENS_9allocatorIS7_EES5_EC2B8ne200100ERKS7_RKS9_
FNA:5,12,_ZNSt3__110__function12__alloc_funcIN7testing6ActionIF11test_resultxEE13ActionAdapterENS_9allocatorIS7_EES5_EC1B8ne200100ERKS7_RKS9_
FNA:5,12,_ZNSt3__110__function12__alloc_funcIN7testing6ActionIF11test_resultxEE13ActionAdapterENS_9allocatorIS7_EES5_EC2B8ne200100ERKS7_RKS9_
FNA:5,12,_ZNSt3__110__function12__alloc_funcIN7testing6ActionIF11test_resultyEE13ActionAdapterENS_9allocatorIS7_EES5_EC1B8ne200100ERKS7_RKS9_
FNA:5,12,_ZNSt3__110__function12__alloc_funcIN7testing6ActionIF11test_resultyEE13ActionAdapterENS_9allocatorIS7_EES5_EC2B8ne200100ERKS7_RKS9_
FNA:5,6,_ZNSt3__110__function12__alloc_funcIN7testing6ActionIFPcmEE13ActionAdapterENS_9allocatorIS7_EES5_EC1B8ne200100ERKS7_RKS9_
FNA:5,6,_ZNSt3__110__function12__alloc_funcIN7testing6ActionIFPcmEE13ActionAdapterENS_9allocatorIS7_EES5_EC2B8ne200100ERKS7_RKS9_
FNA:5,8,_ZNSt3__110__function12__alloc_funcIN7testing6ActionIFPimEE13ActionAdapterENS_9allocatorIS7_EES5_EC1B8ne200100ERKS7_RKS9_
FNA:5,8,_ZNSt3__110__function12__alloc_funcIN7testing6ActionIFPimEE13ActionAdapterENS_9allocatorIS7_EES5_EC2B8ne200100ERKS7_RKS9_
FNA:5,6,_ZNSt3__110__function12__alloc_funcIN7testing6ActionIFlPKvlEE13ActionAdapterENS_9allocatorIS8_EES6_EC1B8ne200100ERKS8_RKSA_
FNA:5,6,_ZNSt3__110__function12__alloc_funcIN7testing6ActionIFlPKvlEE13ActionAdapterENS_9allocatorIS8_EES6_EC2B8ne200100ERKS8_RKSA_
FNA:5,4,_ZNSt3__110__function12__alloc_funcIN7testing6ActionIFmmEE13ActionAdapterENS_9allocatorIS6_EES4_EC1B8ne200100ERKS6_RKS8_
FNA:5,4,_ZNSt3__110__function12__alloc_funcIN7testing6ActionIFmmEE13ActionAdapterENS_9allocatorIS6_EES4_EC2B8ne200100ERKS6_RKS8_
FNA:5,24,_ZNSt3__110__function12__alloc_funcIZN11mock_bufferIcEC1EPcmEUlmE_NS_9allocatorIS5_EEFmmEEC1B8ne200100ERKS5_RKS7_
FNA:5,24,_ZNSt3__110__function12__alloc_funcIZN11mock_bufferIcEC1EPcmEUlmE_NS_9allocatorIS5_EEFmmEEC2B8ne200100ERKS5_RKS7_
FNA:5,9,_ZNSt3__110__function12__alloc_funcIZN11mock_bufferIiEC1EPimEUlmE_NS_9allocatorIS5_EEFmmEEC1B8ne200100ERKS5_RKS7_
FNA:5,9,_ZNSt3__110__function12__alloc_funcIZN11mock_bufferIiEC1EPimEUlmE_NS_9allocatorIS5_EEFmmEEC2B8ne200100ERKS5_RKS7_
FNA:5,3,_ZNSt3__110__function12__alloc_funcIZN31buffer_test_append_partial_Test8TestBodyEvE3$_0NS_9allocatorIS3_EEFmmEEC1B8ne200100ERKS3_RKS5_
FNA:5,3,_ZNSt3__110__function12__alloc_funcIZN31buffer_test_append_partial_Test8TestBodyEvE3$_0NS_9allocatorIS3_EEFmmEEC2B8ne200100ERKS3_RKS5_
FNA:5,3,_ZNSt3__110__function12__alloc_funcIZNK7testing8internal11ThrowActionISt9exceptionEcvNS2_6ActionIFT_DpT0_EEEIvJPcmEEEvEUlSE_mE_NS_9allocatorISF_EEFvSE_mEEC1B8ne200100ERKSF_RKSH_
FNA:5,3,_ZNSt3__110__function12__alloc_funcIZNK7testing8internal11ThrowActionISt9exceptionEcvNS2_6ActionIFT_DpT0_EEEIvJPcmEEEvEUlSE_mE_NS_9allocatorISF_EEFvSE_mEEC2B8ne200100ERKSF_RKSH_
FNL:6,160
FNA:6,0,_ZNSt3__110__function12__alloc_funcI12check_customNS_9allocatorIS2_EEF11test_resultN3fmt3v1216basic_format_argINS7_7contextEE6handleEEEC1B8ne200100ERKS2_OS4_
FNA:6,0,_ZNSt3__110__function12__alloc_funcI12check_customNS_9allocatorIS2_EEF11test_resultN3fmt3v1216basic_format_argINS7_7contextEE6handleEEEC2B8ne200100ERKS2_OS4_
FNA:6,0,_ZNSt3__110__function12__alloc_funcIN7testing6ActionIF11test_resultN3fmt3v1216basic_format_argINS6_7contextEE6handleEEE13ActionAdapterENS_9allocatorISD_EESB_EC1B8ne200100ERKSD_OSF_
FNA:6,0,_ZNSt3__110__function12__alloc_funcIN7testing6ActionIF11test_resultN3fmt3v1216basic_format_argINS6_7contextEE6handleEEE13ActionAdapterENS_9allocatorISD_EESB_EC2B8ne200100ERKSD_OSF_
FNA:6,0,_ZNSt3__110__function12__alloc_funcIN7testing6ActionIF11test_resultN3fmt3v1217basic_string_viewIcEEEE13ActionAdapterENS_9allocatorISB_EES9_EC1B8ne200100ERKSB_OSD_
FNA:6,0,_ZNSt3__110__function12__alloc_funcIN7testing6ActionIF11test_resultN3fmt3v1217basic_string_viewIcEEEE13ActionAdapterENS_9allocatorISB_EES9_EC2B8ne200100ERKSB_OSD_
FNA:6,0,_ZNSt3__110__function12__alloc_funcIN7testing6ActionIF11test_resultN3fmt3v129monostateEEE13ActionAdapterENS_9allocatorISA_EES8_EC1B8ne200100ERKSA_OSC_
FNA:6,0,_ZNSt3__110__function12__alloc_funcIN7testing6ActionIF11test_resultN3fmt3v129monostateEEE13ActionAdapterENS_9allocatorISA_EES8_EC2B8ne200100ERKSA_OSC_
FNA:6,0,_ZNSt3__110__function12__alloc_funcIN7testing6ActionIF11test_resultPKcEE13ActionAdapterENS_9allocatorIS9_EES7_EC1B8ne200100ERKS9_OSB_
FNA:6,0,_ZNSt3__110__function12__alloc_funcIN7testing6ActionIF11test_resultPKcEE13ActionAdapterENS_9allocatorIS9_EES7_EC2B8ne200100ERKS9_OSB_
FNA:6,0,_ZNSt3__110__function12__alloc_funcIN7testing6ActionIF11test_resultPKvEE13ActionAdapterENS_9allocatorIS9_EES7_EC1B8ne200100ERKS9_OSB_
FNA:6,0,_ZNSt3__110__function12__alloc_funcIN7testing6ActionIF11test_resultPKvEE13ActionAdapterENS_9allocatorIS9_EES7_EC2B8ne200100ERKS9_OSB_
FNA:6,0,_ZNSt3__110__function12__alloc_funcIN7testing6ActionIF11test_resultbEE13ActionAdapterENS_9allocatorIS7_EES5_EC1B8ne200100ERKS7_OS9_
FNA:6,0,_ZNSt3__110__function12__alloc_funcIN7testing6ActionIF11test_resultbEE13ActionAdapterENS_9allocatorIS7_EES5_EC2B8ne200100ERKS7_OS9_
FNA:6,0,_ZNSt3__110__function12__alloc_funcIN7testing6ActionIF11test_resultcEE13ActionAdapterENS_9allocatorIS7_EES5_EC1B8ne200100ERKS7_OS9_
FNA:6,0,_ZNSt3__110__function12__alloc_funcIN7testing6ActionIF11test_resultcEE13ActionAdapterENS_9allocatorIS7_EES5_EC2B8ne200100ERKS7_OS9_
FNA:6,0,_ZNSt3__110__function12__alloc_funcIN7testing6ActionIF11test_resultdEE13ActionAdapterENS_9allocatorIS7_EES5_EC1B8ne200100ERKS7_OS9_
FNA:6,0,_ZNSt3__110__function12__alloc_funcIN7testing6ActionIF11test_resultdEE13ActionAdapterENS_9allocatorIS7_EES5_EC2B8ne200100ERKS7_OS9_
FNA:6,0,_ZNSt3__110__function12__alloc_funcIN7testing6ActionIF11test_resulteEE13ActionAdapterENS_9allocatorIS7_EES5_EC1B8ne200100ERKS7_OS9_
FNA:6,0,_ZNSt3__110__function12__alloc_funcIN7testing6ActionIF11test_resulteEE13ActionAdapterENS_9allocatorIS7_EES5_EC2B8ne200100ERKS7_OS9_
FNA:6,0,_ZNSt3__110__function12__alloc_funcIN7testing6ActionIF11test_resultfEE13ActionAdapterENS_9allocatorIS7_EES5_EC1B8ne200100ERKS7_OS9_
FNA:6,0,_ZNSt3__110__function12__alloc_funcIN7testing6ActionIF11test_resultfEE13ActionAdapterENS_9allocatorIS7_EES5_EC2B8ne200100ERKS7_OS9_
FNA:6,0,_ZNSt3__110__function12__alloc_funcIN7testing6ActionIF11test_resultiEE13ActionAdapterENS_9allocatorIS7_EES5_EC1B8ne200100ERKS7_OS9_
FNA:6,0,_ZNSt3__110__function12__alloc_funcIN7testing6ActionIF11test_resultiEE13ActionAdapterENS_9allocatorIS7_EES5_EC2B8ne200100ERKS7_OS9_
FNA:6,0,_ZNSt3__110__function12__alloc_funcIN7testing6ActionIF11test_resultjEE13ActionAdapterENS_9allocatorIS7_EES5_EC1B8ne200100ERKS7_OS9_
FNA:6,0,_ZNSt3__110__function12__alloc_funcIN7testing6ActionIF11test_resultjEE13ActionAdapterENS_9allocatorIS7_EES5_EC2B8ne200100ERKS7_OS9_
FNA:6,0,_ZNSt3__110__function12__alloc_funcIN7testing6ActionIF11test_resultxEE13ActionAdapterENS_9allocatorIS7_EES5_EC1B8ne200100ERKS7_OS9_
FNA:6,0,_ZNSt3__110__function12__alloc_funcIN7testing6ActionIF11test_resultxEE13ActionAdapterENS_9allocatorIS7_EES5_EC2B8ne200100ERKS7_OS9_
FNA:6,0,_ZNSt3__110__function12__alloc_funcIN7testing6ActionIF11test_resultyEE13ActionAdapterENS_9allocatorIS7_EES5_EC1B8ne200100ERKS7_OS9_
FNA:6,0,_ZNSt3__110__function12__alloc_funcIN7testing6ActionIF11test_resultyEE13ActionAdapterENS_9allocatorIS7_EES5_EC2B8ne200100ERKS7_OS9_
FNA:6,0,_ZNSt3__110__function12__alloc_funcIN7testing6ActionIFPcmEE13ActionAdapterENS_9allocatorIS7_EES5_EC1B8ne200100ERKS7_OS9_
FNA:6,0,_ZNSt3__110__function12__alloc_funcIN7testing6ActionIFPcmEE13ActionAdapterENS_9allocatorIS7_EES5_EC2B8ne200100ERKS7_OS9_
FNA:6,0,_ZNSt3__110__function12__alloc_funcIN7testing6ActionIFPimEE13ActionAdapterENS_9allocatorIS7_EES5_EC1B8ne200100ERKS7_OS9_
FNA:6,0,_ZNSt3__110__function12__alloc_funcIN7testing6ActionIFPimEE13ActionAdapterENS_9allocatorIS7_EES5_EC2B8ne200100ERKS7_OS9_
FNA:6,0,_ZNSt3__110__function12__alloc_funcIN7testing6ActionIFlPKvlEE13ActionAdapterENS_9allocatorIS8_EES6_EC1B8ne200100ERKS8_OSA_
FNA:6,0,_ZNSt3__110__function12__alloc_funcIN7testing6ActionIFlPKvlEE13ActionAdapterENS_9allocatorIS8_EES6_EC2B8ne200100ERKS8_OSA_
FNA:6,0,_ZNSt3__110__function12__alloc_funcIN7testing6ActionIFmmEE13ActionAdapterENS_9allocatorIS6_EES4_EC1B8ne200100ERKS6_OS8_
FNA:6,0,_ZNSt3__110__function12__alloc_funcIN7testing6ActionIFmmEE13ActionAdapterENS_9allocatorIS6_EES4_EC2B8ne200100ERKS6_OS8_
FNA:6,0,_ZNSt3__110__function12__alloc_funcIZN11mock_bufferIcEC1EPcmEUlmE_NS_9allocatorIS5_EEFmmEEC1B8ne200100ERKS5_OS7_
FNA:6,0,_ZNSt3__110__function12__alloc_funcIZN11mock_bufferIcEC1EPcmEUlmE_NS_9allocatorIS5_EEFmmEEC2B8ne200100ERKS5_OS7_
FNA:6,0,_ZNSt3__110__function12__alloc_funcIZN11mock_bufferIiEC1EPimEUlmE_NS_9allocatorIS5_EEFmmEEC1B8ne200100ERKS5_OS7_
FNA:6,0,_ZNSt3__110__function12__alloc_funcIZN11mock_bufferIiEC1EPimEUlmE_NS_9allocatorIS5_EEFmmEEC2B8ne200100ERKS5_OS7_
FNA:6,0,_ZNSt3__110__function12__alloc_funcIZN31buffer_test_append_partial_Test8TestBodyEvE3$_0NS_9allocatorIS3_EEFmmEEC1B8ne200100ERKS3_OS5_
FNA:6,0,_ZNSt3__110__function12__alloc_funcIZN31buffer_test_append_partial_Test8TestBodyEvE3$_0NS_9allocatorIS3_EEFmmEEC2B8ne200100ERKS3_OS5_
FNA:6,0,_ZNSt3__110__function12__alloc_funcIZNK7testing8internal11ThrowActionISt9exceptionEcvNS2_6ActionIFT_DpT0_EEEIvJPcmEEEvEUlSE_mE_NS_9allocatorISF_EEFvSE_mEEC1B8ne200100ERKSF_OSH_
FNA:6,0,_ZNSt3__110__function12__alloc_funcIZNK7testing8internal11ThrowActionISt9exceptionEcvNS2_6ActionIFT_DpT0_EEEIvJPcmEEEvEUlSE_mE_NS_9allocatorISF_EEFvSE_mEEC2B8ne200100ERKSF_OSH_
FNL:7,163
FNA:7,1,_ZNSt3__110__function12__alloc_funcI12check_customNS_9allocatorIS2_EEF11test_resultN3fmt3v1216basic_format_argINS7_7contextEE6handleEEEC1B8ne200100EOS2_OS4_
FNA:7,1,_ZNSt3__110__function12__alloc_funcI12check_customNS_9allocatorIS2_EEF11test_resultN3fmt3v1216basic_format_argINS7_7contextEE6handleEEEC2B8ne200100EOS2_OS4_
FNA:7,1,_ZNSt3__110__function12__alloc_funcIN7testing6ActionIF11test_resultN3fmt3v1216basic_format_argINS6_7contextEE6handleEEE13ActionAdapterENS_9allocatorISD_EESB_EC1B8ne200100EOSD_OSF_
FNA:7,1,_ZNSt3__110__function12__alloc_funcIN7testing6ActionIF11test_resultN3fmt3v1216basic_format_argINS6_7contextEE6handleEEE13ActionAdapterENS_9allocatorISD_EESB_EC2B8ne200100EOSD_OSF_
FNA:7,1,_ZNSt3__110__function12__alloc_funcIN7testing6ActionIF11test_resultN3fmt3v1217basic_string_viewIcEEEE13ActionAdapterENS_9allocatorISB_EES9_EC1B8ne200100EOSB_OSD_
FNA:7,1,_ZNSt3__110__function12__alloc_funcIN7testing6ActionIF11test_resultN3fmt3v1217basic_string_viewIcEEEE13ActionAdapterENS_9allocatorISB_EES9_EC2B8ne200100EOSB_OSD_
FNA:7,1,_ZNSt3__110__function12__alloc_funcIN7testing6ActionIF11test_resultN3fmt3v129monostateEEE13ActionAdapterENS_9allocatorISA_EES8_EC1B8ne200100EOSA_OSC_
FNA:7,1,_ZNSt3__110__function12__alloc_funcIN7testing6ActionIF11test_resultN3fmt3v129monostateEEE13ActionAdapterENS_9allocatorISA_EES8_EC2B8ne200100EOSA_OSC_
FNA:7,1,_ZNSt3__110__function12__alloc_funcIN7testing6ActionIF11test_resultPKcEE13ActionAdapterENS_9allocatorIS9_EES7_EC1B8ne200100EOS9_OSB_
FNA:7,1,_ZNSt3__110__function12__alloc_funcIN7testing6ActionIF11test_resultPKcEE13ActionAdapterENS_9allocatorIS9_EES7_EC2B8ne200100EOS9_OSB_
FNA:7,4,_ZNSt3__110__function12__alloc_funcIN7testing6ActionIF11test_resultPKvEE13ActionAdapterENS_9allocatorIS9_EES7_EC1B8ne200100EOS9_OSB_
FNA:7,4,_ZNSt3__110__function12__alloc_funcIN7testing6ActionIF11test_resultPKvEE13ActionAdapterENS_9allocatorIS9_EES7_EC2B8ne200100EOS9_OSB_
FNA:7,3,_ZNSt3__110__function12__alloc_funcIN7testing6ActionIF11test_resultbEE13ActionAdapterENS_9allocatorIS7_EES5_EC1B8ne200100EOS7_OS9_
FNA:7,3,_ZNSt3__110__function12__alloc_funcIN7testing6ActionIF11test_resultbEE13ActionAdapterENS_9allocatorIS7_EES5_EC2B8ne200100EOS7_OS9_
FNA:7,1,_ZNSt3__110__function12__alloc_funcIN7testing6ActionIF11test_resultcEE13ActionAdapterENS_9allocatorIS7_EES5_EC1B8ne200100EOS7_OS9_
FNA:7,1,_ZNSt3__110__function12__alloc_funcIN7testing6ActionIF11test_resultcEE13ActionAdapterENS_9allocatorIS7_EES5_EC2B8ne200100EOS7_OS9_
FNA:7,3,_ZNSt3__110__function12__alloc_funcIN7testing6ActionIF11test_resultdEE13ActionAdapterENS_9allocatorIS7_EES5_EC1B8ne200100EOS7_OS9_
FNA:7,3,_ZNSt3__110__function12__alloc_funcIN7testing6ActionIF11test_resultdEE13ActionAdapterENS_9allocatorIS7_EES5_EC2B8ne200100EOS7_OS9_
FNA:7,3,_ZNSt3__110__function12__alloc_funcIN7testing6ActionIF11test_resulteEE13ActionAdapterENS_9allocatorIS7_EES5_EC1B8ne200100EOS7_OS9_
FNA:7,3,_ZNSt3__110__function12__alloc_funcIN7testing6ActionIF11test_resulteEE13ActionAdapterENS_9allocatorIS7_EES5_EC2B8ne200100EOS7_OS9_
FNA:7,3,_ZNSt3__110__function12__alloc_funcIN7testing6ActionIF11test_resultfEE13ActionAdapterENS_9allocatorIS7_EES5_EC1B8ne200100EOS7_OS9_
FNA:7,3,_ZNSt3__110__function12__alloc_funcIN7testing6ActionIF11test_resultfEE13ActionAdapterENS_9allocatorIS7_EES5_EC2B8ne200100EOS7_OS9_
FNA:7,9,_ZNSt3__110__function12__alloc_funcIN7testing6ActionIF11test_resultiEE13ActionAdapterENS_9allocatorIS7_EES5_EC1B8ne200100EOS7_OS9_
FNA:7,9,_ZNSt3__110__function12__alloc_funcIN7testing6ActionIF11test_resultiEE13ActionAdapterENS_9allocatorIS7_EES5_EC2B8ne200100EOS7_OS9_
FNA:7,9,_ZNSt3__110__function12__alloc_funcIN7testing6ActionIF11test_resultjEE13ActionAdapterENS_9allocatorIS7_EES5_EC1B8ne200100EOS7_OS9_
FNA:7,9,_ZNSt3__110__function12__alloc_funcIN7testing6ActionIF11test_resultjEE13ActionAdapterENS_9allocatorIS7_EES5_EC2B8ne200100EOS7_OS9_
FNA:7,6,_ZNSt3__110__function12__alloc_funcIN7testing6ActionIF11test_resultxEE13ActionAdapterENS_9allocatorIS7_EES5_EC1B8ne200100EOS7_OS9_
FNA:7,6,_ZNSt3__110__function12__alloc_funcIN7testing6ActionIF11test_resultxEE13ActionAdapterENS_9allocatorIS7_EES5_EC2B8ne200100EOS7_OS9_
FNA:7,6,_ZNSt3__110__function12__alloc_funcIN7testing6ActionIF11test_resultyEE13ActionAdapterENS_9allocatorIS7_EES5_EC1B8ne200100EOS7_OS9_
FNA:7,6,_ZNSt3__110__function12__alloc_funcIN7testing6ActionIF11test_resultyEE13ActionAdapterENS_9allocatorIS7_EES5_EC2B8ne200100EOS7_OS9_
FNA:7,3,_ZNSt3__110__function12__alloc_funcIN7testing6ActionIFPcmEE13ActionAdapterENS_9allocatorIS7_EES5_EC1B8ne200100EOS7_OS9_
FNA:7,3,_ZNSt3__110__function12__alloc_funcIN7testing6ActionIFPcmEE13ActionAdapterENS_9allocatorIS7_EES5_EC2B8ne200100EOS7_OS9_
FNA:7,4,_ZNSt3__110__function12__alloc_funcIN7testing6ActionIFPimEE13ActionAdapterENS_9allocatorIS7_EES5_EC1B8ne200100EOS7_OS9_
FNA:7,4,_ZNSt3__110__function12__alloc_funcIN7testing6ActionIFPimEE13ActionAdapterENS_9allocatorIS7_EES5_EC2B8ne200100EOS7_OS9_
FNA:7,3,_ZNSt3__110__function12__alloc_funcIN7testing6ActionIFlPKvlEE13ActionAdapterENS_9allocatorIS8_EES6_EC1B8ne200100EOS8_OSA_
FNA:7,3,_ZNSt3__110__function12__alloc_funcIN7testing6ActionIFlPKvlEE13ActionAdapterENS_9allocatorIS8_EES6_EC2B8ne200100EOS8_OSA_
FNA:7,2,_ZNSt3__110__function12__alloc_funcIN7testing6ActionIFmmEE13ActionAdapterENS_9allocatorIS6_EES4_EC1B8ne200100EOS6_OS8_
FNA:7,2,_ZNSt3__110__function12__alloc_funcIN7testing6ActionIFmmEE13ActionAdapterENS_9allocatorIS6_EES4_EC2B8ne200100EOS6_OS8_
FNA:7,8,_ZNSt3__110__function12__alloc_funcIZN11mock_bufferIcEC1EPcmEUlmE_NS_9allocatorIS5_EEFmmEEC1B8ne200100EOS5_OS7_
FNA:7,8,_ZNSt3__110__function12__alloc_funcIZN11mock_bufferIcEC1EPcmEUlmE_NS_9allocatorIS5_EEFmmEEC2B8ne200100EOS5_OS7_
FNA:7,3,_ZNSt3__110__function12__alloc_funcIZN11mock_bufferIiEC1EPimEUlmE_NS_9allocatorIS5_EEFmmEEC1B8ne200100EOS5_OS7_
FNA:7,3,_ZNSt3__110__function12__alloc_funcIZN11mock_bufferIiEC1EPimEUlmE_NS_9allocatorIS5_EEFmmEEC2B8ne200100EOS5_OS7_
FNA:7,1,_ZNSt3__110__function12__alloc_funcIZN31buffer_test_append_partial_Test8TestBodyEvE3$_0NS_9allocatorIS3_EEFmmEEC1B8ne200100EOS3_OS5_
FNA:7,1,_ZNSt3__110__function12__alloc_funcIZN31buffer_test_append_partial_Test8TestBodyEvE3$_0NS_9allocatorIS3_EEFmmEEC2B8ne200100EOS3_OS5_
FNA:7,1,_ZNSt3__110__function12__alloc_funcIZNK7testing8internal11ThrowActionISt9exceptionEcvNS2_6ActionIFT_DpT0_EEEIvJPcmEEEvEUlSE_mE_NS_9allocatorISF_EEFvSE_mEEC1B8ne200100EOSF_OSH_
FNA:7,1,_ZNSt3__110__function12__alloc_funcIZNK7testing8internal11ThrowActionISt9exceptionEcvNS2_6ActionIFT_DpT0_EEEIvJPcmEEEvEUlSE_mE_NS_9allocatorISF_EEFvSE_mEEC2B8ne200100EOSF_OSH_
FNL:8,166
FNA:8,1,_ZNSt3__110__function12__alloc_funcI12check_customNS_9allocatorIS2_EEF11test_resultN3fmt3v1216basic_format_argINS7_7contextEE6handleEEEclB8ne200100EOSB_
FNA:8,0,_ZNSt3__110__function12__alloc_funcIN7testing6ActionIF11test_resultN3fmt3v1216basic_format_argINS6_7contextEE6handleEEE13ActionAdapterENS_9allocatorISD_EESB_EclB8ne200100EOSA_
FNA:8,1,_ZNSt3__110__function12__alloc_funcIN7testing6ActionIF11test_resultN3fmt3v1217basic_string_viewIcEEEE13ActionAdapterENS_9allocatorISB_EES9_EclB8ne200100EOS8_
FNA:8,1,_ZNSt3__110__function12__alloc_funcIN7testing6ActionIF11test_resultN3fmt3v129monostateEEE13ActionAdapterENS_9allocatorISA_EES8_EclB8ne200100EOS7_
FNA:8,1,_ZNSt3__110__function12__alloc_funcIN7testing6ActionIF11test_resultPKcEE13ActionAdapterENS_9allocatorIS9_EES7_EclB8ne200100EOS6_
FNA:8,4,_ZNSt3__110__function12__alloc_funcIN7testing6ActionIF11test_resultPKvEE13ActionAdapterENS_9allocatorIS9_EES7_EclB8ne200100EOS6_
FNA:8,3,_ZNSt3__110__function12__alloc_funcIN7testing6ActionIF11test_resultbEE13ActionAdapterENS_9allocatorIS7_EES5_EclB8ne200100EOb
FNA:8,1,_ZNSt3__110__function12__alloc_funcIN7testing6ActionIF11test_resultcEE13ActionAdapterENS_9allocatorIS7_EES5_EclB8ne200100EOc
FNA:8,3,_ZNSt3__110__function12__alloc_funcIN7testing6ActionIF11test_resultdEE13ActionAdapterENS_9allocatorIS7_EES5_EclB8ne200100EOd
FNA:8,3,_ZNSt3__110__function12__alloc_funcIN7testing6ActionIF11test_resulteEE13ActionAdapterENS_9allocatorIS7_EES5_EclB8ne200100EOe
FNA:8,3,_ZNSt3__110__function12__alloc_funcIN7testing6ActionIF11test_resultfEE13ActionAdapterENS_9allocatorIS7_EES5_EclB8ne200100EOf
FNA:8,9,_ZNSt3__110__function12__alloc_funcIN7testing6ActionIF11test_resultiEE13ActionAdapterENS_9allocatorIS7_EES5_EclB8ne200100EOi
FNA:8,9,_ZNSt3__110__function12__alloc_funcIN7testing6ActionIF11test_resultjEE13ActionAdapterENS_9allocatorIS7_EES5_EclB8ne200100EOj
FNA:8,6,_ZNSt3__110__function12__alloc_funcIN7testing6ActionIF11test_resultxEE13ActionAdapterENS_9allocatorIS7_EES5_EclB8ne200100EOx
FNA:8,6,_ZNSt3__110__function12__alloc_funcIN7testing6ActionIF11test_resultyEE13ActionAdapterENS_9allocatorIS7_EES5_EclB8ne200100EOy
FNA:8,3,_ZNSt3__110__function12__alloc_funcIN7testing6ActionIFPcmEE13ActionAdapterENS_9allocatorIS7_EES5_EclB8ne200100EOm
FNA:8,4,_ZNSt3__110__function12__alloc_funcIN7testing6ActionIFPimEE13ActionAdapterENS_9allocatorIS7_EES5_EclB8ne200100EOm
FNA:8,3,_ZNSt3__110__function12__alloc_funcIN7testing6ActionIFlPKvlEE13ActionAdapterENS_9allocatorIS8_EES6_EclB8ne200100EOS5_Ol
FNA:8,2,_ZNSt3__110__function12__alloc_funcIN7testing6ActionIFmmEE13ActionAdapterENS_9allocatorIS6_EES4_EclB8ne200100EOm
FNA:8,5,_ZNSt3__110__function12__alloc_funcIZN11mock_bufferIcEC1EPcmEUlmE_NS_9allocatorIS5_EEFmmEEclB8ne200100EOm
FNA:8,0,_ZNSt3__110__function12__alloc_funcIZN11mock_bufferIiEC1EPimEUlmE_NS_9allocatorIS5_EEFmmEEclB8ne200100EOm
FNA:8,1,_ZNSt3__110__function12__alloc_funcIZN31buffer_test_append_partial_Test8TestBodyEvE3$_0NS_9allocatorIS3_EEFmmEEclB8ne200100EOm
FNA:8,1,_ZNSt3__110__function12__alloc_funcIZNK7testing8internal11ThrowActionISt9exceptionEcvNS2_6ActionIFT_DpT0_EEEIvJPcmEEEvEUlSE_mE_NS_9allocatorISF_EEFvSE_mEEclB8ne200100EOSE_Om
FNL:9,180
FNA:9,4,_ZNSt3__110__function12__alloc_funcI12check_customNS_9allocatorIS2_EEF11test_resultN3fmt3v1216basic_format_argINS7_7contextEE6handleEEE7destroyB8ne200100Ev
FNA:9,3,_ZNSt3__110__function12__alloc_funcIN7testing6ActionIF11test_resultN3fmt3v1216basic_format_argINS6_7contextEE6handleEEE13ActionAdapterENS_9allocatorISD_EESB_E7destroyB8ne200100Ev
FNA:9,3,_ZNSt3__110__function12__alloc_funcIN7testing6ActionIF11test_resultN3fmt3v1217basic_string_viewIcEEEE13ActionAdapterENS_9allocatorISB_EES9_E7destroyB8ne200100Ev
FNA:9,3,_ZNSt3__110__function12__alloc_funcIN7testing6ActionIF11test_resultN3fmt3v129monostateEEE13ActionAdapterENS_9allocatorISA_EES8_E7destroyB8ne200100Ev
FNA:9,3,_ZNSt3__110__function12__alloc_funcIN7testing6ActionIF11test_resultPKcEE13ActionAdapterENS_9allocatorIS9_EES7_E7destroyB8ne200100Ev
FNA:9,12,_ZNSt3__110__function12__alloc_funcIN7testing6ActionIF11test_resultPKvEE13ActionAdapterENS_9allocatorIS9_EES7_E7destroyB8ne200100Ev
FNA:9,9,_ZNSt3__110__function12__alloc_funcIN7testing6ActionIF11test_resultbEE13ActionAdapterENS_9allocatorIS7_EES5_E7destroyB8ne200100Ev
FNA:9,3,_ZNSt3__110__function12__alloc_funcIN7testing6ActionIF11test_resultcEE13ActionAdapterENS_9allocatorIS7_EES5_E7destroyB8ne200100Ev
FNA:9,9,_ZNSt3__110__function12__alloc_funcIN7testing6ActionIF11test_resultdEE13ActionAdapterENS_9allocatorIS7_EES5_E7destroyB8ne200100Ev
FNA:9,9,_ZNSt3__110__function12__alloc_funcIN7testing6ActionIF11test_resulteEE13ActionAdapterENS_9allocatorIS7_EES5_E7destroyB8ne200100Ev
FNA:9,9,_ZNSt3__110__function12__alloc_funcIN7testing6ActionIF11test_resultfEE13ActionAdapterENS_9allocatorIS7_EES5_E7destroyB8ne200100Ev
FNA:9,27,_ZNSt3__110__function12__alloc_funcIN7testing6ActionIF11test_resultiEE13ActionAdapterENS_9allocatorIS7_EES5_E7destroyB8ne200100Ev
FNA:9,27,_ZNSt3__110__function12__alloc_funcIN7testing6ActionIF11test_resultjEE13ActionAdapterENS_9allocatorIS7_EES5_E7destroyB8ne200100Ev
FNA:9,18,_ZNSt3__110__function12__alloc_funcIN7testing6ActionIF11test_resultxEE13ActionAdapterENS_9allocatorIS7_EES5_E7destroyB8ne200100Ev
FNA:9,18,_ZNSt3__110__function12__alloc_funcIN7testing6ActionIF11test_resultyEE13ActionAdapterENS_9allocatorIS7_EES5_E7destroyB8ne200100Ev
FNA:9,9,_ZNSt3__110__function12__alloc_funcIN7testing6ActionIFPcmEE13ActionAdapterENS_9allocatorIS7_EES5_E7destroyB8ne200100Ev
FNA:9,12,_ZNSt3__110__function12__alloc_funcIN7testing6ActionIFPimEE13ActionAdapterENS_9allocatorIS7_EES5_E7destroyB8ne200100Ev
FNA:9,9,_ZNSt3__110__function12__alloc_funcIN7testing6ActionIFlPKvlEE13ActionAdapterENS_9allocatorIS8_EES6_E7destroyB8ne200100Ev
FNA:9,6,_ZNSt3__110__function12__alloc_funcIN7testing6ActionIFmmEE13ActionAdapterENS_9allocatorIS6_EES4_E7destroyB8ne200100Ev
FNA:9,32,_ZNSt3__110__function12__alloc_funcIZN11mock_bufferIcEC1EPcmEUlmE_NS_9allocatorIS5_EEFmmEE7destroyB8ne200100Ev
FNA:9,12,_ZNSt3__110__function12__alloc_funcIZN11mock_bufferIiEC1EPimEUlmE_NS_9allocatorIS5_EEFmmEE7destroyB8ne200100Ev
FNA:9,4,_ZNSt3__110__function12__alloc_funcIZN31buffer_test_append_partial_Test8TestBodyEvE3$_0NS_9allocatorIS3_EEFmmEE7destroyB8ne200100Ev
FNA:9,4,_ZNSt3__110__function12__alloc_funcIZNK7testing8internal11ThrowActionISt9exceptionEcvNS2_6ActionIFT_DpT0_EEEIvJPcmEEEvEUlSE_mE_NS_9allocatorISF_EEFvSE_mEE7destroyB8ne200100Ev
FNL:10,245
FNA:10,7,_ZNSt3__110__function6__baseIF11test_resultN3fmt3v1216basic_format_argINS4_7contextEE6handleEEEC2B8ne200100Ev
FNA:10,3,_ZNSt3__110__function6__baseIF11test_resultN3fmt3v1217basic_string_viewIcEEEEC2B8ne200100Ev
FNA:10,3,_ZNSt3__110__function6__baseIF11test_resultN3fmt3v129monostateEEEC2B8ne200100Ev
FNA:10,3,_ZNSt3__110__function6__baseIF11test_resultPKcEEC2B8ne200100Ev
FNA:10,12,_ZNSt3__110__function6__baseIF11test_resultPKvEEC2B8ne200100Ev
FNA:10,9,_ZNSt3__110__function6__baseIF11test_resultbEEC2B8ne200100Ev
FNA:10,3,_ZNSt3__110__function6__baseIF11test_resultcEEC2B8ne200100Ev
FNA:10,9,_ZNSt3__110__function6__baseIF11test_resultdEEC2B8ne200100Ev
FNA:10,9,_ZNSt3__110__function6__baseIF11test_resulteEEC2B8ne200100Ev
FNA:10,9,_ZNSt3__110__function6__baseIF11test_resultfEEC2B8ne200100Ev
FNA:10,27,_ZNSt3__110__function6__baseIF11test_resultiEEC2B8ne200100Ev
FNA:10,27,_ZNSt3__110__function6__baseIF11test_resultjEEC2B8ne200100Ev
FNA:10,18,_ZNSt3__110__function6__baseIF11test_resultxEEC2B8ne200100Ev
FNA:10,18,_ZNSt3__110__function6__baseIF11test_resultyEEC2B8ne200100Ev
FNA:10,9,_ZNSt3__110__function6__baseIFPcmEEC2B8ne200100Ev
FNA:10,12,_ZNSt3__110__function6__baseIFPimEEC2B8ne200100Ev
FNA:10,9,_ZNSt3__110__function6__baseIFlPKvlEEC2B8ne200100Ev
FNA:10,54,_ZNSt3__110__function6__baseIFmmEEC2B8ne200100Ev
FNA:10,4,_ZNSt3__110__function6__baseIFvPcmEEC2B8ne200100Ev
FNL:11,246
FNA:11,0,_ZNSt3__110__function6__baseIF11test_resultN3fmt3v1216basic_format_argINS4_7contextEE6handleEEED0Ev
FNA:11,0,_ZNSt3__110__function6__baseIF11test_resultN3fmt3v1216basic_format_argINS4_7contextEE6handleEEED1Ev
FNA:11,0,_ZNSt3__110__function6__baseIF11test_resultN3fmt3v1216basic_format_argINS4_7contextEE6handleEEED2Ev
FNA:11,0,_ZNSt3__110__function6__baseIF11test_resultN3fmt3v1217basic_string_viewIcEEEED0Ev
FNA:11,0,_ZNSt3__110__function6__baseIF11test_resultN3fmt3v1217basic_string_viewIcEEEED1Ev
FNA:11,0,_ZNSt3__110__function6__baseIF11test_resultN3fmt3v1217basic_string_viewIcEEEED2Ev
FNA:11,0,_ZNSt3__110__function6__baseIF11test_resultN3fmt3v129monostateEEED0Ev
FNA:11,0,_ZNSt3__110__function6__baseIF11test_resultN3fmt3v129monostateEEED1Ev
FNA:11,0,_ZNSt3__110__function6__baseIF11test_resultN3fmt3v129monostateEEED2Ev
FNA:11,0,_ZNSt3__110__function6__baseIF11test_resultPKcEED0Ev
FNA:11,0,_ZNSt3__110__function6__baseIF11test_resultPKcEED1Ev
FNA:11,0,_ZNSt3__110__function6__baseIF11test_resultPKcEED2Ev
FNA:11,0,_ZNSt3__110__function6__baseIF11test_resultPKvEED0Ev
FNA:11,0,_ZNSt3__110__function6__baseIF11test_resultPKvEED1Ev
FNA:11,0,_ZNSt3__110__function6__baseIF11test_resultPKvEED2Ev
FNA:11,0,_ZNSt3__110__function6__baseIF11test_resultbEED0Ev
FNA:11,0,_ZNSt3__110__function6__baseIF11test_resultbEED1Ev
FNA:11,0,_ZNSt3__110__function6__baseIF11test_resultbEED2Ev
FNA:11,0,_ZNSt3__110__function6__baseIF11test_resultcEED0Ev
FNA:11,0,_ZNSt3__110__function6__baseIF11test_resultcEED1Ev
FNA:11,0,_ZNSt3__110__function6__baseIF11test_resultcEED2Ev
FNA:11,0,_ZNSt3__110__function6__baseIF11test_resultdEED0Ev
FNA:11,0,_ZNSt3__110__function6__baseIF11test_resultdEED1Ev
FNA:11,0,_ZNSt3__110__function6__baseIF11test_resultdEED2Ev
FNA:11,0,_ZNSt3__110__function6__baseIF11test_resulteEED0Ev
FNA:11,0,_ZNSt3__110__function6__baseIF11test_resulteEED1Ev
FNA:11,0,_ZNSt3__110__function6__baseIF11test_resulteEED2Ev
FNA:11,0,_ZNSt3__110__function6__baseIF11test_resultfEED0Ev
FNA:11,0,_ZNSt3__110__function6__baseIF11test_resultfEED1Ev
FNA:11,0,_ZNSt3__110__function6__baseIF11test_resultfEED2Ev
FNA:11,0,_ZNSt3__110__function6__baseIF11test_resultiEED0Ev
FNA:11,0,_ZNSt3__110__function6__baseIF11test_resultiEED1Ev
FNA:11,0,_ZNSt3__110__function6__baseIF11test_resultiEED2Ev
FNA:11,0,_ZNSt3__110__function6__baseIF11test_resultjEED0Ev
FNA:11,0,_ZNSt3__110__function6__baseIF11test_resultjEED1Ev
FNA:11,0,_ZNSt3__110__function6__baseIF11test_resultjEED2Ev
FNA:11,0,_ZNSt3__110__function6__baseIF11test_resultxEED0Ev
FNA:11,0,_ZNSt3__110__function6__baseIF11test_resultxEED1Ev
FNA:11,0,_ZNSt3__110__function6__baseIF11test_resultxEED2Ev
FNA:11,0,_ZNSt3__110__function6__baseIF11test_resultyEED0Ev
FNA:11,0,_ZNSt3__110__function6__baseIF11test_resultyEED1Ev
FNA:11,0,_ZNSt3__110__function6__baseIF11test_resultyEED2Ev
FNA:11,0,_ZNSt3__110__function6__baseIFPcmEED0Ev
FNA:11,0,_ZNSt3__110__function6__baseIFPcmEED1Ev
FNA:11,0,_ZNSt3__110__function6__baseIFPcmEED2Ev
FNA:11,0,_ZNSt3__110__function6__baseIFPimEED0Ev
FNA:11,0,_ZNSt3__110__function6__baseIFPimEED1Ev
FNA:11,0,_ZNSt3__110__function6__baseIFPimEED2Ev
FNA:11,0,_ZNSt3__110__function6__baseIFlPKvlEED0Ev
FNA:11,0,_ZNSt3__110__function6__baseIFlPKvlEED1Ev
FNA:11,0,_ZNSt3__110__function6__baseIFlPKvlEED2Ev
FNA:11,0,_ZNSt3__110__function6__baseIFmmEED0Ev
FNA:11,0,_ZNSt3__110__function6__baseIFmmEED1Ev
FNA:11,0,_ZNSt3__110__function6__baseIFmmEED2Ev
FNA:11,0,_ZNSt3__110__function6__baseIFvPcmEED0Ev
FNA:11,0,_ZNSt3__110__function6__baseIFvPcmEED1Ev
FNA:11,0,_ZNSt3__110__function6__baseIFvPcmEED2Ev
FNL:12,261
FNA:12,0,_ZNSt3__110__function6__funcI12check_customNS_9allocatorIS2_EEF11test_resultN3fmt3v1216basic_format_argINS7_7contextEE6handleEEED0Ev
FNA:12,0,_ZNSt3__110__function6__funcI12check_customNS_9allocatorIS2_EEF11test_resultN3fmt3v1216basic_format_argINS7_7contextEE6handleEEED1Ev
FNA:12,0,_ZNSt3__110__function6__funcI12check_customNS_9allocatorIS2_EEF11test_resultN3fmt3v1216basic_format_argINS7_7contextEE6handleEEED2Ev
FNA:12,0,_ZNSt3__110__function6__funcIN7testing6ActionIF11test_resultN3fmt3v1216basic_format_argINS6_7contextEE6handleEEE13ActionAdapterENS_9allocatorISD_EESB_ED0Ev
FNA:12,0,_ZNSt3__110__function6__funcIN7testing6ActionIF11test_resultN3fmt3v1216basic_format_argINS6_7contextEE6handleEEE13ActionAdapterENS_9allocatorISD_EESB_ED1Ev
FNA:12,0,_ZNSt3__110__function6__funcIN7testing6ActionIF11test_resultN3fmt3v1216basic_format_argINS6_7contextEE6handleEEE13ActionAdapterENS_9allocatorISD_EESB_ED2Ev
FNA:12,0,_ZNSt3__110__function6__funcIN7testing6ActionIF11test_resultN3fmt3v1217basic_string_viewIcEEEE13ActionAdapterENS_9allocatorISB_EES9_ED0Ev
FNA:12,0,_ZNSt3__110__function6__funcIN7testing6ActionIF11test_resultN3fmt3v1217basic_string_viewIcEEEE13ActionAdapterENS_9allocatorISB_EES9_ED1Ev
FNA:12,0,_ZNSt3__110__function6__funcIN7testing6ActionIF11test_resultN3fmt3v1217basic_string_viewIcEEEE13ActionAdapterENS_9allocatorISB_EES9_ED2Ev
FNA:12,0,_ZNSt3__110__function6__funcIN7testing6ActionIF11test_resultN3fmt3v129monostateEEE13ActionAdapterENS_9allocatorISA_EES8_ED0Ev
FNA:12,0,_ZNSt3__110__function6__funcIN7testing6ActionIF11test_resultN3fmt3v129monostateEEE13ActionAdapterENS_9allocatorISA_EES8_ED1Ev
FNA:12,0,_ZNSt3__110__function6__funcIN7testing6ActionIF11test_resultN3fmt3v129monostateEEE13ActionAdapterENS_9allocatorISA_EES8_ED2Ev
FNA:12,0,_ZNSt3__110__function6__funcIN7testing6ActionIF11test_resultPKcEE13ActionAdapterENS_9allocatorIS9_EES7_ED0Ev
FNA:12,0,_ZNSt3__110__function6__funcIN7testing6ActionIF11test_resultPKcEE13ActionAdapterENS_9allocatorIS9_EES7_ED1Ev
FNA:12,0,_ZNSt3__110__function6__funcIN7testing6ActionIF11test_resultPKcEE13ActionAdapterENS_9allocatorIS9_EES7_ED2Ev
FNA:12,0,_ZNSt3__110__function6__funcIN7testing6ActionIF11test_resultPKvEE13ActionAdapterENS_9allocatorIS9_EES7_ED0Ev
FNA:12,0,_ZNSt3__110__function6__funcIN7testing6ActionIF11test_resultPKvEE13ActionAdapterENS_9allocatorIS9_EES7_ED1Ev
FNA:12,0,_ZNSt3__110__function6__funcIN7testing6ActionIF11test_resultPKvEE13ActionAdapterENS_9allocatorIS9_EES7_ED2Ev
FNA:12,0,_ZNSt3__110__function6__funcIN7testing6ActionIF11test_resultbEE13ActionAdapterENS_9allocatorIS7_EES5_ED0Ev
FNA:12,0,_ZNSt3__110__function6__funcIN7testing6ActionIF11test_resultbEE13ActionAdapterENS_9allocatorIS7_EES5_ED1Ev
FNA:12,0,_ZNSt3__110__function6__funcIN7testing6ActionIF11test_resultbEE13ActionAdapterENS_9allocatorIS7_EES5_ED2Ev
FNA:12,0,_ZNSt3__110__function6__funcIN7testing6ActionIF11test_resultcEE13ActionAdapterENS_9allocatorIS7_EES5_ED0Ev
FNA:12,0,_ZNSt3__110__function6__funcIN7testing6ActionIF11test_resultcEE13ActionAdapterENS_9allocatorIS7_EES5_ED1Ev
FNA:12,0,_ZNSt3__110__function6__funcIN7testing6ActionIF11test_resultcEE13ActionAdapterENS_9allocatorIS7_EES5_ED2Ev
FNA:12,0,_ZNSt3__110__function6__funcIN7testing6ActionIF11test_resultdEE13ActionAdapterENS_9allocatorIS7_EES5_ED0Ev
FNA:12,0,_ZNSt3__110__function6__funcIN7testing6ActionIF11test_resultdEE13ActionAdapterENS_9allocatorIS7_EES5_ED1Ev
FNA:12,0,_ZNSt3__110__function6__funcIN7testing6ActionIF11test_resultdEE13ActionAdapterENS_9allocatorIS7_EES5_ED2Ev
FNA:12,0,_ZNSt3__110__function6__funcIN7testing6ActionIF11test_resulteEE13ActionAdapterENS_9allocatorIS7_EES5_ED0Ev
FNA:12,0,_ZNSt3__110__function6__funcIN7testing6ActionIF11test_resulteEE13ActionAdapterENS_9allocatorIS7_EES5_ED1Ev
FNA:12,0,_ZNSt3__110__function6__funcIN7testing6ActionIF11test_resulteEE13ActionAdapterENS_9allocatorIS7_EES5_ED2Ev
FNA:12,0,_ZNSt3__110__function6__funcIN7testing6ActionIF11test_resultfEE13ActionAdapterENS_9allocatorIS7_EES5_ED0Ev
FNA:12,0,_ZNSt3__110__function6__funcIN7testing6ActionIF11test_resultfEE13ActionAdapterENS_9allocatorIS7_EES5_ED1Ev
FNA:12,0,_ZNSt3__110__function6__funcIN7testing6ActionIF11test_resultfEE13ActionAdapterENS_9allocatorIS7_EES5_ED2Ev
FNA:12,0,_ZNSt3__110__function6__funcIN7testing6ActionIF11test_resultiEE13ActionAdapterENS_9allocatorIS7_EES5_ED0Ev
FNA:12,0,_ZNSt3__110__function6__funcIN7testing6ActionIF11test_resultiEE13ActionAdapterENS_9allocatorIS7_EES5_ED1Ev
FNA:12,0,_ZNSt3__110__function6__funcIN7testing6ActionIF11test_resultiEE13ActionAdapterENS_9allocatorIS7_EES5_ED2Ev
FNA:12,0,_ZNSt3__110__function6__funcIN7testing6ActionIF11test_resultjEE13ActionAdapterENS_9allocatorIS7_EES5_ED0Ev
FNA:12,0,_ZNSt3__110__function6__funcIN7testing6ActionIF11test_resultjEE13ActionAdapterENS_9allocatorIS7_EES5_ED1Ev
FNA:12,0,_ZNSt3__110__function6__funcIN7testing6ActionIF11test_resultjEE13ActionAdapterENS_9allocatorIS7_EES5_ED2Ev
FNA:12,0,_ZNSt3__110__function6__funcIN7testing6ActionIF11test_resultxEE13ActionAdapterENS_9allocatorIS7_EES5_ED0Ev
FNA:12,0,_ZNSt3__110__function6__funcIN7testing6ActionIF11test_resultxEE13ActionAdapterENS_9allocatorIS7_EES5_ED1Ev
FNA:12,0,_ZNSt3__110__function6__funcIN7testing6ActionIF11test_resultxEE13ActionAdapterENS_9allocatorIS7_EES5_ED2Ev
FNA:12,0,_ZNSt3__110__function6__funcIN7testing6ActionIF11test_resultyEE13ActionAdapterENS_9allocatorIS7_EES5_ED0Ev
FNA:12,0,_ZNSt3__110__function6__funcIN7testing6ActionIF11test_resultyEE13ActionAdapterENS_9allocatorIS7_EES5_ED1Ev
FNA:12,0,_ZNSt3__110__function6__funcIN7testing6ActionIF11test_resultyEE13ActionAdapterENS_9allocatorIS7_EES5_ED2Ev
FNA:12,0,_ZNSt3__110__function6__funcIN7testing6ActionIFPcmEE13ActionAdapterENS_9allocatorIS7_EES5_ED0Ev
FNA:12,0,_ZNSt3__110__function6__funcIN7testing6ActionIFPcmEE13ActionAdapterENS_9allocatorIS7_EES5_ED1Ev
FNA:12,0,_ZNSt3__110__function6__funcIN7testing6ActionIFPcmEE13ActionAdapterENS_9allocatorIS7_EES5_ED2Ev
FNA:12,0,_ZNSt3__110__function6__funcIN7testing6ActionIFPimEE13ActionAdapterENS_9allocatorIS7_EES5_ED0Ev
FNA:12,0,_ZNSt3__110__function6__funcIN7testing6ActionIFPimEE13ActionAdapterENS_9allocatorIS7_EES5_ED1Ev
FNA:12,0,_ZNSt3__110__function6__funcIN7testing6ActionIFPimEE13ActionAdapterENS_9allocatorIS7_EES5_ED2Ev
FNA:12,0,_ZNSt3__110__function6__funcIN7testing6ActionIFlPKvlEE13ActionAdapterENS_9allocatorIS8_EES6_ED0Ev
FNA:12,0,_ZNSt3__110__function6__funcIN7testing6ActionIFlPKvlEE13ActionAdapterENS_9allocatorIS8_EES6_ED1Ev
FNA:12,0,_ZNSt3__110__function6__funcIN7testing6ActionIFlPKvlEE13ActionAdapterENS_9allocatorIS8_EES6_ED2Ev
FNA:12,0,_ZNSt3__110__function6__funcIN7testing6ActionIFmmEE13ActionAdapterENS_9allocatorIS6_EES4_ED0Ev
FNA:12,0,_ZNSt3__110__function6__funcIN7testing6ActionIFmmEE13ActionAdapterENS_9allocatorIS6_EES4_ED1Ev
FNA:12,0,_ZNSt3__110__function6__funcIN7testing6ActionIFmmEE13ActionAdapterENS_9allocatorIS6_EES4_ED2Ev
FNA:12,0,_ZNSt3__110__function6__funcIZN11mock_bufferIcEC1EPcmEUlmE_NS_9allocatorIS5_EEFmmEED0Ev
FNA:12,0,_ZNSt3__110__function6__funcIZN11mock_bufferIcEC1EPcmEUlmE_NS_9allocatorIS5_EEFmmEED1Ev
FNA:12,0,_ZNSt3__110__function6__funcIZN11mock_bufferIcEC1EPcmEUlmE_NS_9allocatorIS5_EEFmmEED2Ev
FNA:12,0,_ZNSt3__110__function6__funcIZN11mock_bufferIiEC1EPimEUlmE_NS_9allocatorIS5_EEFmmEED0Ev
FNA:12,0,_ZNSt3__110__function6__funcIZN11mock_bufferIiEC1EPimEUlmE_NS_9allocatorIS5_EEFmmEED1Ev
FNA:12,0,_ZNSt3__110__function6__funcIZN11mock_bufferIiEC1EPimEUlmE_NS_9allocatorIS5_EEFmmEED2Ev
FNA:12,0,_ZNSt3__110__function6__funcIZN31buffer_test_append_partial_Test8TestBodyEvE3$_0NS_9allocatorIS3_EEFmmEED0Ev
FNA:12,0,_ZNSt3__110__function6__funcIZN31buffer_test_append_partial_Test8TestBodyEvE3$_0NS_9allocatorIS3_EEFmmEED1Ev
FNA:12,0,_ZNSt3__110__function6__funcIZN31buffer_test_append_partial_Test8TestBodyEvE3$_0NS_9allocatorIS3_EEFmmEED2Ev
FNA:12,0,_ZNSt3__110__function6__funcIZNK7testing8internal11ThrowActionISt9exceptionEcvNS2_6ActionIFT_DpT0_EEEIvJPcmEEEvEUlSE_mE_NS_9allocatorISF_EEFvSE_mEED0Ev
FNA:12,0,_ZNSt3__110__function6__funcIZNK7testing8internal11ThrowActionISt9exceptionEcvNS2_6ActionIFT_DpT0_EEEIvJPcmEEEvEUlSE_mE_NS_9allocatorISF_EEFvSE_mEED1Ev
FNA:12,0,_ZNSt3__110__function6__funcIZNK7testing8internal11ThrowActionISt9exceptionEcvNS2_6ActionIFT_DpT0_EEEIvJPcmEEEvEUlSE_mE_NS_9allocatorISF_EEFvSE_mEED2Ev
FNL:13,270
FNA:13,3,_ZNSt3__110__function6__funcI12check_customNS_9allocatorIS2_EEF11test_resultN3fmt3v1216basic_format_argINS7_7contextEE6handleEEEC1B8ne200100ERKS2_RKS4_
FNA:13,3,_ZNSt3__110__function6__funcI12check_customNS_9allocatorIS2_EEF11test_resultN3fmt3v1216basic_format_argINS7_7contextEE6handleEEEC2B8ne200100ERKS2_RKS4_
FNA:13,2,_ZNSt3__110__function6__funcIN7testing6ActionIF11test_resultN3fmt3v1216basic_format_argINS6_7contextEE6handleEEE13ActionAdapterENS_9allocatorISD_EESB_EC1B8ne200100ERKSD_RKSF_
FNA:13,2,_ZNSt3__110__function6__funcIN7testing6ActionIF11test_resultN3fmt3v1216basic_format_argINS6_7contextEE6handleEEE13ActionAdapterENS_9allocatorISD_EESB_EC2B8ne200100ERKSD_RKSF_
FNA:13,2,_ZNSt3__110__function6__funcIN7testing6ActionIF11test_resultN3fmt3v1217basic_string_viewIcEEEE13ActionAdapterENS_9allocatorISB_EES9_EC1B8ne200100ERKSB_RKSD_
FNA:13,2,_ZNSt3__110__function6__funcIN7testing6ActionIF11test_resultN3fmt3v1217basic_string_viewIcEEEE13ActionAdapterENS_9allocatorISB_EES9_EC2B8ne200100ERKSB_RKSD_
FNA:13,2,_ZNSt3__110__function6__funcIN7testing6ActionIF11test_resultN3fmt3v129monostateEEE13ActionAdapterENS_9allocatorISA_EES8_EC1B8ne200100ERKSA_RKSC_
FNA:13,2,_ZNSt3__110__function6__funcIN7testing6ActionIF11test_resultN3fmt3v129monostateEEE13ActionAdapterENS_9allocatorISA_EES8_EC2B8ne200100ERKSA_RKSC_
FNA:13,2,_ZNSt3__110__function6__funcIN7testing6ActionIF11test_resultPKcEE13ActionAdapterENS_9allocatorIS9_EES7_EC1B8ne200100ERKS9_RKSB_
FNA:13,2,_ZNSt3__110__function6__funcIN7testing6ActionIF11test_resultPKcEE13ActionAdapterENS_9allocatorIS9_EES7_EC2B8ne200100ERKS9_RKSB_
FNA:13,8,_ZNSt3__110__function6__funcIN7testing6ActionIF11test_resultPKvEE13ActionAdapterENS_9allocatorIS9_EES7_EC1B8ne200100ERKS9_RKSB_
FNA:13,8,_ZNSt3__110__function6__funcIN7testing6ActionIF11test_resultPKvEE13ActionAdapterENS_9allocatorIS9_EES7_EC2B8ne200100ERKS9_RKSB_
FNA:13,6,_ZNSt3__110__function6__funcIN7testing6ActionIF11test_resultbEE13ActionAdapterENS_9allocatorIS7_EES5_EC1B8ne200100ERKS7_RKS9_
FNA:13,6,_ZNSt3__110__function6__funcIN7testing6ActionIF11test_resultbEE13ActionAdapterENS_9allocatorIS7_EES5_EC2B8ne200100ERKS7_RKS9_
FNA:13,2,_ZNSt3__110__function6__funcIN7testing6ActionIF11test_resultcEE13ActionAdapterENS_9allocatorIS7_EES5_EC1B8ne200100ERKS7_RKS9_
FNA:13,2,_ZNSt3__110__function6__funcIN7testing6ActionIF11test_resultcEE13ActionAdapterENS_9allocatorIS7_EES5_EC2B8ne200100ERKS7_RKS9_
FNA:13,6,_ZNSt3__110__function6__funcIN7testing6ActionIF11test_resultdEE13ActionAdapterENS_9allocatorIS7_EES5_EC1B8ne200100ERKS7_RKS9_
FNA:13,6,_ZNSt3__110__function6__funcIN7testing6ActionIF11test_resultdEE13ActionAdapterENS_9allocatorIS7_EES5_EC2B8ne200100ERKS7_RKS9_
FNA:13,6,_ZNSt3__110__function6__funcIN7testing6ActionIF11test_resulteEE13ActionAdapterENS_9allocatorIS7_EES5_EC1B8ne200100ERKS7_RKS9_
FNA:13,6,_ZNSt3__110__function6__funcIN7testing6ActionIF11test_resulteEE13ActionAdapterENS_9allocatorIS7_EES5_EC2B8ne200100ERKS7_RKS9_
FNA:13,6,_ZNSt3__110__function6__funcIN7testing6ActionIF11test_resultfEE13ActionAdapterENS_9allocatorIS7_EES5_EC1B8ne200100ERKS7_RKS9_
FNA:13,6,_ZNSt3__110__function6__funcIN7testing6ActionIF11test_resultfEE13ActionAdapterENS_9allocatorIS7_EES5_EC2B8ne200100ERKS7_RKS9_
FNA:13,18,_ZNSt3__110__function6__funcIN7testing6ActionIF11test_resultiEE13ActionAdapterENS_9allocatorIS7_EES5_EC1B8ne200100ERKS7_RKS9_
FNA:13,18,_ZNSt3__110__function6__funcIN7testing6ActionIF11test_resultiEE13ActionAdapterENS_9allocatorIS7_EES5_EC2B8ne200100ERKS7_RKS9_
FNA:13,18,_ZNSt3__110__function6__funcIN7testing6ActionIF11test_resultjEE13ActionAdapterENS_9allocatorIS7_EES5_EC1B8ne200100ERKS7_RKS9_
FNA:13,18,_ZNSt3__110__function6__funcIN7testing6ActionIF11test_resultjEE13ActionAdapterENS_9allocatorIS7_EES5_EC2B8ne200100ERKS7_RKS9_
FNA:13,12,_ZNSt3__110__function6__funcIN7testing6ActionIF11test_resultxEE13ActionAdapterENS_9allocatorIS7_EES5_EC1B8ne200100ERKS7_RKS9_
FNA:13,12,_ZNSt3__110__function6__funcIN7testing6ActionIF11test_resultxEE13ActionAdapterENS_9allocatorIS7_EES5_EC2B8ne200100ERKS7_RKS9_
FNA:13,12,_ZNSt3__110__function6__funcIN7testing6ActionIF11test_resultyEE13ActionAdapterENS_9allocatorIS7_EES5_EC1B8ne200100ERKS7_RKS9_
FNA:13,12,_ZNSt3__110__function6__funcIN7testing6ActionIF11test_resultyEE13ActionAdapterENS_9allocatorIS7_EES5_EC2B8ne200100ERKS7_RKS9_
FNA:13,6,_ZNSt3__110__function6__funcIN7testing6ActionIFPcmEE13ActionAdapterENS_9allocatorIS7_EES5_EC1B8ne200100ERKS7_RKS9_
FNA:13,6,_ZNSt3__110__function6__funcIN7testing6ActionIFPcmEE13ActionAdapterENS_9allocatorIS7_EES5_EC2B8ne200100ERKS7_RKS9_
FNA:13,8,_ZNSt3__110__function6__funcIN7testing6ActionIFPimEE13ActionAdapterENS_9allocatorIS7_EES5_EC1B8ne200100ERKS7_RKS9_
FNA:13,8,_ZNSt3__110__function6__funcIN7testing6ActionIFPimEE13ActionAdapterENS_9allocatorIS7_EES5_EC2B8ne200100ERKS7_RKS9_
FNA:13,6,_ZNSt3__110__function6__funcIN7testing6ActionIFlPKvlEE13ActionAdapterENS_9allocatorIS8_EES6_EC1B8ne200100ERKS8_RKSA_
FNA:13,6,_ZNSt3__110__function6__funcIN7testing6ActionIFlPKvlEE13ActionAdapterENS_9allocatorIS8_EES6_EC2B8ne200100ERKS8_RKSA_
FNA:13,4,_ZNSt3__110__function6__funcIN7testing6ActionIFmmEE13ActionAdapterENS_9allocatorIS6_EES4_EC1B8ne200100ERKS6_RKS8_
FNA:13,4,_ZNSt3__110__function6__funcIN7testing6ActionIFmmEE13ActionAdapterENS_9allocatorIS6_EES4_EC2B8ne200100ERKS6_RKS8_
FNA:13,24,_ZNSt3__110__function6__funcIZN11mock_bufferIcEC1EPcmEUlmE_NS_9allocatorIS5_EEFmmEEC1B8ne200100ERKS5_RKS7_
FNA:13,24,_ZNSt3__110__function6__funcIZN11mock_bufferIcEC1EPcmEUlmE_NS_9allocatorIS5_EEFmmEEC2B8ne200100ERKS5_RKS7_
FNA:13,9,_ZNSt3__110__function6__funcIZN11mock_bufferIiEC1EPimEUlmE_NS_9allocatorIS5_EEFmmEEC1B8ne200100ERKS5_RKS7_
FNA:13,9,_ZNSt3__110__function6__funcIZN11mock_bufferIiEC1EPimEUlmE_NS_9allocatorIS5_EEFmmEEC2B8ne200100ERKS5_RKS7_
FNA:13,3,_ZNSt3__110__function6__funcIZN31buffer_test_append_partial_Test8TestBodyEvE3$_0NS_9allocatorIS3_EEFmmEEC1B8ne200100ERKS3_RKS5_
FNA:13,3,_ZNSt3__110__function6__funcIZN31buffer_test_append_partial_Test8TestBodyEvE3$_0NS_9allocatorIS3_EEFmmEEC2B8ne200100ERKS3_RKS5_
FNA:13,3,_ZNSt3__110__function6__funcIZNK7testing8internal11ThrowActionISt9exceptionEcvNS2_6ActionIFT_DpT0_EEEIvJPcmEEEvEUlSE_mE_NS_9allocatorISF_EEFvSE_mEEC1B8ne200100ERKSF_RKSH_
FNA:13,3,_ZNSt3__110__function6__funcIZNK7testing8internal11ThrowActionISt9exceptionEcvNS2_6ActionIFT_DpT0_EEEIvJPcmEEEvEUlSE_mE_NS_9allocatorISF_EEFvSE_mEEC2B8ne200100ERKSF_RKSH_
FNL:14,272
FNA:14,0,_ZNSt3__110__function6__funcI12check_customNS_9allocatorIS2_EEF11test_resultN3fmt3v1216basic_format_argINS7_7contextEE6handleEEEC1B8ne200100ERKS2_OS4_
FNA:14,0,_ZNSt3__110__function6__funcI12check_customNS_9allocatorIS2_EEF11test_resultN3fmt3v1216basic_format_argINS7_7contextEE6handleEEEC2B8ne200100ERKS2_OS4_
FNA:14,0,_ZNSt3__110__function6__funcIN7testing6ActionIF11test_resultN3fmt3v1216basic_format_argINS6_7contextEE6handleEEE13ActionAdapterENS_9allocatorISD_EESB_EC1B8ne200100ERKSD_OSF_
FNA:14,0,_ZNSt3__110__function6__funcIN7testing6ActionIF11test_resultN3fmt3v1216basic_format_argINS6_7contextEE6handleEEE13ActionAdapterENS_9allocatorISD_EESB_EC2B8ne200100ERKSD_OSF_
FNA:14,0,_ZNSt3__110__function6__funcIN7testing6ActionIF11test_resultN3fmt3v1217basic_string_viewIcEEEE13ActionAdapterENS_9allocatorISB_EES9_EC1B8ne200100ERKSB_OSD_
FNA:14,0,_ZNSt3__110__function6__funcIN7testing6ActionIF11test_resultN3fmt3v1217basic_string_viewIcEEEE13ActionAdapterENS_9allocatorISB_EES9_EC2B8ne200100ERKSB_OSD_
FNA:14,0,_ZNSt3__110__function6__funcIN7testing6ActionIF11test_resultN3fmt3v129monostateEEE13ActionAdapterENS_9allocatorISA_EES8_EC1B8ne200100ERKSA_OSC_
FNA:14,0,_ZNSt3__110__function6__funcIN7testing6ActionIF11test_resultN3fmt3v129monostateEEE13ActionAdapterENS_9allocatorISA_EES8_EC2B8ne200100ERKSA_OSC_
FNA:14,0,_ZNSt3__110__function6__funcIN7testing6ActionIF11test_resultPKcEE13ActionAdapterENS_9allocatorIS9_EES7_EC1B8ne200100ERKS9_OSB_
FNA:14,0,_ZNSt3__110__function6__funcIN7testing6ActionIF11test_resultPKcEE13ActionAdapterENS_9allocatorIS9_EES7_EC2B8ne200100ERKS9_OSB_
FNA:14,0,_ZNSt3__110__function6__funcIN7testing6ActionIF11test_resultPKvEE13ActionAdapterENS_9allocatorIS9_EES7_EC1B8ne200100ERKS9_OSB_
FNA:14,0,_ZNSt3__110__function6__funcIN7testing6ActionIF11test_resultPKvEE13ActionAdapterENS_9allocatorIS9_EES7_EC2B8ne200100ERKS9_OSB_
FNA:14,0,_ZNSt3__110__function6__funcIN7testing6ActionIF11test_resultbEE13ActionAdapterENS_9allocatorIS7_EES5_EC1B8ne200100ERKS7_OS9_
FNA:14,0,_ZNSt3__110__function6__funcIN7testing6ActionIF11test_resultbEE13ActionAdapterENS_9allocatorIS7_EES5_EC2B8ne200100ERKS7_OS9_
FNA:14,0,_ZNSt3__110__function6__funcIN7testing6ActionIF11test_resultcEE13ActionAdapterENS_9allocatorIS7_EES5_EC1B8ne200100ERKS7_OS9_
FNA:14,0,_ZNSt3__110__function6__funcIN7testing6ActionIF11test_resultcEE13ActionAdapterENS_9allocatorIS7_EES5_EC2B8ne200100ERKS7_OS9_
FNA:14,0,_ZNSt3__110__function6__funcIN7testing6ActionIF11test_resultdEE13ActionAdapterENS_9allocatorIS7_EES5_EC1B8ne200100ERKS7_OS9_
FNA:14,0,_ZNSt3__110__function6__funcIN7testing6ActionIF11test_resultdEE13ActionAdapterENS_9allocatorIS7_EES5_EC2B8ne200100ERKS7_OS9_
FNA:14,0,_ZNSt3__110__function6__funcIN7testing6ActionIF11test_resulteEE13ActionAdapterENS_9allocatorIS7_EES5_EC1B8ne200100ERKS7_OS9_
FNA:14,0,_ZNSt3__110__function6__funcIN7testing6ActionIF11test_resulteEE13ActionAdapterENS_9allocatorIS7_EES5_EC2B8ne200100ERKS7_OS9_
FNA:14,0,_ZNSt3__110__function6__funcIN7testing6ActionIF11test_resultfEE13ActionAdapterENS_9allocatorIS7_EES5_EC1B8ne200100ERKS7_OS9_
FNA:14,0,_ZNSt3__110__function6__funcIN7testing6ActionIF11test_resultfEE13ActionAdapterENS_9allocatorIS7_EES5_EC2B8ne200100ERKS7_OS9_
FNA:14,0,_ZNSt3__110__function6__funcIN7testing6ActionIF11test_resultiEE13ActionAdapterENS_9allocatorIS7_EES5_EC1B8ne200100ERKS7_OS9_
FNA:14,0,_ZNSt3__110__function6__funcIN7testing6ActionIF11test_resultiEE13ActionAdapterENS_9allocatorIS7_EES5_EC2B8ne200100ERKS7_OS9_
FNA:14,0,_ZNSt3__110__function6__funcIN7testing6ActionIF11test_resultjEE13ActionAdapterENS_9allocatorIS7_EES5_EC1B8ne200100ERKS7_OS9_
FNA:14,0,_ZNSt3__110__function6__funcIN7testing6ActionIF11test_resultjEE13ActionAdapterENS_9allocatorIS7_EES5_EC2B8ne200100ERKS7_OS9_
FNA:14,0,_ZNSt3__110__function6__funcIN7testing6ActionIF11test_resultxEE13ActionAdapterENS_9allocatorIS7_EES5_EC1B8ne200100ERKS7_OS9_
FNA:14,0,_ZNSt3__110__function6__funcIN7testing6ActionIF11test_resultxEE13ActionAdapterENS_9allocatorIS7_EES5_EC2B8ne200100ERKS7_OS9_
FNA:14,0,_ZNSt3__110__function6__funcIN7testing6ActionIF11test_resultyEE13ActionAdapterENS_9allocatorIS7_EES5_EC1B8ne200100ERKS7_OS9_
FNA:14,0,_ZNSt3__110__function6__funcIN7testing6ActionIF11test_resultyEE13ActionAdapterENS_9allocatorIS7_EES5_EC2B8ne200100ERKS7_OS9_
FNA:14,0,_ZNSt3__110__function6__funcIN7testing6ActionIFPcmEE13ActionAdapterENS_9allocatorIS7_EES5_EC1B8ne200100ERKS7_OS9_
FNA:14,0,_ZNSt3__110__function6__funcIN7testing6ActionIFPcmEE13ActionAdapterENS_9allocatorIS7_EES5_EC2B8ne200100ERKS7_OS9_
FNA:14,0,_ZNSt3__110__function6__funcIN7testing6ActionIFPimEE13ActionAdapterENS_9allocatorIS7_EES5_EC1B8ne200100ERKS7_OS9_
FNA:14,0,_ZNSt3__110__function6__funcIN7testing6ActionIFPimEE13ActionAdapterENS_9allocatorIS7_EES5_EC2B8ne200100ERKS7_OS9_
FNA:14,0,_ZNSt3__110__function6__funcIN7testing6ActionIFlPKvlEE13ActionAdapterENS_9allocatorIS8_EES6_EC1B8ne200100ERKS8_OSA_
FNA:14,0,_ZNSt3__110__function6__funcIN7testing6ActionIFlPKvlEE13ActionAdapterENS_9allocatorIS8_EES6_EC2B8ne200100ERKS8_OSA_
FNA:14,0,_ZNSt3__110__function6__funcIN7testing6ActionIFmmEE13ActionAdapterENS_9allocatorIS6_EES4_EC1B8ne200100ERKS6_OS8_
FNA:14,0,_ZNSt3__110__function6__funcIN7testing6ActionIFmmEE13ActionAdapterENS_9allocatorIS6_EES4_EC2B8ne200100ERKS6_OS8_
FNA:14,0,_ZNSt3__110__function6__funcIZN11mock_bufferIcEC1EPcmEUlmE_NS_9allocatorIS5_EEFmmEEC1B8ne200100ERKS5_OS7_
FNA:14,0,_ZNSt3__110__function6__funcIZN11mock_bufferIcEC1EPcmEUlmE_NS_9allocatorIS5_EEFmmEEC2B8ne200100ERKS5_OS7_
FNA:14,0,_ZNSt3__110__function6__funcIZN11mock_bufferIiEC1EPimEUlmE_NS_9allocatorIS5_EEFmmEEC1B8ne200100ERKS5_OS7_
FNA:14,0,_ZNSt3__110__function6__funcIZN11mock_bufferIiEC1EPimEUlmE_NS_9allocatorIS5_EEFmmEEC2B8ne200100ERKS5_OS7_
FNA:14,0,_ZNSt3__110__function6__funcIZN31buffer_test_append_partial_Test8TestBodyEvE3$_0NS_9allocatorIS3_EEFmmEEC1B8ne200100ERKS3_OS5_
FNA:14,0,_ZNSt3__110__function6__funcIZN31buffer_test_append_partial_Test8TestBodyEvE3$_0NS_9allocatorIS3_EEFmmEEC2B8ne200100ERKS3_OS5_
FNA:14,0,_ZNSt3__110__function6__funcIZNK7testing8internal11ThrowActionISt9exceptionEcvNS2_6ActionIFT_DpT0_EEEIvJPcmEEEvEUlSE_mE_NS_9allocatorISF_EEFvSE_mEEC1B8ne200100ERKSF_OSH_
FNA:14,0,_ZNSt3__110__function6__funcIZNK7testing8internal11ThrowActionISt9exceptionEcvNS2_6ActionIFT_DpT0_EEEIvJPcmEEEvEUlSE_mE_NS_9allocatorISF_EEFvSE_mEEC2B8ne200100ERKSF_OSH_
FNL:15,274
FNA:15,1,_ZNSt3__110__function6__funcI12check_customNS_9allocatorIS2_EEF11test_resultN3fmt3v1216basic_format_argINS7_7contextEE6handleEEEC1B8ne200100EOS2_OS4_
FNA:15,1,_ZNSt3__110__function6__funcI12check_customNS_9allocatorIS2_EEF11test_resultN3fmt3v1216basic_format_argINS7_7contextEE6handleEEEC2B8ne200100EOS2_OS4_
FNA:15,1,_ZNSt3__110__function6__funcIN7testing6ActionIF11test_resultN3fmt3v1216basic_format_argINS6_7contextEE6handleEEE13ActionAdapterENS_9allocatorISD_EESB_EC1B8ne200100EOSD_OSF_
FNA:15,1,_ZNSt3__110__function6__funcIN7testing6ActionIF11test_resultN3fmt3v1216basic_format_argINS6_7contextEE6handleEEE13ActionAdapterENS_9allocatorISD_EESB_EC2B8ne200100EOSD_OSF_
FNA:15,1,_ZNSt3__110__function6__funcIN7testing6ActionIF11test_resultN3fmt3v1217basic_string_viewIcEEEE13ActionAdapterENS_9allocatorISB_EES9_EC1B8ne200100EOSB_OSD_
FNA:15,1,_ZNSt3__110__function6__funcIN7testing6ActionIF11test_resultN3fmt3v1217basic_string_viewIcEEEE13ActionAdapterENS_9allocatorISB_EES9_EC2B8ne200100EOSB_OSD_
FNA:15,1,_ZNSt3__110__function6__funcIN7testing6ActionIF11test_resultN3fmt3v129monostateEEE13ActionAdapterENS_9allocatorISA_EES8_EC1B8ne200100EOSA_OSC_
FNA:15,1,_ZNSt3__110__function6__funcIN7testing6ActionIF11test_resultN3fmt3v129monostateEEE13ActionAdapterENS_9allocatorISA_EES8_EC2B8ne200100EOSA_OSC_
FNA:15,1,_ZNSt3__110__function6__funcIN7testing6ActionIF11test_resultPKcEE13ActionAdapterENS_9allocatorIS9_EES7_EC1B8ne200100EOS9_OSB_
FNA:15,1,_ZNSt3__110__function6__funcIN7testing6ActionIF11test_resultPKcEE13ActionAdapterENS_9allocatorIS9_EES7_EC2B8ne200100EOS9_OSB_
FNA:15,4,_ZNSt3__110__function6__funcIN7testing6ActionIF11test_resultPKvEE13ActionAdapterENS_9allocatorIS9_EES7_EC1B8ne200100EOS9_OSB_
FNA:15,4,_ZNSt3__110__function6__funcIN7testing6ActionIF11test_resultPKvEE13ActionAdapterENS_9allocatorIS9_EES7_EC2B8ne200100EOS9_OSB_
FNA:15,3,_ZNSt3__110__function6__funcIN7testing6ActionIF11test_resultbEE13ActionAdapterENS_9allocatorIS7_EES5_EC1B8ne200100EOS7_OS9_
FNA:15,3,_ZNSt3__110__function6__funcIN7testing6ActionIF11test_resultbEE13ActionAdapterENS_9allocatorIS7_EES5_EC2B8ne200100EOS7_OS9_
FNA:15,1,_ZNSt3__110__function6__funcIN7testing6ActionIF11test_resultcEE13ActionAdapterENS_9allocatorIS7_EES5_EC1B8ne200100EOS7_OS9_
FNA:15,1,_ZNSt3__110__function6__funcIN7testing6ActionIF11test_resultcEE13ActionAdapterENS_9allocatorIS7_EES5_EC2B8ne200100EOS7_OS9_
FNA:15,3,_ZNSt3__110__function6__funcIN7testing6ActionIF11test_resultdEE13ActionAdapterENS_9allocatorIS7_EES5_EC1B8ne200100EOS7_OS9_
FNA:15,3,_ZNSt3__110__function6__funcIN7testing6ActionIF11test_resultdEE13ActionAdapterENS_9allocatorIS7_EES5_EC2B8ne200100EOS7_OS9_
FNA:15,3,_ZNSt3__110__function6__funcIN7testing6ActionIF11test_resulteEE13ActionAdapterENS_9allocatorIS7_EES5_EC1B8ne200100EOS7_OS9_
FNA:15,3,_ZNSt3__110__function6__funcIN7testing6ActionIF11test_resulteEE13ActionAdapterENS_9allocatorIS7_EES5_EC2B8ne200100EOS7_OS9_
FNA:15,3,_ZNSt3__110__function6__funcIN7testing6ActionIF11test_resultfEE13ActionAdapterENS_9allocatorIS7_EES5_EC1B8ne200100EOS7_OS9_
FNA:15,3,_ZNSt3__110__function6__funcIN7testing6ActionIF11test_resultfEE13ActionAdapterENS_9allocatorIS7_EES5_EC2B8ne200100EOS7_OS9_
FNA:15,9,_ZNSt3__110__function6__funcIN7testing6ActionIF11test_resultiEE13ActionAdapterENS_9allocatorIS7_EES5_EC1B8ne200100EOS7_OS9_
FNA:15,9,_ZNSt3__110__function6__funcIN7testing6ActionIF11test_resultiEE13ActionAdapterENS_9allocatorIS7_EES5_EC2B8ne200100EOS7_OS9_
FNA:15,9,_ZNSt3__110__function6__funcIN7testing6ActionIF11test_resultjEE13ActionAdapterENS_9allocatorIS7_EES5_EC1B8ne200100EOS7_OS9_
FNA:15,9,_ZNSt3__110__function6__funcIN7testing6ActionIF11test_resultjEE13ActionAdapterENS_9allocatorIS7_EES5_EC2B8ne200100EOS7_OS9_
FNA:15,6,_ZNSt3__110__function6__funcIN7testing6ActionIF11test_resultxEE13ActionAdapterENS_9allocatorIS7_EES5_EC1B8ne200100EOS7_OS9_
FNA:15,6,_ZNSt3__110__function6__funcIN7testing6ActionIF11test_resultxEE13ActionAdapterENS_9allocatorIS7_EES5_EC2B8ne200100EOS7_OS9_
FNA:15,6,_ZNSt3__110__function6__funcIN7testing6ActionIF11test_resultyEE13ActionAdapterENS_9allocatorIS7_EES5_EC1B8ne200100EOS7_OS9_
FNA:15,6,_ZNSt3__110__function6__funcIN7testing6ActionIF11test_resultyEE13ActionAdapterENS_9allocatorIS7_EES5_EC2B8ne200100EOS7_OS9_
FNA:15,3,_ZNSt3__110__function6__funcIN7testing6ActionIFPcmEE13ActionAdapterENS_9allocatorIS7_EES5_EC1B8ne200100EOS7_OS9_
FNA:15,3,_ZNSt3__110__function6__funcIN7testing6ActionIFPcmEE13ActionAdapterENS_9allocatorIS7_EES5_EC2B8ne200100EOS7_OS9_
FNA:15,4,_ZNSt3__110__function6__funcIN7testing6ActionIFPimEE13ActionAdapterENS_9allocatorIS7_EES5_EC1B8ne200100EOS7_OS9_
FNA:15,4,_ZNSt3__110__function6__funcIN7testing6ActionIFPimEE13ActionAdapterENS_9allocatorIS7_EES5_EC2B8ne200100EOS7_OS9_
FNA:15,3,_ZNSt3__110__function6__funcIN7testing6ActionIFlPKvlEE13ActionAdapterENS_9allocatorIS8_EES6_EC1B8ne200100EOS8_OSA_
FNA:15,3,_ZNSt3__110__function6__funcIN7testing6ActionIFlPKvlEE13ActionAdapterENS_9allocatorIS8_EES6_EC2B8ne200100EOS8_OSA_
FNA:15,2,_ZNSt3__110__function6__funcIN7testing6ActionIFmmEE13ActionAdapterENS_9allocatorIS6_EES4_EC1B8ne200100EOS6_OS8_
FNA:15,2,_ZNSt3__110__function6__funcIN7testing6ActionIFmmEE13ActionAdapterENS_9allocatorIS6_EES4_EC2B8ne200100EOS6_OS8_
FNA:15,8,_ZNSt3__110__function6__funcIZN11mock_bufferIcEC1EPcmEUlmE_NS_9allocatorIS5_EEFmmEEC1B8ne200100EOS5_OS7_
FNA:15,8,_ZNSt3__110__function6__funcIZN11mock_bufferIcEC1EPcmEUlmE_NS_9allocatorIS5_EEFmmEEC2B8ne200100EOS5_OS7_
FNA:15,3,_ZNSt3__110__function6__funcIZN11mock_bufferIiEC1EPimEUlmE_NS_9allocatorIS5_EEFmmEEC1B8ne200100EOS5_OS7_
FNA:15,3,_ZNSt3__110__function6__funcIZN11mock_bufferIiEC1EPimEUlmE_NS_9allocatorIS5_EEFmmEEC2B8ne200100EOS5_OS7_
FNA:15,1,_ZNSt3__110__function6__funcIZN31buffer_test_append_partial_Test8TestBodyEvE3$_0NS_9allocatorIS3_EEFmmEEC1B8ne200100EOS3_OS5_
FNA:15,1,_ZNSt3__110__function6__funcIZN31buffer_test_append_partial_Test8TestBodyEvE3$_0NS_9allocatorIS3_EEFmmEEC2B8ne200100EOS3_OS5_
FNA:15,1,_ZNSt3__110__function6__funcIZNK7testing8internal11ThrowActionISt9exceptionEcvNS2_6ActionIFT_DpT0_EEEIvJPcmEEEvEUlSE_mE_NS_9allocatorISF_EEFvSE_mEEC1B8ne200100EOSF_OSH_
FNA:15,1,_ZNSt3__110__function6__funcIZNK7testing8internal11ThrowActionISt9exceptionEcvNS2_6ActionIFT_DpT0_EEEIvJPcmEEEvEUlSE_mE_NS_9allocatorISF_EEFvSE_mEEC2B8ne200100EOSF_OSH_
FNL:16,288
FNA:16,0,_ZNKSt3__110__function6__funcI12check_customNS_9allocatorIS2_EEF11test_resultN3fmt3v1216basic_format_argINS7_7contextEE6handleEEE7__cloneEv
FNA:16,0,_ZNKSt3__110__function6__funcIN7testing6ActionIF11test_resultN3fmt3v1216basic_format_argINS6_7contextEE6handleEEE13ActionAdapterENS_9allocatorISD_EESB_E7__cloneEv
FNA:16,0,_ZNKSt3__110__function6__funcIN7testing6ActionIF11test_resultN3fmt3v1217basic_string_viewIcEEEE13ActionAdapterENS_9allocatorISB_EES9_E7__cloneEv
FNA:16,0,_ZNKSt3__110__function6__funcIN7testing6ActionIF11test_resultN3fmt3v129monostateEEE13ActionAdapterENS_9allocatorISA_EES8_E7__cloneEv
FNA:16,0,_ZNKSt3__110__function6__funcIN7testing6ActionIF11test_resultPKcEE13ActionAdapterENS_9allocatorIS9_EES7_E7__cloneEv
FNA:16,0,_ZNKSt3__110__function6__funcIN7testing6ActionIF11test_resultPKvEE13ActionAdapterENS_9allocatorIS9_EES7_E7__cloneEv
FNA:16,0,_ZNKSt3__110__function6__funcIN7testing6ActionIF11test_resultbEE13ActionAdapterENS_9allocatorIS7_EES5_E7__cloneEv
FNA:16,0,_ZNKSt3__110__function6__funcIN7testing6ActionIF11test_resultcEE13ActionAdapterENS_9allocatorIS7_EES5_E7__cloneEv
FNA:16,0,_ZNKSt3__110__function6__funcIN7testing6ActionIF11test_resultdEE13ActionAdapterENS_9allocatorIS7_EES5_E7__cloneEv
FNA:16,0,_ZNKSt3__110__function6__funcIN7testing6ActionIF11test_resulteEE13ActionAdapterENS_9allocatorIS7_EES5_E7__cloneEv
FNA:16,0,_ZNKSt3__110__function6__funcIN7testing6ActionIF11test_resultfEE13ActionAdapterENS_9allocatorIS7_EES5_E7__cloneEv
FNA:16,0,_ZNKSt3__110__function6__funcIN7testing6ActionIF11test_resultiEE13ActionAdapterENS_9allocatorIS7_EES5_E7__cloneEv
FNA:16,0,_ZNKSt3__110__function6__funcIN7testing6ActionIF11test_resultjEE13ActionAdapterENS_9allocatorIS7_EES5_E7__cloneEv
FNA:16,0,_ZNKSt3__110__function6__funcIN7testing6ActionIF11test_resultxEE13ActionAdapterENS_9allocatorIS7_EES5_E7__cloneEv
FNA:16,0,_ZNKSt3__110__function6__funcIN7testing6ActionIF11test_resultyEE13ActionAdapterENS_9allocatorIS7_EES5_E7__cloneEv
FNA:16,0,_ZNKSt3__110__function6__funcIN7testing6ActionIFPcmEE13ActionAdapterENS_9allocatorIS7_EES5_E7__cloneEv
FNA:16,0,_ZNKSt3__110__function6__funcIN7testing6ActionIFPimEE13ActionAdapterENS_9allocatorIS7_EES5_E7__cloneEv
FNA:16,0,_ZNKSt3__110__function6__funcIN7testing6ActionIFlPKvlEE13ActionAdapterENS_9allocatorIS8_EES6_E7__cloneEv
FNA:16,0,_ZNKSt3__110__function6__funcIN7testing6ActionIFmmEE13ActionAdapterENS_9allocatorIS6_EES4_E7__cloneEv
FNA:16,0,_ZNKSt3__110__function6__funcIZN11mock_bufferIcEC1EPcmEUlmE_NS_9allocatorIS5_EEFmmEE7__cloneEv
FNA:16,0,_ZNKSt3__110__function6__funcIZN11mock_bufferIiEC1EPimEUlmE_NS_9allocatorIS5_EEFmmEE7__cloneEv
FNA:16,0,_ZNKSt3__110__function6__funcIZN31buffer_test_append_partial_Test8TestBodyEvE3$_0NS_9allocatorIS3_EEFmmEE7__cloneEv
FNA:16,0,_ZNKSt3__110__function6__funcIZNK7testing8internal11ThrowActionISt9exceptionEcvNS2_6ActionIFT_DpT0_EEEIvJPcmEEEvEUlSE_mE_NS_9allocatorISF_EEFvSE_mEE7__cloneEv
FNL:17,299
FNA:17,3,_ZNKSt3__110__function6__funcI12check_customNS_9allocatorIS2_EEF11test_resultN3fmt3v1216basic_format_argINS7_7contextEE6handleEEE7__cloneEPNS0_6__baseISC_EE
FNA:17,2,_ZNKSt3__110__function6__funcIN7testing6ActionIF11test_resultN3fmt3v1216basic_format_argINS6_7contextEE6handleEEE13ActionAdapterENS_9allocatorISD_EESB_E7__cloneEPNS0_6__baseISB_EE
FNA:17,2,_ZNKSt3__110__function6__funcIN7testing6ActionIF11test_resultN3fmt3v1217basic_string_viewIcEEEE13ActionAdapterENS_9allocatorISB_EES9_E7__cloneEPNS0_6__baseIS9_EE
FNA:17,2,_ZNKSt3__110__function6__funcIN7testing6ActionIF11test_resultN3fmt3v129monostateEEE13ActionAdapterENS_9allocatorISA_EES8_E7__cloneEPNS0_6__baseIS8_EE
FNA:17,2,_ZNKSt3__110__function6__funcIN7testing6ActionIF11test_resultPKcEE13ActionAdapterENS_9allocatorIS9_EES7_E7__cloneEPNS0_6__baseIS7_EE
FNA:17,8,_ZNKSt3__110__function6__funcIN7testing6ActionIF11test_resultPKvEE13ActionAdapterENS_9allocatorIS9_EES7_E7__cloneEPNS0_6__baseIS7_EE
FNA:17,6,_ZNKSt3__110__function6__funcIN7testing6ActionIF11test_resultbEE13ActionAdapterENS_9allocatorIS7_EES5_E7__cloneEPNS0_6__baseIS5_EE
FNA:17,2,_ZNKSt3__110__function6__funcIN7testing6ActionIF11test_resultcEE13ActionAdapterENS_9allocatorIS7_EES5_E7__cloneEPNS0_6__baseIS5_EE
FNA:17,6,_ZNKSt3__110__function6__funcIN7testing6ActionIF11test_resultdEE13ActionAdapterENS_9allocatorIS7_EES5_E7__cloneEPNS0_6__baseIS5_EE
FNA:17,6,_ZNKSt3__110__function6__funcIN7testing6ActionIF11test_resulteEE13ActionAdapterENS_9allocatorIS7_EES5_E7__cloneEPNS0_6__baseIS5_EE
FNA:17,6,_ZNKSt3__110__function6__funcIN7testing6ActionIF11test_resultfEE13ActionAdapterENS_9allocatorIS7_EES5_E7__cloneEPNS0_6__baseIS5_EE
FNA:17,18,_ZNKSt3__110__function6__funcIN7testing6ActionIF11test_resultiEE13ActionAdapterENS_9allocatorIS7_EES5_E7__cloneEPNS0_6__baseIS5_EE
FNA:17,18,_ZNKSt3__110__function6__funcIN7testing6ActionIF11test_resultjEE13ActionAdapterENS_9allocatorIS7_EES5_E7__cloneEPNS0_6__baseIS5_EE
FNA:17,12,_ZNKSt3__110__function6__funcIN7testing6ActionIF11test_resultxEE13ActionAdapterENS_9allocatorIS7_EES5_E7__cloneEPNS0_6__baseIS5_EE
FNA:17,12,_ZNKSt3__110__function6__funcIN7testing6ActionIF11test_resultyEE13ActionAdapterENS_9allocatorIS7_EES5_E7__cloneEPNS0_6__baseIS5_EE
FNA:17,6,_ZNKSt3__110__function6__funcIN7testing6ActionIFPcmEE13ActionAdapterENS_9allocatorIS7_EES5_E7__cloneEPNS0_6__baseIS5_EE
FNA:17,8,_ZNKSt3__110__function6__funcIN7testing6ActionIFPimEE13ActionAdapterENS_9allocatorIS7_EES5_E7__cloneEPNS0_6__baseIS5_EE
FNA:17,6,_ZNKSt3__110__function6__funcIN7testing6ActionIFlPKvlEE13ActionAdapterENS_9allocatorIS8_EES6_E7__cloneEPNS0_6__baseIS6_EE
FNA:17,4,_ZNKSt3__110__function6__funcIN7testing6ActionIFmmEE13ActionAdapterENS_9allocatorIS6_EES4_E7__cloneEPNS0_6__baseIS4_EE
FNA:17,24,_ZNKSt3__110__function6__funcIZN11mock_bufferIcEC1EPcmEUlmE_NS_9allocatorIS5_EEFmmEE7__cloneEPNS0_6__baseIS8_EE
FNA:17,9,_ZNKSt3__110__function6__funcIZN11mock_bufferIiEC1EPimEUlmE_NS_9allocatorIS5_EEFmmEE7__cloneEPNS0_6__baseIS8_EE
FNA:17,3,_ZNKSt3__110__function6__funcIZN31buffer_test_append_partial_Test8TestBodyEvE3$_0NS_9allocatorIS3_EEFmmEE7__cloneEPNS0_6__baseIS6_EE
FNA:17,3,_ZNKSt3__110__function6__funcIZNK7testing8internal11ThrowActionISt9exceptionEcvNS2_6ActionIFT_DpT0_EEEIvJPcmEEEvEUlSE_mE_NS_9allocatorISF_EEFvSE_mEE7__cloneEPNS0_6__baseISI_EE
FNL:18,304
FNA:18,4,_ZNSt3__110__function6__funcI12check_customNS_9allocatorIS2_EEF11test_resultN3fmt3v1216basic_format_argINS7_7contextEE6handleEEE7destroyEv
FNA:18,3,_ZNSt3__110__function6__funcIN7testing6ActionIF11test_resultN3fmt3v1216basic_format_argINS6_7contextEE6handleEEE13ActionAdapterENS_9allocatorISD_EESB_E7destroyEv
FNA:18,3,_ZNSt3__110__function6__funcIN7testing6ActionIF11test_resultN3fmt3v1217basic_string_viewIcEEEE13ActionAdapterENS_9allocatorISB_EES9_E7destroyEv
FNA:18,3,_ZNSt3__110__function6__funcIN7testing6ActionIF11test_resultN3fmt3v129monostateEEE13ActionAdapterENS_9allocatorISA_EES8_E7destroyEv
FNA:18,3,_ZNSt3__110__function6__funcIN7testing6ActionIF11test_resultPKcEE13ActionAdapterENS_9allocatorIS9_EES7_E7destroyEv
FNA:18,12,_ZNSt3__110__function6__funcIN7testing6ActionIF11test_resultPKvEE13ActionAdapterENS_9allocatorIS9_EES7_E7destroyEv
FNA:18,9,_ZNSt3__110__function6__funcIN7testing6ActionIF11test_resultbEE13ActionAdapterENS_9allocatorIS7_EES5_E7destroyEv
FNA:18,3,_ZNSt3__110__function6__funcIN7testing6ActionIF11test_resultcEE13ActionAdapterENS_9allocatorIS7_EES5_E7destroyEv
FNA:18,9,_ZNSt3__110__function6__funcIN7testing6ActionIF11test_resultdEE13ActionAdapterENS_9allocatorIS7_EES5_E7destroyEv
FNA:18,9,_ZNSt3__110__function6__funcIN7testing6ActionIF11test_resulteEE13ActionAdapterENS_9allocatorIS7_EES5_E7destroyEv
FNA:18,9,_ZNSt3__110__function6__funcIN7testing6ActionIF11test_resultfEE13ActionAdapterENS_9allocatorIS7_EES5_E7destroyEv
FNA:18,27,_ZNSt3__110__function6__funcIN7testing6ActionIF11test_resultiEE13ActionAdapterENS_9allocatorIS7_EES5_E7destroyEv
FNA:18,27,_ZNSt3__110__function6__funcIN7testing6ActionIF11test_resultjEE13ActionAdapterENS_9allocatorIS7_EES5_E7destroyEv
FNA:18,18,_ZNSt3__110__function6__funcIN7testing6ActionIF11test_resultxEE13ActionAdapterENS_9allocatorIS7_EES5_E7destroyEv
FNA:18,18,_ZNSt3__110__function6__funcIN7testing6ActionIF11test_resultyEE13ActionAdapterENS_9allocatorIS7_EES5_E7destroyEv
FNA:18,9,_ZNSt3__110__function6__funcIN7testing6ActionIFPcmEE13ActionAdapterENS_9allocatorIS7_EES5_E7destroyEv
FNA:18,12,_ZNSt3__110__function6__funcIN7testing6ActionIFPimEE13ActionAdapterENS_9allocatorIS7_EES5_E7destroyEv
FNA:18,9,_ZNSt3__110__function6__funcIN7testing6ActionIFlPKvlEE13ActionAdapterENS_9allocatorIS8_EES6_E7destroyEv
FNA:18,6,_ZNSt3__110__function6__funcIN7testing6ActionIFmmEE13ActionAdapterENS_9allocatorIS6_EES4_E7destroyEv
FNA:18,32,_ZNSt3__110__function6__funcIZN11mock_bufferIcEC1EPcmEUlmE_NS_9allocatorIS5_EEFmmEE7destroyEv
FNA:18,12,_ZNSt3__110__function6__funcIZN11mock_bufferIiEC1EPimEUlmE_NS_9allocatorIS5_EEFmmEE7destroyEv
FNA:18,4,_ZNSt3__110__function6__funcIZN31buffer_test_append_partial_Test8TestBodyEvE3$_0NS_9allocatorIS3_EEFmmEE7destroyEv
FNA:18,4,_ZNSt3__110__function6__funcIZNK7testing8internal11ThrowActionISt9exceptionEcvNS2_6ActionIFT_DpT0_EEEIvJPcmEEEvEUlSE_mE_NS_9allocatorISF_EEFvSE_mEE7destroyEv
FNL:19,309
FNA:19,0,_ZNSt3__110__function6__funcI12check_customNS_9allocatorIS2_EEF11test_resultN3fmt3v1216basic_format_argINS7_7contextEE6handleEEE18destroy_deallocateEv
FNA:19,0,_ZNSt3__110__function6__funcIN7testing6ActionIF11test_resultN3fmt3v1216basic_format_argINS6_7contextEE6handleEEE13ActionAdapterENS_9allocatorISD_EESB_E18destroy_deallocateEv
FNA:19,0,_ZNSt3__110__function6__funcIN7testing6ActionIF11test_resultN3fmt3v1217basic_string_viewIcEEEE13ActionAdapterENS_9allocatorISB_EES9_E18destroy_deallocateEv
FNA:19,0,_ZNSt3__110__function6__funcIN7testing6ActionIF11test_resultN3fmt3v129monostateEEE13ActionAdapterENS_9allocatorISA_EES8_E18destroy_deallocateEv
FNA:19,0,_ZNSt3__110__function6__funcIN7testing6ActionIF11test_resultPKcEE13ActionAdapterENS_9allocatorIS9_EES7_E18destroy_deallocateEv
FNA:19,0,_ZNSt3__110__function6__funcIN7testing6ActionIF11test_resultPKvEE13ActionAdapterENS_9allocatorIS9_EES7_E18destroy_deallocateEv
FNA:19,0,_ZNSt3__110__function6__funcIN7testing6ActionIF11test_resultbEE13ActionAdapterENS_9allocatorIS7_EES5_E18destroy_deallocateEv
FNA:19,0,_ZNSt3__110__function6__funcIN7testing6ActionIF11test_resultcEE13ActionAdapterENS_9allocatorIS7_EES5_E18destroy_deallocateEv
FNA:19,0,_ZNSt3__110__function6__funcIN7testing6ActionIF11test_resultdEE13ActionAdapterENS_9allocatorIS7_EES5_E18destroy_deallocateEv
FNA:19,0,_ZNSt3__110__function6__funcIN7testing6ActionIF11test_resulteEE13ActionAdapterENS_9allocatorIS7_EES5_E18destroy_deallocateEv
FNA:19,0,_ZNSt3__110__function6__funcIN7testing6ActionIF11test_resultfEE13ActionAdapterENS_9allocatorIS7_EES5_E18destroy_deallocateEv
FNA:19,0,_ZNSt3__110__function6__funcIN7testing6ActionIF11test_resultiEE13ActionAdapterENS_9allocatorIS7_EES5_E18destroy_deallocateEv
FNA:19,0,_ZNSt3__110__function6__funcIN7testing6ActionIF11test_resultjEE13ActionAdapterENS_9allocatorIS7_EES5_E18destroy_deallocateEv
FNA:19,0,_ZNSt3__110__function6__funcIN7testing6ActionIF11test_resultxEE13ActionAdapterENS_9allocatorIS7_EES5_E18destroy_deallocateEv
FNA:19,0,_ZNSt3__110__function6__funcIN7testing6ActionIF11test_resultyEE13ActionAdapterENS_9allocatorIS7_EES5_E18destroy_deallocateEv
FNA:19,0,_ZNSt3__110__function6__funcIN7testing6ActionIFPcmEE13ActionAdapterENS_9allocatorIS7_EES5_E18destroy_deallocateEv
FNA:19,0,_ZNSt3__110__function6__funcIN7testing6ActionIFPimEE13ActionAdapterENS_9allocatorIS7_EES5_E18destroy_deallocateEv
FNA:19,0,_ZNSt3__110__function6__funcIN7testing6ActionIFlPKvlEE13ActionAdapterENS_9allocatorIS8_EES6_E18destroy_deallocateEv
FNA:19,0,_ZNSt3__110__function6__funcIN7testing6ActionIFmmEE13ActionAdapterENS_9allocatorIS6_EES4_E18destroy_deallocateEv
FNA:19,0,_ZNSt3__110__function6__funcIZN11mock_bufferIcEC1EPcmEUlmE_NS_9allocatorIS5_EEFmmEE18destroy_deallocateEv
FNA:19,0,_ZNSt3__110__function6__funcIZN11mock_bufferIiEC1EPimEUlmE_NS_9allocatorIS5_EEFmmEE18destroy_deallocateEv
FNA:19,0,_ZNSt3__110__function6__funcIZN31buffer_test_append_partial_Test8TestBodyEvE3$_0NS_9allocatorIS3_EEFmmEE18destroy_deallocateEv
FNA:19,0,_ZNSt3__110__function6__funcIZNK7testing8internal11ThrowActionISt9exceptionEcvNS2_6ActionIFT_DpT0_EEEIvJPcmEEEvEUlSE_mE_NS_9allocatorISF_EEFvSE_mEE18destroy_deallocateEv
FNL:20,318
FNA:20,1,_ZNSt3__110__function6__funcI12check_customNS_9allocatorIS2_EEF11test_resultN3fmt3v1216basic_format_argINS7_7contextEE6handleEEEclEOSB_
FNA:20,0,_ZNSt3__110__function6__funcIN7testing6ActionIF11test_resultN3fmt3v1216basic_format_argINS6_7contextEE6handleEEE13ActionAdapterENS_9allocatorISD_EESB_EclEOSA_
FNA:20,1,_ZNSt3__110__function6__funcIN7testing6ActionIF11test_resultN3fmt3v1217basic_string_viewIcEEEE13ActionAdapterENS_9allocatorISB_EES9_EclEOS8_
FNA:20,1,_ZNSt3__110__function6__funcIN7testing6ActionIF11test_resultN3fmt3v129monostateEEE13ActionAdapterENS_9allocatorISA_EES8_EclEOS7_
FNA:20,1,_ZNSt3__110__function6__funcIN7testing6ActionIF11test_resultPKcEE13ActionAdapterENS_9allocatorIS9_EES7_EclEOS6_
FNA:20,4,_ZNSt3__110__function6__funcIN7testing6ActionIF11test_resultPKvEE13ActionAdapterENS_9allocatorIS9_EES7_EclEOS6_
FNA:20,3,_ZNSt3__110__function6__funcIN7testing6ActionIF11test_resultbEE13ActionAdapterENS_9allocatorIS7_EES5_EclEOb
FNA:20,1,_ZNSt3__110__function6__funcIN7testing6ActionIF11test_resultcEE13ActionAdapterENS_9allocatorIS7_EES5_EclEOc
FNA:20,3,_ZNSt3__110__function6__funcIN7testing6ActionIF11test_resultdEE13ActionAdapterENS_9allocatorIS7_EES5_EclEOd
FNA:20,3,_ZNSt3__110__function6__funcIN7testing6ActionIF11test_resulteEE13ActionAdapterENS_9allocatorIS7_EES5_EclEOe
FNA:20,3,_ZNSt3__110__function6__funcIN7testing6ActionIF11test_resultfEE13ActionAdapterENS_9allocatorIS7_EES5_EclEOf
FNA:20,9,_ZNSt3__110__function6__funcIN7testing6ActionIF11test_resultiEE13ActionAdapterENS_9allocatorIS7_EES5_EclEOi
FNA:20,9,_ZNSt3__110__function6__funcIN7testing6ActionIF11test_resultjEE13ActionAdapterENS_9allocatorIS7_EES5_EclEOj
FNA:20,6,_ZNSt3__110__function6__funcIN7testing6ActionIF11test_resultxEE13ActionAdapterENS_9allocatorIS7_EES5_EclEOx
FNA:20,6,_ZNSt3__110__function6__funcIN7testing6ActionIF11test_resultyEE13ActionAdapterENS_9allocatorIS7_EES5_EclEOy
FNA:20,3,_ZNSt3__110__function6__funcIN7testing6ActionIFPcmEE13ActionAdapterENS_9allocatorIS7_EES5_EclEOm
FNA:20,4,_ZNSt3__110__function6__funcIN7testing6ActionIFPimEE13ActionAdapterENS_9allocatorIS7_EES5_EclEOm
FNA:20,3,_ZNSt3__110__function6__funcIN7testing6ActionIFlPKvlEE13ActionAdapterENS_9allocatorIS8_EES6_EclEOS5_Ol
FNA:20,2,_ZNSt3__110__function6__funcIN7testing6ActionIFmmEE13ActionAdapterENS_9allocatorIS6_EES4_EclEOm
FNA:20,5,_ZNSt3__110__function6__funcIZN11mock_bufferIcEC1EPcmEUlmE_NS_9allocatorIS5_EEFmmEEclEOm
FNA:20,0,_ZNSt3__110__function6__funcIZN11mock_bufferIiEC1EPimEUlmE_NS_9allocatorIS5_EEFmmEEclEOm
FNA:20,1,_ZNSt3__110__function6__funcIZN31buffer_test_append_partial_Test8TestBodyEvE3$_0NS_9allocatorIS3_EEFmmEEclEOm
FNA:20,1,_ZNSt3__110__function6__funcIZNK7testing8internal11ThrowActionISt9exceptionEcvNS2_6ActionIFT_DpT0_EEEIvJPcmEEEvEUlSE_mE_NS_9allocatorISF_EEFvSE_mEEclEOSE_Om
FNL:21,325
FNA:21,0,_ZNKSt3__110__function6__funcI12check_customNS_9allocatorIS2_EEF11test_resultN3fmt3v1216basic_format_argINS7_7contextEE6handleEEE6targetERKSt9type_info
FNA:21,0,_ZNKSt3__110__function6__funcIN7testing6ActionIF11test_resultN3fmt3v1216basic_format_argINS6_7contextEE6handleEEE13ActionAdapterENS_9allocatorISD_EESB_E6targetERKSt9type_info
FNA:21,0,_ZNKSt3__110__function6__funcIN7testing6ActionIF11test_resultN3fmt3v1217basic_string_viewIcEEEE13ActionAdapterENS_9allocatorISB_EES9_E6targetERKSt9type_info
FNA:21,0,_ZNKSt3__110__function6__funcIN7testing6ActionIF11test_resultN3fmt3v129monostateEEE13ActionAdapterENS_9allocatorISA_EES8_E6targetERKSt9type_info
FNA:21,0,_ZNKSt3__110__function6__funcIN7testing6ActionIF11test_resultPKcEE13ActionAdapterENS_9allocatorIS9_EES7_E6targetERKSt9type_info
FNA:21,0,_ZNKSt3__110__function6__funcIN7testing6ActionIF11test_resultPKvEE13ActionAdapterENS_9allocatorIS9_EES7_E6targetERKSt9type_info
FNA:21,0,_ZNKSt3__110__function6__funcIN7testing6ActionIF11test_resultbEE13ActionAdapterENS_9allocatorIS7_EES5_E6targetERKSt9type_info
FNA:21,0,_ZNKSt3__110__function6__funcIN7testing6ActionIF11test_resultcEE13ActionAdapterENS_9allocatorIS7_EES5_E6targetERKSt9type_info
FNA:21,0,_ZNKSt3__110__function6__funcIN7testing6ActionIF11test_resultdEE13ActionAdapterENS_9allocatorIS7_EES5_E6targetERKSt9type_info
FNA:21,0,_ZNKSt3__110__function6__funcIN7testing6ActionIF11test_resulteEE13ActionAdapterENS_9allocatorIS7_EES5_E6targetERKSt9type_info
FNA:21,0,_ZNKSt3__110__function6__funcIN7testing6ActionIF11test_resultfEE13ActionAdapterENS_9allocatorIS7_EES5_E6targetERKSt9type_info
FNA:21,0,_ZNKSt3__110__function6__funcIN7testing6ActionIF11test_resultiEE13ActionAdapterENS_9allocatorIS7_EES5_E6targetERKSt9type_info
FNA:21,0,_ZNKSt3__110__function6__funcIN7testing6ActionIF11test_resultjEE13ActionAdapterENS_9allocatorIS7_EES5_E6targetERKSt9type_info
FNA:21,0,_ZNKSt3__110__function6__funcIN7testing6ActionIF11test_resultxEE13ActionAdapterENS_9allocatorIS7_EES5_E6targetERKSt9type_info
FNA:21,0,_ZNKSt3__110__function6__funcIN7testing6ActionIF11test_resultyEE13ActionAdapterENS_9allocatorIS7_EES5_E6targetERKSt9type_info
FNA:21,0,_ZNKSt3__110__function6__funcIN7testing6ActionIFPcmEE13ActionAdapterENS_9allocatorIS7_EES5_E6targetERKSt9type_info
FNA:21,0,_ZNKSt3__110__function6__funcIN7testing6ActionIFPimEE13ActionAdapterENS_9allocatorIS7_EES5_E6targetERKSt9type_info
FNA:21,0,_ZNKSt3__110__function6__funcIN7testing6ActionIFlPKvlEE13ActionAdapterENS_9allocatorIS8_EES6_E6targetERKSt9type_info
FNA:21,0,_ZNKSt3__110__function6__funcIN7testing6ActionIFmmEE13ActionAdapterENS_9allocatorIS6_EES4_E6targetERKSt9type_info
FNA:21,0,_ZNKSt3__110__function6__funcIZN11mock_bufferIcEC1EPcmEUlmE_NS_9allocatorIS5_EEFmmEE6targetERKSt9type_info
FNA:21,0,_ZNKSt3__110__function6__funcIZN11mock_bufferIiEC1EPimEUlmE_NS_9allocatorIS5_EEFmmEE6targetERKSt9type_info
FNA:21,0,_ZNKSt3__110__function6__funcIZN31buffer_test_append_partial_Test8TestBodyEvE3$_0NS_9allocatorIS3_EEFmmEE6targetERKSt9type_info
FNA:21,0,_ZNKSt3__110__function6__funcIZNK7testing8internal11ThrowActionISt9exceptionEcvNS2_6ActionIFT_DpT0_EEEIvJPcmEEEvEUlSE_mE_NS_9allocatorISF_EEFvSE_mEE6targetERKSt9type_info
FNL:22,332
FNA:22,0,_ZNKSt3__110__function6__funcI12check_customNS_9allocatorIS2_EEF11test_resultN3fmt3v1216basic_format_argINS7_7contextEE6handleEEE11target_typeEv
FNA:22,0,_ZNKSt3__110__function6__funcIN7testing6ActionIF11test_resultN3fmt3v1216basic_format_argINS6_7contextEE6handleEEE13ActionAdapterENS_9allocatorISD_EESB_E11target_typeEv
FNA:22,0,_ZNKSt3__110__function6__funcIN7testing6ActionIF11test_resultN3fmt3v1217basic_string_viewIcEEEE13ActionAdapterENS_9allocatorISB_EES9_E11target_typeEv
FNA:22,0,_ZNKSt3__110__function6__funcIN7testing6ActionIF11test_resultN3fmt3v129monostateEEE13ActionAdapterENS_9allocatorISA_EES8_E11target_typeEv
FNA:22,0,_ZNKSt3__110__function6__funcIN7testing6ActionIF11test_resultPKcEE13ActionAdapterENS_9allocatorIS9_EES7_E11target_typeEv
FNA:22,0,_ZNKSt3__110__function6__funcIN7testing6ActionIF11test_resultPKvEE13ActionAdapterENS_9allocatorIS9_EES7_E11target_typeEv
FNA:22,0,_ZNKSt3__110__function6__funcIN7testing6ActionIF11test_resultbEE13ActionAdapterENS_9allocatorIS7_EES5_E11target_typeEv
FNA:22,0,_ZNKSt3__110__function6__funcIN7testing6ActionIF11test_resultcEE13ActionAdapterENS_9allocatorIS7_EES5_E11target_typeEv
FNA:22,0,_ZNKSt3__110__function6__funcIN7testing6ActionIF11test_resultdEE13ActionAdapterENS_9allocatorIS7_EES5_E11target_typeEv
FNA:22,0,_ZNKSt3__110__function6__funcIN7testing6ActionIF11test_resulteEE13ActionAdapterENS_9allocatorIS7_EES5_E11target_typeEv
FNA:22,0,_ZNKSt3__110__function6__funcIN7testing6ActionIF11test_resultfEE13ActionAdapterENS_9allocatorIS7_EES5_E11target_typeEv
FNA:22,0,_ZNKSt3__110__function6__funcIN7testing6ActionIF11test_resultiEE13ActionAdapterENS_9allocatorIS7_EES5_E11target_typeEv
FNA:22,0,_ZNKSt3__110__function6__funcIN7testing6ActionIF11test_resultjEE13ActionAdapterENS_9allocatorIS7_EES5_E11target_typeEv
FNA:22,0,_ZNKSt3__110__function6__funcIN7testing6ActionIF11test_resultxEE13ActionAdapterENS_9allocatorIS7_EES5_E11target_typeEv
FNA:22,0,_ZNKSt3__110__function6__funcIN7testing6ActionIF11test_resultyEE13ActionAdapterENS_9allocatorIS7_EES5_E11target_typeEv
FNA:22,0,_ZNKSt3__110__function6__funcIN7testing6ActionIFPcmEE13ActionAdapterENS_9allocatorIS7_EES5_E11target_typeEv
FNA:22,0,_ZNKSt3__110__function6__funcIN7testing6ActionIFPimEE13ActionAdapterENS_9allocatorIS7_EES5_E11target_typeEv
FNA:22,0,_ZNKSt3__110__function6__funcIN7testing6ActionIFlPKvlEE13ActionAdapterENS_9allocatorIS8_EES6_E11target_typeEv
FNA:22,0,_ZNKSt3__110__function6__funcIN7testing6ActionIFmmEE13ActionAdapterENS_9allocatorIS6_EES4_E11target_typeEv
FNA:22,0,_ZNKSt3__110__function6__funcIZN11mock_bufferIcEC1EPcmEUlmE_NS_9allocatorIS5_EEFmmEE11target_typeEv
FNA:22,0,_ZNKSt3__110__function6__funcIZN11mock_bufferIiEC1EPimEUlmE_NS_9allocatorIS5_EEFmmEE11target_typeEv
FNA:22,0,_ZNKSt3__110__function6__funcIZN31buffer_test_append_partial_Test8TestBodyEvE3$_0NS_9allocatorIS3_EEFmmEE11target_typeEv
FNA:22,0,_ZNKSt3__110__function6__funcIZNK7testing8internal11ThrowActionISt9exceptionEcvNS2_6ActionIFT_DpT0_EEEIvJPcmEEEvEUlSE_mE_NS_9allocatorISF_EEFvSE_mEE11target_typeEv
FNL:23,352
FNA:23,7,_ZNSt3__110__function12__value_funcIF11test_resultN3fmt3v1216basic_format_argINS4_7contextEE6handleEEE9__as_baseB8ne200100EPv
FNA:23,3,_ZNSt3__110__function12__value_funcIF11test_resultN3fmt3v1217basic_string_viewIcEEEE9__as_baseB8ne200100EPv
FNA:23,3,_ZNSt3__110__function12__value_funcIF11test_resultN3fmt3v129monostateEEE9__as_baseB8ne200100EPv
FNA:23,3,_ZNSt3__110__function12__value_funcIF11test_resultPKcEE9__as_baseB8ne200100EPv
FNA:23,12,_ZNSt3__110__function12__value_funcIF11test_resultPKvEE9__as_baseB8ne200100EPv
FNA:23,9,_ZNSt3__110__function12__value_funcIF11test_resultbEE9__as_baseB8ne200100EPv
FNA:23,3,_ZNSt3__110__function12__value_funcIF11test_resultcEE9__as_baseB8ne200100EPv
FNA:23,9,_ZNSt3__110__function12__value_funcIF11test_resultdEE9__as_baseB8ne200100EPv
FNA:23,9,_ZNSt3__110__function12__value_funcIF11test_resulteEE9__as_baseB8ne200100EPv
FNA:23,9,_ZNSt3__110__function12__value_funcIF11test_resultfEE9__as_baseB8ne200100EPv
FNA:23,27,_ZNSt3__110__function12__value_funcIF11test_resultiEE9__as_baseB8ne200100EPv
FNA:23,27,_ZNSt3__110__function12__value_funcIF11test_resultjEE9__as_baseB8ne200100EPv
FNA:23,18,_ZNSt3__110__function12__value_funcIF11test_resultxEE9__as_baseB8ne200100EPv
FNA:23,18,_ZNSt3__110__function12__value_funcIF11test_resultyEE9__as_baseB8ne200100EPv
FNA:23,6,_ZNSt3__110__function12__value_funcIFPcmEE9__as_baseB8ne200100EPv
FNA:23,8,_ZNSt3__110__function12__value_funcIFPimEE9__as_baseB8ne200100EPv
FNA:23,6,_ZNSt3__110__function12__value_funcIFlPKvlEE9__as_baseB8ne200100EPv
FNA:23,63,_ZNSt3__110__function12__value_funcIFmmEE9__as_baseB8ne200100EPv
FNA:23,4,_ZNSt3__110__function12__value_funcIFvPcmEE9__as_baseB8ne200100EPv
FNA:23,0,_ZNSt3__110__function12__value_funcIFvPimEE9__as_baseB8ne200100EPv
FNA:23,0,_ZNSt3__110__function12__value_funcIFvvEE9__as_baseB8ne200100EPv
FNL:24,355
FNA:24,3,_ZNSt3__110__function12__value_funcIF11test_resultN3fmt3v1216basic_format_argINS4_7contextEE6handleEEEC1B8ne200100Ev
FNA:24,3,_ZNSt3__110__function12__value_funcIF11test_resultN3fmt3v1216basic_format_argINS4_7contextEE6handleEEEC2B8ne200100Ev
FNA:24,2,_ZNSt3__110__function12__value_funcIF11test_resultN3fmt3v1217basic_string_viewIcEEEEC1B8ne200100Ev
FNA:24,2,_ZNSt3__110__function12__value_funcIF11test_resultN3fmt3v1217basic_string_viewIcEEEEC2B8ne200100Ev
FNA:24,2,_ZNSt3__110__function12__value_funcIF11test_resultN3fmt3v129monostateEEEC1B8ne200100Ev
FNA:24,2,_ZNSt3__110__function12__value_funcIF11test_resultN3fmt3v129monostateEEEC2B8ne200100Ev
FNA:24,2,_ZNSt3__110__function12__value_funcIF11test_resultPKcEEC1B8ne200100Ev
FNA:24,2,_ZNSt3__110__function12__value_funcIF11test_resultPKcEEC2B8ne200100Ev
FNA:24,8,_ZNSt3__110__function12__value_funcIF11test_resultPKvEEC1B8ne200100Ev
FNA:24,8,_ZNSt3__110__function12__value_funcIF11test_resultPKvEEC2B8ne200100Ev
FNA:24,6,_ZNSt3__110__function12__value_funcIF11test_resultbEEC1B8ne200100Ev
FNA:24,6,_ZNSt3__110__function12__value_funcIF11test_resultbEEC2B8ne200100Ev
FNA:24,2,_ZNSt3__110__function12__value_funcIF11test_resultcEEC1B8ne200100Ev
FNA:24,2,_ZNSt3__110__function12__value_funcIF11test_resultcEEC2B8ne200100Ev
FNA:24,6,_ZNSt3__110__function12__value_funcIF11test_resultdEEC1B8ne200100Ev
FNA:24,6,_ZNSt3__110__function12__value_funcIF11test_resultdEEC2B8ne200100Ev
FNA:24,6,_ZNSt3__110__function12__value_funcIF11test_resulteEEC1B8ne200100Ev
FNA:24,6,_ZNSt3__110__function12__value_funcIF11test_resulteEEC2B8ne200100Ev
FNA:24,6,_ZNSt3__110__function12__value_funcIF11test_resultfEEC1B8ne200100Ev
FNA:24,6,_ZNSt3__110__function12__value_funcIF11test_resultfEEC2B8ne200100Ev
FNA:24,18,_ZNSt3__110__function12__value_funcIF11test_resultiEEC1B8ne200100Ev
FNA:24,18,_ZNSt3__110__function12__value_funcIF11test_resultiEEC2B8ne200100Ev
FNA:24,18,_ZNSt3__110__function12__value_funcIF11test_resultjEEC1B8ne200100Ev
FNA:24,18,_ZNSt3__110__function12__value_funcIF11test_resultjEEC2B8ne200100Ev
FNA:24,12,_ZNSt3__110__function12__value_funcIF11test_resultxEEC1B8ne200100Ev
FNA:24,12,_ZNSt3__110__function12__value_funcIF11test_resultxEEC2B8ne200100Ev
FNA:24,12,_ZNSt3__110__function12__value_funcIF11test_resultyEEC1B8ne200100Ev
FNA:24,12,_ZNSt3__110__function12__value_funcIF11test_resultyEEC2B8ne200100Ev
FNA:24,3,_ZNSt3__110__function12__value_funcIFPcmEEC1B8ne200100Ev
FNA:24,3,_ZNSt3__110__function12__value_funcIFPcmEEC2B8ne200100Ev
FNA:24,4,_ZNSt3__110__function12__value_funcIFPimEEC1B8ne200100Ev
FNA:24,4,_ZNSt3__110__function12__value_funcIFPimEEC2B8ne200100Ev
FNA:24,3,_ZNSt3__110__function12__value_funcIFlPKvlEEC1B8ne200100Ev
FNA:24,3,_ZNSt3__110__function12__value_funcIFlPKvlEEC2B8ne200100Ev
FNA:24,31,_ZNSt3__110__function12__value_funcIFmmEEC1B8ne200100Ev
FNA:24,31,_ZNSt3__110__function12__value_funcIFmmEEC2B8ne200100Ev
FNA:24,4,_ZNSt3__110__function12__value_funcIFvPcmEEC1B8ne200100Ev
FNA:24,4,_ZNSt3__110__function12__value_funcIFvPcmEEC2B8ne200100Ev
FNA:24,4,_ZNSt3__110__function12__value_funcIFvPimEEC1B8ne200100Ev
FNA:24,4,_ZNSt3__110__function12__value_funcIFvPimEEC2B8ne200100Ev
FNL:25,358
FNA:25,1,_ZNSt3__110__function12__value_funcIF11test_resultN3fmt3v1216basic_format_argINS4_7contextEE6handleEEEC1B8ne200100I12check_customNS_9allocatorISC_EEEEOT_RKT0_
FNA:25,1,_ZNSt3__110__function12__value_funcIF11test_resultN3fmt3v1216basic_format_argINS4_7contextEE6handleEEEC1B8ne200100IN7testing6ActionIS9_E13ActionAdapterENS_9allocatorISF_EEEEOT_RKT0_
FNA:25,1,_ZNSt3__110__function12__value_funcIF11test_resultN3fmt3v1216basic_format_argINS4_7contextEE6handleEEEC2B8ne200100I12check_customNS_9allocatorISC_EEEEOT_RKT0_
FNA:25,1,_ZNSt3__110__function12__value_funcIF11test_resultN3fmt3v1216basic_format_argINS4_7contextEE6handleEEEC2B8ne200100IN7testing6ActionIS9_E13ActionAdapterENS_9allocatorISF_EEEEOT_RKT0_
FNA:25,1,_ZNSt3__110__function12__value_funcIF11test_resultN3fmt3v1217basic_string_viewIcEEEEC1B8ne200100IN7testing6ActionIS7_E13ActionAdapterENS_9allocatorISD_EEEEOT_RKT0_
FNA:25,1,_ZNSt3__110__function12__value_funcIF11test_resultN3fmt3v1217basic_string_viewIcEEEEC2B8ne200100IN7testing6ActionIS7_E13ActionAdapterENS_9allocatorISD_EEEEOT_RKT0_
FNA:25,1,_ZNSt3__110__function12__value_funcIF11test_resultN3fmt3v129monostateEEEC1B8ne200100IN7testing6ActionIS6_E13ActionAdapterENS_9allocatorISC_EEEEOT_RKT0_
FNA:25,1,_ZNSt3__110__function12__value_funcIF11test_resultN3fmt3v129monostateEEEC2B8ne200100IN7testing6ActionIS6_E13ActionAdapterENS_9allocatorISC_EEEEOT_RKT0_
FNA:25,1,_ZNSt3__110__function12__value_funcIF11test_resultPKcEEC1B8ne200100IN7testing6ActionIS5_E13ActionAdapterENS_9allocatorISB_EEEEOT_RKT0_
FNA:25,1,_ZNSt3__110__function12__value_funcIF11test_resultPKcEEC2B8ne200100IN7testing6ActionIS5_E13ActionAdapterENS_9allocatorISB_EEEEOT_RKT0_
FNA:25,4,_ZNSt3__110__function12__value_funcIF11test_resultPKvEEC1B8ne200100IN7testing6ActionIS5_E13ActionAdapterENS_9allocatorISB_EEEEOT_RKT0_
FNA:25,4,_ZNSt3__110__function12__value_funcIF11test_resultPKvEEC2B8ne200100IN7testing6ActionIS5_E13ActionAdapterENS_9allocatorISB_EEEEOT_RKT0_
FNA:25,3,_ZNSt3__110__function12__value_funcIF11test_resultbEEC1B8ne200100IN7testing6ActionIS3_E13ActionAdapterENS_9allocatorIS9_EEEEOT_RKT0_
FNA:25,3,_ZNSt3__110__function12__value_funcIF11test_resultbEEC2B8ne200100IN7testing6ActionIS3_E13ActionAdapterENS_9allocatorIS9_EEEEOT_RKT0_
FNA:25,1,_ZNSt3__110__function12__value_funcIF11test_resultcEEC1B8ne200100IN7testing6ActionIS3_E13ActionAdapterENS_9allocatorIS9_EEEEOT_RKT0_
FNA:25,1,_ZNSt3__110__function12__value_funcIF11test_resultcEEC2B8ne200100IN7testing6ActionIS3_E13ActionAdapterENS_9allocatorIS9_EEEEOT_RKT0_
FNA:25,3,_ZNSt3__110__function12__value_funcIF11test_resultdEEC1B8ne200100IN7testing6ActionIS3_E13ActionAdapterENS_9allocatorIS9_EEEEOT_RKT0_
FNA:25,3,_ZNSt3__110__function12__value_funcIF11test_resultdEEC2B8ne200100IN7testing6ActionIS3_E13ActionAdapterENS_9allocatorIS9_EEEEOT_RKT0_
FNA:25,3,_ZNSt3__110__function12__value_funcIF11test_resulteEEC1B8ne200100IN7testing6ActionIS3_E13ActionAdapterENS_9allocatorIS9_EEEEOT_RKT0_
FNA:25,3,_ZNSt3__110__function12__value_funcIF11test_resulteEEC2B8ne200100IN7testing6ActionIS3_E13ActionAdapterENS_9allocatorIS9_EEEEOT_RKT0_
FNA:25,3,_ZNSt3__110__function12__value_funcIF11test_resultfEEC1B8ne200100IN7testing6ActionIS3_E13ActionAdapterENS_9allocatorIS9_EEEEOT_RKT0_
FNA:25,3,_ZNSt3__110__function12__value_funcIF11test_resultfEEC2B8ne200100IN7testing6ActionIS3_E13ActionAdapterENS_9allocatorIS9_EEEEOT_RKT0_
FNA:25,9,_ZNSt3__110__function12__value_funcIF11test_resultiEEC1B8ne200100IN7testing6ActionIS3_E13ActionAdapterENS_9allocatorIS9_EEEEOT_RKT0_
FNA:25,9,_ZNSt3__110__function12__value_funcIF11test_resultiEEC2B8ne200100IN7testing6ActionIS3_E13ActionAdapterENS_9allocatorIS9_EEEEOT_RKT0_
FNA:25,9,_ZNSt3__110__function12__value_funcIF11test_resultjEEC1B8ne200100IN7testing6ActionIS3_E13ActionAdapterENS_9allocatorIS9_EEEEOT_RKT0_
FNA:25,9,_ZNSt3__110__function12__value_funcIF11test_resultjEEC2B8ne200100IN7testing6ActionIS3_E13ActionAdapterENS_9allocatorIS9_EEEEOT_RKT0_
FNA:25,6,_ZNSt3__110__function12__value_funcIF11test_resultxEEC1B8ne200100IN7testing6ActionIS3_E13ActionAdapterENS_9allocatorIS9_EEEEOT_RKT0_
FNA:25,6,_ZNSt3__110__function12__value_funcIF11test_resultxEEC2B8ne200100IN7testing6ActionIS3_E13ActionAdapterENS_9allocatorIS9_EEEEOT_RKT0_
FNA:25,6,_ZNSt3__110__function12__value_funcIF11test_resultyEEC1B8ne200100IN7testing6ActionIS3_E13ActionAdapterENS_9allocatorIS9_EEEEOT_RKT0_
FNA:25,6,_ZNSt3__110__function12__value_funcIF11test_resultyEEC2B8ne200100IN7testing6ActionIS3_E13ActionAdapterENS_9allocatorIS9_EEEEOT_RKT0_
FNA:25,3,_ZNSt3__110__function12__value_funcIFPcmEEC1B8ne200100IN7testing6ActionIS3_E13ActionAdapterENS_9allocatorIS9_EEEEOT_RKT0_
FNA:25,3,_ZNSt3__110__function12__value_funcIFPcmEEC2B8ne200100IN7testing6ActionIS3_E13ActionAdapterENS_9allocatorIS9_EEEEOT_RKT0_
FNA:25,4,_ZNSt3__110__function12__value_funcIFPimEEC1B8ne200100IN7testing6ActionIS3_E13ActionAdapterENS_9allocatorIS9_EEEEOT_RKT0_
FNA:25,4,_ZNSt3__110__function12__value_funcIFPimEEC2B8ne200100IN7testing6ActionIS3_E13ActionAdapterENS_9allocatorIS9_EEEEOT_RKT0_
FNA:25,3,_ZNSt3__110__function12__value_funcIFlPKvlEEC1B8ne200100IN7testing6ActionIS4_E13ActionAdapterENS_9allocatorISA_EEEEOT_RKT0_
FNA:25,3,_ZNSt3__110__function12__value_funcIFlPKvlEEC2B8ne200100IN7testing6ActionIS4_E13ActionAdapterENS_9allocatorISA_EEEEOT_RKT0_
FNA:25,2,_ZNSt3__110__function12__value_funcIFmmEEC1B8ne200100IN7testing6ActionIS2_E13ActionAdapterENS_9allocatorIS8_EEEEOT_RKT0_
FNA:25,8,_ZNSt3__110__function12__value_funcIFmmEEC1B8ne200100IZN11mock_bufferIcEC1EPcmEUlmE_NS_9allocatorIS8_EEEEOT_RKT0_
FNA:25,3,_ZNSt3__110__function12__value_funcIFmmEEC1B8ne200100IZN11mock_bufferIiEC1EPimEUlmE_NS_9allocatorIS8_EEEEOT_RKT0_
FNA:25,1,_ZNSt3__110__function12__value_funcIFmmEEC1B8ne200100IZN31buffer_test_append_partial_Test8TestBodyEvE3$_0NS_9allocatorIS6_EEEEOT_RKT0_
FNA:25,2,_ZNSt3__110__function12__value_funcIFmmEEC2B8ne200100IN7testing6ActionIS2_E13ActionAdapterENS_9allocatorIS8_EEEEOT_RKT0_
FNA:25,8,_ZNSt3__110__function12__value_funcIFmmEEC2B8ne200100IZN11mock_bufferIcEC1EPcmEUlmE_NS_9allocatorIS8_EEEEOT_RKT0_
FNA:25,3,_ZNSt3__110__function12__value_funcIFmmEEC2B8ne200100IZN11mock_bufferIiEC1EPimEUlmE_NS_9allocatorIS8_EEEEOT_RKT0_
FNA:25,1,_ZNSt3__110__function12__value_funcIFmmEEC2B8ne200100IZN31buffer_test_append_partial_Test8TestBodyEvE3$_0NS_9allocatorIS6_EEEEOT_RKT0_
FNA:25,1,_ZNSt3__110__function12__value_funcIFvPcmEEC1B8ne200100IZNK7testing8internal11ThrowActionISt9exceptionEcvNS6_6ActionIFT_DpT0_EEEIvJS2_mEEEvEUlS2_mE_NS_9allocatorISI_EEEEOSC_RKT0_
FNA:25,1,_ZNSt3__110__function12__value_funcIFvPcmEEC2B8ne200100IZNK7testing8internal11ThrowActionISt9exceptionEcvNS6_6ActionIFT_DpT0_EEEIvJS2_mEEEvEUlS2_mE_NS_9allocatorISI_EEEEOSC_RKT0_
FNL:26,378
FNA:26,1,_ZNSt3__110__function12__value_funcIF11test_resultN3fmt3v1216basic_format_argINS4_7contextEE6handleEEEC1B8ne200100I12check_customLi0EEEOT_
FNA:26,1,_ZNSt3__110__function12__value_funcIF11test_resultN3fmt3v1216basic_format_argINS4_7contextEE6handleEEEC1B8ne200100IN7testing6ActionIS9_E13ActionAdapterELi0EEEOT_
FNA:26,1,_ZNSt3__110__function12__value_funcIF11test_resultN3fmt3v1217basic_string_viewIcEEEEC1B8ne200100IN7testing6ActionIS7_E13ActionAdapterELi0EEEOT_
FNA:26,1,_ZNSt3__110__function12__value_funcIF11test_resultN3fmt3v129monostateEEEC1B8ne200100IN7testing6ActionIS6_E13ActionAdapterELi0EEEOT_
FNA:26,1,_ZNSt3__110__function12__value_funcIF11test_resultPKcEEC1B8ne200100IN7testing6ActionIS5_E13ActionAdapterELi0EEEOT_
FNA:26,4,_ZNSt3__110__function12__value_funcIF11test_resultPKvEEC1B8ne200100IN7testing6ActionIS5_E13ActionAdapterELi0EEEOT_
FNA:26,3,_ZNSt3__110__function12__value_funcIF11test_resultbEEC1B8ne200100IN7testing6ActionIS3_E13ActionAdapterELi0EEEOT_
FNA:26,1,_ZNSt3__110__function12__value_funcIF11test_resultcEEC1B8ne200100IN7testing6ActionIS3_E13ActionAdapterELi0EEEOT_
FNA:26,3,_ZNSt3__110__function12__value_funcIF11test_resultdEEC1B8ne200100IN7testing6ActionIS3_E13ActionAdapterELi0EEEOT_
FNA:26,3,_ZNSt3__110__function12__value_funcIF11test_resulteEEC1B8ne200100IN7testing6ActionIS3_E13ActionAdapterELi0EEEOT_
FNA:26,3,_ZNSt3__110__function12__value_funcIF11test_resultfEEC1B8ne200100IN7testing6ActionIS3_E13ActionAdapterELi0EEEOT_
FNA:26,9,_ZNSt3__110__function12__value_funcIF11test_resultiEEC1B8ne200100IN7testing6ActionIS3_E13ActionAdapterELi0EEEOT_
FNA:26,9,_ZNSt3__110__function12__value_funcIF11test_resultjEEC1B8ne200100IN7testing6ActionIS3_E13ActionAdapterELi0EEEOT_
FNA:26,6,_ZNSt3__110__function12__value_funcIF11test_resultxEEC1B8ne200100IN7testing6ActionIS3_E13ActionAdapterELi0EEEOT_
FNA:26,6,_ZNSt3__110__function12__value_funcIF11test_resultyEEC1B8ne200100IN7testing6ActionIS3_E13ActionAdapterELi0EEEOT_
FNA:26,3,_ZNSt3__110__function12__value_funcIFPcmEEC1B8ne200100IN7testing6ActionIS3_E13ActionAdapterELi0EEEOT_
FNA:26,4,_ZNSt3__110__function12__value_funcIFPimEEC1B8ne200100IN7testing6ActionIS3_E13ActionAdapterELi0EEEOT_
FNA:26,3,_ZNSt3__110__function12__value_funcIFlPKvlEEC1B8ne200100IN7testing6ActionIS4_E13ActionAdapterELi0EEEOT_
FNA:26,2,_ZNSt3__110__function12__value_funcIFmmEEC1B8ne200100IN7testing6ActionIS2_E13ActionAdapterELi0EEEOT_
FNA:26,8,_ZNSt3__110__function12__value_funcIFmmEEC1B8ne200100IZN11mock_bufferIcEC1EPcmEUlmE_Li0EEEOT_
FNA:26,3,_ZNSt3__110__function12__value_funcIFmmEEC1B8ne200100IZN11mock_bufferIiEC1EPimEUlmE_Li0EEEOT_
FNA:26,1,_ZNSt3__110__function12__value_funcIFmmEEC1B8ne200100IZN31buffer_test_append_partial_Test8TestBodyEvE3$_0Li0EEEOT_
FNA:26,1,_ZNSt3__110__function12__value_funcIFvPcmEEC1B8ne200100IZNK7testing8internal11ThrowActionISt9exceptionEcvNS6_6ActionIFT_DpT0_EEEIvJS2_mEEEvEUlS2_mE_Li0EEEOSC_
FNL:27,380
FNA:27,3,_ZNSt3__110__function12__value_funcIF11test_resultN3fmt3v1216basic_format_argINS4_7contextEE6handleEEEC1B8ne200100ERKSA_
FNA:27,3,_ZNSt3__110__function12__value_funcIF11test_resultN3fmt3v1216basic_format_argINS4_7contextEE6handleEEEC2B8ne200100ERKSA_
FNA:27,1,_ZNSt3__110__function12__value_funcIF11test_resultN3fmt3v1217basic_string_viewIcEEEEC1B8ne200100ERKS8_
FNA:27,1,_ZNSt3__110__function12__value_funcIF11test_resultN3fmt3v1217basic_string_viewIcEEEEC2B8ne200100ERKS8_
FNA:27,1,_ZNSt3__110__function12__value_funcIF11test_resultN3fmt3v129monostateEEEC1B8ne200100ERKS7_
FNA:27,1,_ZNSt3__110__function12__value_funcIF11test_resultN3fmt3v129monostateEEEC2B8ne200100ERKS7_
FNA:27,1,_ZNSt3__110__function12__value_funcIF11test_resultPKcEEC1B8ne200100ERKS6_
FNA:27,1,_ZNSt3__110__function12__value_funcIF11test_resultPKcEEC2B8ne200100ERKS6_
FNA:27,4,_ZNSt3__110__function12__value_funcIF11test_resultPKvEEC1B8ne200100ERKS6_
FNA:27,4,_ZNSt3__110__function12__value_funcIF11test_resultPKvEEC2B8ne200100ERKS6_
FNA:27,3,_ZNSt3__110__function12__value_funcIF11test_resultbEEC1B8ne200100ERKS4_
FNA:27,3,_ZNSt3__110__function12__value_funcIF11test_resultbEEC2B8ne200100ERKS4_
FNA:27,1,_ZNSt3__110__function12__value_funcIF11test_resultcEEC1B8ne200100ERKS4_
FNA:27,1,_ZNSt3__110__function12__value_funcIF11test_resultcEEC2B8ne200100ERKS4_
FNA:27,3,_ZNSt3__110__function12__value_funcIF11test_resultdEEC1B8ne200100ERKS4_
FNA:27,3,_ZNSt3__110__function12__value_funcIF11test_resultdEEC2B8ne200100ERKS4_
FNA:27,3,_ZNSt3__110__function12__value_funcIF11test_resulteEEC1B8ne200100ERKS4_
FNA:27,3,_ZNSt3__110__function12__value_funcIF11test_resulteEEC2B8ne200100ERKS4_
FNA:27,3,_ZNSt3__110__function12__value_funcIF11test_resultfEEC1B8ne200100ERKS4_
FNA:27,3,_ZNSt3__110__function12__value_funcIF11test_resultfEEC2B8ne200100ERKS4_
FNA:27,9,_ZNSt3__110__function12__value_funcIF11test_resultiEEC1B8ne200100ERKS4_
FNA:27,9,_ZNSt3__110__function12__value_funcIF11test_resultiEEC2B8ne200100ERKS4_
FNA:27,9,_ZNSt3__110__function12__value_funcIF11test_resultjEEC1B8ne200100ERKS4_
FNA:27,9,_ZNSt3__110__function12__value_funcIF11test_resultjEEC2B8ne200100ERKS4_
FNA:27,6,_ZNSt3__110__function12__value_funcIF11test_resultxEEC1B8ne200100ERKS4_
FNA:27,6,_ZNSt3__110__function12__value_funcIF11test_resultxEEC2B8ne200100ERKS4_
FNA:27,6,_ZNSt3__110__function12__value_funcIF11test_resultyEEC1B8ne200100ERKS4_
FNA:27,6,_ZNSt3__110__function12__value_funcIF11test_resultyEEC2B8ne200100ERKS4_
FNA:27,6,_ZNSt3__110__function12__value_funcIFPcmEEC1B8ne200100ERKS4_
FNA:27,6,_ZNSt3__110__function12__value_funcIFPcmEEC2B8ne200100ERKS4_
FNA:27,8,_ZNSt3__110__function12__value_funcIFPimEEC1B8ne200100ERKS4_
FNA:27,8,_ZNSt3__110__function12__value_funcIFPimEEC2B8ne200100ERKS4_
FNA:27,6,_ZNSt3__110__function12__value_funcIFlPKvlEEC1B8ne200100ERKS5_
FNA:27,6,_ZNSt3__110__function12__value_funcIFlPKvlEEC2B8ne200100ERKS5_
FNA:27,17,_ZNSt3__110__function12__value_funcIFmmEEC1B8ne200100ERKS3_
FNA:27,17,_ZNSt3__110__function12__value_funcIFmmEEC2B8ne200100ERKS3_
FNA:27,2,_ZNSt3__110__function12__value_funcIFvPcmEEC1B8ne200100ERKS4_
FNA:27,2,_ZNSt3__110__function12__value_funcIFvPcmEEC2B8ne200100ERKS4_
FNA:27,0,_ZNSt3__110__function12__value_funcIFvPimEEC1B8ne200100ERKS4_
FNA:27,0,_ZNSt3__110__function12__value_funcIFvPimEEC2B8ne200100ERKS4_
FNA:27,0,_ZNSt3__110__function12__value_funcIFvvEEC1B8ne200100ERKS3_
FNA:27,0,_ZNSt3__110__function12__value_funcIFvvEEC2B8ne200100ERKS3_
FNL:28,402
FNA:28,8,_ZNSt3__110__function12__value_funcIF11test_resultN3fmt3v1216basic_format_argINS4_7contextEE6handleEEED1B8ne200100Ev
FNA:28,8,_ZNSt3__110__function12__value_funcIF11test_resultN3fmt3v1216basic_format_argINS4_7contextEE6handleEEED2B8ne200100Ev
FNA:28,4,_ZNSt3__110__function12__value_funcIF11test_resultN3fmt3v1217basic_string_viewIcEEEED1B8ne200100Ev
FNA:28,4,_ZNSt3__110__function12__value_funcIF11test_resultN3fmt3v1217basic_string_viewIcEEEED2B8ne200100Ev
FNA:28,4,_ZNSt3__110__function12__value_funcIF11test_resultN3fmt3v129monostateEEED1B8ne200100Ev
FNA:28,4,_ZNSt3__110__function12__value_funcIF11test_resultN3fmt3v129monostateEEED2B8ne200100Ev
FNA:28,4,_ZNSt3__110__function12__value_funcIF11test_resultPKcEED1B8ne200100Ev
FNA:28,4,_ZNSt3__110__function12__value_funcIF11test_resultPKcEED2B8ne200100Ev
FNA:28,16,_ZNSt3__110__function12__value_funcIF11test_resultPKvEED1B8ne200100Ev
FNA:28,16,_ZNSt3__110__function12__value_funcIF11test_resultPKvEED2B8ne200100Ev
FNA:28,12,_ZNSt3__110__function12__value_funcIF11test_resultbEED1B8ne200100Ev
FNA:28,12,_ZNSt3__110__function12__value_funcIF11test_resultbEED2B8ne200100Ev
FNA:28,4,_ZNSt3__110__function12__value_funcIF11test_resultcEED1B8ne200100Ev
FNA:28,4,_ZNSt3__110__function12__value_funcIF11test_resultcEED2B8ne200100Ev
FNA:28,12,_ZNSt3__110__function12__value_funcIF11test_resultdEED1B8ne200100Ev
FNA:28,12,_ZNSt3__110__function12__value_funcIF11test_resultdEED2B8ne200100Ev
FNA:28,12,_ZNSt3__110__function12__value_funcIF11test_resulteEED1B8ne200100Ev
FNA:28,12,_ZNSt3__110__function12__value_funcIF11test_resulteEED2B8ne200100Ev
FNA:28,12,_ZNSt3__110__function12__value_funcIF11test_resultfEED1B8ne200100Ev
FNA:28,12,_ZNSt3__110__function12__value_funcIF11test_resultfEED2B8ne200100Ev
FNA:28,36,_ZNSt3__110__function12__value_funcIF11test_resultiEED1B8ne200100Ev
FNA:28,36,_ZNSt3__110__function12__value_funcIF11test_resultiEED2B8ne200100Ev
FNA:28,36,_ZNSt3__110__function12__value_funcIF11test_resultjEED1B8ne200100Ev
FNA:28,36,_ZNSt3__110__function12__value_funcIF11test_resultjEED2B8ne200100Ev
FNA:28,24,_ZNSt3__110__function12__value_funcIF11test_resultxEED1B8ne200100Ev
FNA:28,24,_ZNSt3__110__function12__value_funcIF11test_resultxEED2B8ne200100Ev
FNA:28,24,_ZNSt3__110__function12__value_funcIF11test_resultyEED1B8ne200100Ev
FNA:28,24,_ZNSt3__110__function12__value_funcIF11test_resultyEED2B8ne200100Ev
FNA:28,12,_ZNSt3__110__function12__value_funcIFPcmEED1B8ne200100Ev
FNA:28,12,_ZNSt3__110__function12__value_funcIFPcmEED2B8ne200100Ev
FNA:28,16,_ZNSt3__110__function12__value_funcIFPimEED1B8ne200100Ev
FNA:28,16,_ZNSt3__110__function12__value_funcIFPimEED2B8ne200100Ev
FNA:28,12,_ZNSt3__110__function12__value_funcIFlPKvlEED1B8ne200100Ev
FNA:28,12,_ZNSt3__110__function12__value_funcIFlPKvlEED2B8ne200100Ev
FNA:28,62,_ZNSt3__110__function12__value_funcIFmmEED1B8ne200100Ev
FNA:28,62,_ZNSt3__110__function12__value_funcIFmmEED2B8ne200100Ev
FNA:28,7,_ZNSt3__110__function12__value_funcIFvPcmEED1B8ne200100Ev
FNA:28,7,_ZNSt3__110__function12__value_funcIFvPcmEED2B8ne200100Ev
FNA:28,4,_ZNSt3__110__function12__value_funcIFvPimEED1B8ne200100Ev
FNA:28,4,_ZNSt3__110__function12__value_funcIFvPimEED2B8ne200100Ev
FNA:28,0,_ZNSt3__110__function12__value_funcIFvvEED1B8ne200100Ev
FNA:28,0,_ZNSt3__110__function12__value_funcIFvvEED2B8ne200100Ev
FNL:29,433
FNA:29,1,_ZNKSt3__110__function12__value_funcIF11test_resultN3fmt3v1216basic_format_argINS4_7contextEE6handleEEEclB8ne200100EOS8_
FNA:29,1,_ZNKSt3__110__function12__value_funcIF11test_resultN3fmt3v1217basic_string_viewIcEEEEclB8ne200100EOS6_
FNA:29,1,_ZNKSt3__110__function12__value_funcIF11test_resultN3fmt3v129monostateEEEclB8ne200100EOS5_
FNA:29,1,_ZNKSt3__110__function12__value_funcIF11test_resultPKcEEclB8ne200100EOS4_
FNA:29,4,_ZNKSt3__110__function12__value_funcIF11test_resultPKvEEclB8ne200100EOS4_
FNA:29,3,_ZNKSt3__110__function12__value_funcIF11test_resultbEEclB8ne200100EOb
FNA:29,1,_ZNKSt3__110__function12__value_funcIF11test_resultcEEclB8ne200100EOc
FNA:29,3,_ZNKSt3__110__function12__value_funcIF11test_resultdEEclB8ne200100EOd
FNA:29,3,_ZNKSt3__110__function12__value_funcIF11test_resulteEEclB8ne200100EOe
FNA:29,3,_ZNKSt3__110__function12__value_funcIF11test_resultfEEclB8ne200100EOf
FNA:29,9,_ZNKSt3__110__function12__value_funcIF11test_resultiEEclB8ne200100EOi
FNA:29,9,_ZNKSt3__110__function12__value_funcIF11test_resultjEEclB8ne200100EOj
FNA:29,6,_ZNKSt3__110__function12__value_funcIF11test_resultxEEclB8ne200100EOx
FNA:29,6,_ZNKSt3__110__function12__value_funcIF11test_resultyEEclB8ne200100EOy
FNA:29,3,_ZNKSt3__110__function12__value_funcIFPcmEEclB8ne200100EOm
FNA:29,4,_ZNKSt3__110__function12__value_funcIFPimEEclB8ne200100EOm
FNA:29,3,_ZNKSt3__110__function12__value_funcIFlPKvlEEclB8ne200100EOS3_Ol
FNA:29,8,_ZNKSt3__110__function12__value_funcIFmmEEclB8ne200100EOm
FNA:29,1,_ZNKSt3__110__function12__value_funcIFvPcmEEclB8ne200100EOS2_Om
FNA:29,0,_ZNKSt3__110__function12__value_funcIFvPimEEclB8ne200100EOS2_Om
FNA:29,0,_ZNKSt3__110__function12__value_funcIFvvEEclB8ne200100Ev
FNL:30,439
FNA:30,2,_ZNSt3__110__function12__value_funcIF11test_resultN3fmt3v1216basic_format_argINS4_7contextEE6handleEEE4swapB8ne200100ERSA_
FNA:30,1,_ZNSt3__110__function12__value_funcIF11test_resultN3fmt3v1217basic_string_viewIcEEEE4swapB8ne200100ERS8_
FNA:30,1,_ZNSt3__110__function12__value_funcIF11test_resultN3fmt3v129monostateEEE4swapB8ne200100ERS7_
FNA:30,1,_ZNSt3__110__function12__value_funcIF11test_resultPKcEE4swapB8ne200100ERS6_
FNA:30,4,_ZNSt3__110__function12__value_funcIF11test_resultPKvEE4swapB8ne200100ERS6_
FNA:30,3,_ZNSt3__110__function12__value_funcIF11test_resultbEE4swapB8ne200100ERS4_
FNA:30,1,_ZNSt3__110__function12__value_funcIF11test_resultcEE4swapB8ne200100ERS4_
FNA:30,3,_ZNSt3__110__function12__value_funcIF11test_resultdEE4swapB8ne200100ERS4_
FNA:30,3,_ZNSt3__110__function12__value_funcIF11test_resulteEE4swapB8ne200100ERS4_
FNA:30,3,_ZNSt3__110__function12__value_funcIF11test_resultfEE4swapB8ne200100ERS4_
FNA:30,9,_ZNSt3__110__function12__value_funcIF11test_resultiEE4swapB8ne200100ERS4_
FNA:30,9,_ZNSt3__110__function12__value_funcIF11test_resultjEE4swapB8ne200100ERS4_
FNA:30,6,_ZNSt3__110__function12__value_funcIF11test_resultxEE4swapB8ne200100ERS4_
FNA:30,6,_ZNSt3__110__function12__value_funcIF11test_resultyEE4swapB8ne200100ERS4_
FNA:30,23,_ZNSt3__110__function12__value_funcIFmmEE4swapB8ne200100ERS3_
FNA:30,1,_ZNSt3__110__function12__value_funcIFvPcmEE4swapB8ne200100ERS4_
FNL:31,471
FNA:31,3,_ZNKSt3__110__function12__value_funcIF11test_resultN3fmt3v1216basic_format_argINS4_7contextEE6handleEEEcvbB8ne200100Ev
FNA:31,3,_ZNKSt3__110__function12__value_funcIF11test_resultN3fmt3v1217basic_string_viewIcEEEEcvbB8ne200100Ev
FNA:31,3,_ZNKSt3__110__function12__value_funcIF11test_resultN3fmt3v129monostateEEEcvbB8ne200100Ev
FNA:31,3,_ZNKSt3__110__function12__value_funcIF11test_resultPKcEEcvbB8ne200100Ev
FNA:31,12,_ZNKSt3__110__function12__value_funcIF11test_resultPKvEEcvbB8ne200100Ev
FNA:31,9,_ZNKSt3__110__function12__value_funcIF11test_resultbEEcvbB8ne200100Ev
FNA:31,3,_ZNKSt3__110__function12__value_funcIF11test_resultcEEcvbB8ne200100Ev
FNA:31,9,_ZNKSt3__110__function12__value_funcIF11test_resultdEEcvbB8ne200100Ev
FNA:31,9,_ZNKSt3__110__function12__value_funcIF11test_resulteEEcvbB8ne200100Ev
FNA:31,9,_ZNKSt3__110__function12__value_funcIF11test_resultfEEcvbB8ne200100Ev
FNA:31,27,_ZNKSt3__110__function12__value_funcIF11test_resultiEEcvbB8ne200100Ev
FNA:31,27,_ZNKSt3__110__function12__value_funcIF11test_resultjEEcvbB8ne200100Ev
FNA:31,18,_ZNKSt3__110__function12__value_funcIF11test_resultxEEcvbB8ne200100Ev
FNA:31,18,_ZNKSt3__110__function12__value_funcIF11test_resultyEEcvbB8ne200100Ev
FNA:31,6,_ZNKSt3__110__function12__value_funcIFPcmEEcvbB8ne200100Ev
FNA:31,8,_ZNKSt3__110__function12__value_funcIFPimEEcvbB8ne200100Ev
FNA:31,6,_ZNKSt3__110__function12__value_funcIFlPKvlEEcvbB8ne200100Ev
FNA:31,27,_ZNKSt3__110__function12__value_funcIFmmEEcvbB8ne200100Ev
FNA:31,4,_ZNKSt3__110__function12__value_funcIFvPcmEEcvbB8ne200100Ev
FNA:31,4,_ZNKSt3__110__function12__value_funcIFvPimEEcvbB8ne200100Ev
FNA:31,0,_ZNKSt3__110__function12__value_funcIFvvEEcvbB8ne200100Ev
FNL:32,62
FNA:32,0,_ZNSt3__117bad_function_callC1B8ne200100Ev
FNA:32,0,_ZNSt3__117bad_function_callC2B8ne200100Ev
FNL:33,80
FNA:33,0,_ZNSt3__125__throw_bad_function_callB8ne200100Ev
FNL:34,861
FNA:34,3,_ZNSt3__18functionIF11test_resultN3fmt3v1216basic_format_argINS3_7contextEE6handleEEEC1B8ne200100Ev
FNA:34,3,_ZNSt3__18functionIF11test_resultN3fmt3v1216basic_format_argINS3_7contextEE6handleEEEC2B8ne200100Ev
FNA:34,2,_ZNSt3__18functionIF11test_resultN3fmt3v1217basic_string_viewIcEEEEC1B8ne200100Ev
FNA:34,2,_ZNSt3__18functionIF11test_resultN3fmt3v1217basic_string_viewIcEEEEC2B8ne200100Ev
FNA:34,2,_ZNSt3__18functionIF11test_resultN3fmt3v129monostateEEEC1B8ne200100Ev
FNA:34,2,_ZNSt3__18functionIF11test_resultN3fmt3v129monostateEEEC2B8ne200100Ev
FNA:34,2,_ZNSt3__18functionIF11test_resultPKcEEC1B8ne200100Ev
FNA:34,2,_ZNSt3__18functionIF11test_resultPKcEEC2B8ne200100Ev
FNA:34,8,_ZNSt3__18functionIF11test_resultPKvEEC1B8ne200100Ev
FNA:34,8,_ZNSt3__18functionIF11test_resultPKvEEC2B8ne200100Ev
FNA:34,6,_ZNSt3__18functionIF11test_resultbEEC1B8ne200100Ev
FNA:34,6,_ZNSt3__18functionIF11test_resultbEEC2B8ne200100Ev
FNA:34,2,_ZNSt3__18functionIF11test_resultcEEC1B8ne200100Ev
FNA:34,2,_ZNSt3__18functionIF11test_resultcEEC2B8ne200100Ev
FNA:34,6,_ZNSt3__18functionIF11test_resultdEEC1B8ne200100Ev
FNA:34,6,_ZNSt3__18functionIF11test_resultdEEC2B8ne200100Ev
FNA:34,6,_ZNSt3__18functionIF11test_resulteEEC1B8ne200100Ev
FNA:34,6,_ZNSt3__18functionIF11test_resulteEEC2B8ne200100Ev
FNA:34,6,_ZNSt3__18functionIF11test_resultfEEC1B8ne200100Ev
FNA:34,6,_ZNSt3__18functionIF11test_resultfEEC2B8ne200100Ev
FNA:34,18,_ZNSt3__18functionIF11test_resultiEEC1B8ne200100Ev
FNA:34,18,_ZNSt3__18functionIF11test_resultiEEC2B8ne200100Ev
FNA:34,18,_ZNSt3__18functionIF11test_resultjEEC1B8ne200100Ev
FNA:34,18,_ZNSt3__18functionIF11test_resultjEEC2B8ne200100Ev
FNA:34,12,_ZNSt3__18functionIF11test_resultxEEC1B8ne200100Ev
FNA:34,12,_ZNSt3__18functionIF11test_resultxEEC2B8ne200100Ev
FNA:34,12,_ZNSt3__18functionIF11test_resultyEEC1B8ne200100Ev
FNA:34,12,_ZNSt3__18functionIF11test_resultyEEC2B8ne200100Ev
FNA:34,3,_ZNSt3__18functionIFPcmEEC1B8ne200100Ev
FNA:34,3,_ZNSt3__18functionIFPcmEEC2B8ne200100Ev
FNA:34,4,_ZNSt3__18functionIFPimEEC1B8ne200100Ev
FNA:34,4,_ZNSt3__18functionIFPimEEC2B8ne200100Ev
FNA:34,3,_ZNSt3__18functionIFlPKvlEEC1B8ne200100Ev
FNA:34,3,_ZNSt3__18functionIFlPKvlEEC2B8ne200100Ev
FNA:34,31,_ZNSt3__18functionIFmmEEC1B8ne200100Ev
FNA:34,31,_ZNSt3__18functionIFmmEEC2B8ne200100Ev
FNA:34,4,_ZNSt3__18functionIFvPcmEEC1B8ne200100Ev
FNA:34,4,_ZNSt3__18functionIFvPcmEEC2B8ne200100Ev
FNA:34,4,_ZNSt3__18functionIFvPimEEC1B8ne200100Ev
FNA:34,4,_ZNSt3__18functionIFvPimEEC2B8ne200100Ev
FNL:35,900
FNA:35,3,_ZNKSt3__18functionIF11test_resultN3fmt3v1216basic_format_argINS3_7contextEE6handleEEEcvbB8ne200100Ev
FNA:35,3,_ZNKSt3__18functionIF11test_resultN3fmt3v1217basic_string_viewIcEEEEcvbB8ne200100Ev
FNA:35,3,_ZNKSt3__18functionIF11test_resultN3fmt3v129monostateEEEcvbB8ne200100Ev
FNA:35,3,_ZNKSt3__18functionIF11test_resultPKcEEcvbB8ne200100Ev
FNA:35,12,_ZNKSt3__18functionIF11test_resultPKvEEcvbB8ne200100Ev
FNA:35,9,_ZNKSt3__18functionIF11test_resultbEEcvbB8ne200100Ev
FNA:35,3,_ZNKSt3__18functionIF11test_resultcEEcvbB8ne200100Ev
FNA:35,9,_ZNKSt3__18functionIF11test_resultdEEcvbB8ne200100Ev
FNA:35,9,_ZNKSt3__18functionIF11test_resulteEEcvbB8ne200100Ev
FNA:35,9,_ZNKSt3__18functionIF11test_resultfEEcvbB8ne200100Ev
FNA:35,27,_ZNKSt3__18functionIF11test_resultiEEcvbB8ne200100Ev
FNA:35,27,_ZNKSt3__18functionIF11test_resultjEEcvbB8ne200100Ev
FNA:35,18,_ZNKSt3__18functionIF11test_resultxEEcvbB8ne200100Ev
FNA:35,18,_ZNKSt3__18functionIF11test_resultyEEcvbB8ne200100Ev
FNA:35,6,_ZNKSt3__18functionIFPcmEEcvbB8ne200100Ev
FNA:35,8,_ZNKSt3__18functionIFPimEEcvbB8ne200100Ev
FNA:35,6,_ZNKSt3__18functionIFlPKvlEEcvbB8ne200100Ev
FNA:35,27,_ZNKSt3__18functionIFmmEEcvbB8ne200100Ev
FNA:35,4,_ZNKSt3__18functionIFvPcmEEcvbB8ne200100Ev
FNA:35,4,_ZNKSt3__18functionIFvPimEEcvbB8ne200100Ev
FNA:35,0,_ZNKSt3__18functionIFvvEEcvbB8ne200100Ev
FNL:36,933
FNA:36,3,_ZNSt3__18functionIF11test_resultN3fmt3v1216basic_format_argINS3_7contextEE6handleEEEC1ERKS9_
FNA:36,3,_ZNSt3__18functionIF11test_resultN3fmt3v1216basic_format_argINS3_7contextEE6handleEEEC2ERKS9_
FNA:36,1,_ZNSt3__18functionIF11test_resultN3fmt3v1217basic_string_viewIcEEEEC1ERKS7_
FNA:36,1,_ZNSt3__18functionIF11test_resultN3fmt3v1217basic_string_viewIcEEEEC2ERKS7_
FNA:36,1,_ZNSt3__18functionIF11test_resultN3fmt3v129monostateEEEC1ERKS6_
FNA:36,1,_ZNSt3__18functionIF11test_resultN3fmt3v129monostateEEEC2ERKS6_
FNA:36,1,_ZNSt3__18functionIF11test_resultPKcEEC1ERKS5_
FNA:36,1,_ZNSt3__18functionIF11test_resultPKcEEC2ERKS5_
FNA:36,4,_ZNSt3__18functionIF11test_resultPKvEEC1ERKS5_
FNA:36,4,_ZNSt3__18functionIF11test_resultPKvEEC2ERKS5_
FNA:36,3,_ZNSt3__18functionIF11test_resultbEEC1ERKS3_
FNA:36,3,_ZNSt3__18functionIF11test_resultbEEC2ERKS3_
FNA:36,1,_ZNSt3__18functionIF11test_resultcEEC1ERKS3_
FNA:36,1,_ZNSt3__18functionIF11test_resultcEEC2ERKS3_
FNA:36,3,_ZNSt3__18functionIF11test_resultdEEC1ERKS3_
FNA:36,3,_ZNSt3__18functionIF11test_resultdEEC2ERKS3_
FNA:36,3,_ZNSt3__18functionIF11test_resulteEEC1ERKS3_
FNA:36,3,_ZNSt3__18functionIF11test_resulteEEC2ERKS3_
FNA:36,3,_ZNSt3__18functionIF11test_resultfEEC1ERKS3_
FNA:36,3,_ZNSt3__18functionIF11test_resultfEEC2ERKS3_
FNA:36,9,_ZNSt3__18functionIF11test_resultiEEC1ERKS3_
FNA:36,9,_ZNSt3__18functionIF11test_resultiEEC2ERKS3_
FNA:36,9,_ZNSt3__18functionIF11test_resultjEEC1ERKS3_
FNA:36,9,_ZNSt3__18functionIF11test_resultjEEC2ERKS3_
FNA:36,6,_ZNSt3__18functionIF11test_resultxEEC1ERKS3_
FNA:36,6,_ZNSt3__18functionIF11test_resultxEEC2ERKS3_
FNA:36,6,_ZNSt3__18functionIF11test_resultyEEC1ERKS3_
FNA:36,6,_ZNSt3__18functionIF11test_resultyEEC2ERKS3_
FNA:36,6,_ZNSt3__18functionIFPcmEEC1ERKS3_
FNA:36,6,_ZNSt3__18functionIFPcmEEC2ERKS3_
FNA:36,8,_ZNSt3__18functionIFPimEEC1ERKS3_
FNA:36,8,_ZNSt3__18functionIFPimEEC2ERKS3_
FNA:36,6,_ZNSt3__18functionIFlPKvlEEC1ERKS4_
FNA:36,6,_ZNSt3__18functionIFlPKvlEEC2ERKS4_
FNA:36,17,_ZNSt3__18functionIFmmEEC1ERKS2_
FNA:36,17,_ZNSt3__18functionIFmmEEC2ERKS2_
FNA:36,2,_ZNSt3__18functionIFvPcmEEC1ERKS3_
FNA:36,2,_ZNSt3__18functionIFvPcmEEC2ERKS3_
FNA:36,0,_ZNSt3__18functionIFvPimEEC1ERKS3_
FNA:36,0,_ZNSt3__18functionIFvPimEEC2ERKS3_
FNA:36,0,_ZNSt3__18functionIFvvEEC1ERKS2_
FNA:36,0,_ZNSt3__18functionIFvvEEC2ERKS2_
FNL:37,952
FNA:37,1,_ZNSt3__18functionIF11test_resultN3fmt3v1216basic_format_argINS3_7contextEE6handleEEEC1I12check_customvEET_
FNA:37,1,_ZNSt3__18functionIF11test_resultN3fmt3v1216basic_format_argINS3_7contextEE6handleEEEC1IN7testing6ActionIS8_E13ActionAdapterEvEET_
FNA:37,1,_ZNSt3__18functionIF11test_resultN3fmt3v1216basic_format_argINS3_7contextEE6handleEEEC2I12check_customvEET_
FNA:37,1,_ZNSt3__18functionIF11test_resultN3fmt3v1216basic_format_argINS3_7contextEE6handleEEEC2IN7testing6ActionIS8_E13ActionAdapterEvEET_
FNA:37,1,_ZNSt3__18functionIF11test_resultN3fmt3v1217basic_string_viewIcEEEEC1IN7testing6ActionIS6_E13ActionAdapterEvEET_
FNA:37,1,_ZNSt3__18functionIF11test_resultN3fmt3v1217basic_string_viewIcEEEEC2IN7testing6ActionIS6_E13ActionAdapterEvEET_
FNA:37,1,_ZNSt3__18functionIF11test_resultN3fmt3v129monostateEEEC1IN7testing6ActionIS5_E13ActionAdapterEvEET_
FNA:37,1,_ZNSt3__18functionIF11test_resultN3fmt3v129monostateEEEC2IN7testing6ActionIS5_E13ActionAdapterEvEET_
FNA:37,1,_ZNSt3__18functionIF11test_resultPKcEEC1IN7testing6ActionIS4_E13ActionAdapterEvEET_
FNA:37,1,_ZNSt3__18functionIF11test_resultPKcEEC2IN7testing6ActionIS4_E13ActionAdapterEvEET_
FNA:37,4,_ZNSt3__18functionIF11test_resultPKvEEC1IN7testing6ActionIS4_E13ActionAdapterEvEET_
FNA:37,4,_ZNSt3__18functionIF11test_resultPKvEEC2IN7testing6ActionIS4_E13ActionAdapterEvEET_
FNA:37,3,_ZNSt3__18functionIF11test_resultbEEC1IN7testing6ActionIS2_E13ActionAdapterEvEET_
FNA:37,3,_ZNSt3__18functionIF11test_resultbEEC2IN7testing6ActionIS2_E13ActionAdapterEvEET_
FNA:37,1,_ZNSt3__18functionIF11test_resultcEEC1IN7testing6ActionIS2_E13ActionAdapterEvEET_
FNA:37,1,_ZNSt3__18functionIF11test_resultcEEC2IN7testing6ActionIS2_E13ActionAdapterEvEET_
FNA:37,3,_ZNSt3__18functionIF11test_resultdEEC1IN7testing6ActionIS2_E13ActionAdapterEvEET_
FNA:37,3,_ZNSt3__18functionIF11test_resultdEEC2IN7testing6ActionIS2_E13ActionAdapterEvEET_
FNA:37,3,_ZNSt3__18functionIF11test_resulteEEC1IN7testing6ActionIS2_E13ActionAdapterEvEET_
FNA:37,3,_ZNSt3__18functionIF11test_resulteEEC2IN7testing6ActionIS2_E13ActionAdapterEvEET_
FNA:37,3,_ZNSt3__18functionIF11test_resultfEEC1IN7testing6ActionIS2_E13ActionAdapterEvEET_
FNA:37,3,_ZNSt3__18functionIF11test_resultfEEC2IN7testing6ActionIS2_E13ActionAdapterEvEET_
FNA:37,9,_ZNSt3__18functionIF11test_resultiEEC1IN7testing6ActionIS2_E13ActionAdapterEvEET_
FNA:37,9,_ZNSt3__18functionIF11test_resultiEEC2IN7testing6ActionIS2_E13ActionAdapterEvEET_
FNA:37,9,_ZNSt3__18functionIF11test_resultjEEC1IN7testing6ActionIS2_E13ActionAdapterEvEET_
FNA:37,9,_ZNSt3__18functionIF11test_resultjEEC2IN7testing6ActionIS2_E13ActionAdapterEvEET_
FNA:37,6,_ZNSt3__18functionIF11test_resultxEEC1IN7testing6ActionIS2_E13ActionAdapterEvEET_
FNA:37,6,_ZNSt3__18functionIF11test_resultxEEC2IN7testing6ActionIS2_E13ActionAdapterEvEET_
FNA:37,6,_ZNSt3__18functionIF11test_resultyEEC1IN7testing6ActionIS2_E13ActionAdapterEvEET_
FNA:37,6,_ZNSt3__18functionIF11test_resultyEEC2IN7testing6ActionIS2_E13ActionAdapterEvEET_
FNA:37,3,_ZNSt3__18functionIFPcmEEC1IN7testing6ActionIS2_E13ActionAdapterEvEET_
FNA:37,3,_ZNSt3__18functionIFPcmEEC2IN7testing6ActionIS2_E13ActionAdapterEvEET_
FNA:37,4,_ZNSt3__18functionIFPimEEC1IN7testing6ActionIS2_E13ActionAdapterEvEET_
FNA:37,4,_ZNSt3__18functionIFPimEEC2IN7testing6ActionIS2_E13ActionAdapterEvEET_
FNA:37,3,_ZNSt3__18functionIFlPKvlEEC1IN7testing6ActionIS3_E13ActionAdapterEvEET_
FNA:37,3,_ZNSt3__18functionIFlPKvlEEC2IN7testing6ActionIS3_E13ActionAdapterEvEET_
FNA:37,2,_ZNSt3__18functionIFmmEEC1IN7testing6ActionIS1_E13ActionAdapterEvEET_
FNA:37,8,_ZNSt3__18functionIFmmEEC1IZN11mock_bufferIcEC1EPcmEUlmE_vEET_
FNA:37,3,_ZNSt3__18functionIFmmEEC1IZN11mock_bufferIiEC1EPimEUlmE_vEET_
FNA:37,1,_ZNSt3__18functionIFmmEEC1IZN31buffer_test_append_partial_Test8TestBodyEvE3$_0vEET_
FNA:37,2,_ZNSt3__18functionIFmmEEC2IN7testing6ActionIS1_E13ActionAdapterEvEET_
FNA:37,8,_ZNSt3__18functionIFmmEEC2IZN11mock_bufferIcEC1EPcmEUlmE_vEET_
FNA:37,3,_ZNSt3__18functionIFmmEEC2IZN11mock_bufferIiEC1EPimEUlmE_vEET_
FNA:37,1,_ZNSt3__18functionIFmmEEC2IZN31buffer_test_append_partial_Test8TestBodyEvE3$_0vEET_
FNA:37,1,_ZNSt3__18functionIFvPcmEEC1IZNK7testing8internal11ThrowActionISt9exceptionEcvNS5_6ActionIFT_DpT0_EEEIvJS1_mEEEvEUlS1_mE_vEESB_
FNA:37,1,_ZNSt3__18functionIFvPcmEEC2IZNK7testing8internal11ThrowActionISt9exceptionEcvNS5_6ActionIFT_DpT0_EEEIvJS1_mEEEvEUlS1_mE_vEESB_
FNL:38,961
FNA:38,1,_ZNSt3__18functionIF11test_resultN3fmt3v1216basic_format_argINS3_7contextEE6handleEEEaSERKS9_
FNA:38,1,_ZNSt3__18functionIF11test_resultN3fmt3v1217basic_string_viewIcEEEEaSERKS7_
FNA:38,1,_ZNSt3__18functionIF11test_resultN3fmt3v129monostateEEEaSERKS6_
FNA:38,1,_ZNSt3__18functionIF11test_resultPKcEEaSERKS5_
FNA:38,4,_ZNSt3__18functionIF11test_resultPKvEEaSERKS5_
FNA:38,3,_ZNSt3__18functionIF11test_resultbEEaSERKS3_
FNA:38,1,_ZNSt3__18functionIF11test_resultcEEaSERKS3_
FNA:38,3,_ZNSt3__18functionIF11test_resultdEEaSERKS3_
FNA:38,3,_ZNSt3__18functionIF11test_resulteEEaSERKS3_
FNA:38,3,_ZNSt3__18functionIF11test_resultfEEaSERKS3_
FNA:38,9,_ZNSt3__18functionIF11test_resultiEEaSERKS3_
FNA:38,9,_ZNSt3__18functionIF11test_resultjEEaSERKS3_
FNA:38,6,_ZNSt3__18functionIF11test_resultxEEaSERKS3_
FNA:38,6,_ZNSt3__18functionIF11test_resultyEEaSERKS3_
FNA:38,11,_ZNSt3__18functionIFmmEEaSERKS2_
FNL:39,980
FNA:39,1,_ZNSt3__18functionIF11test_resultN3fmt3v1216basic_format_argINS3_7contextEE6handleEEEaSI12check_customvEERS9_OT_
FNA:39,8,_ZNSt3__18functionIFmmEEaSIZN11mock_bufferIcEC1EPcmEUlmE_vEERS2_OT_
FNA:39,3,_ZNSt3__18functionIFmmEEaSIZN11mock_bufferIiEC1EPimEUlmE_vEERS2_OT_
FNA:39,1,_ZNSt3__18functionIFmmEEaSIZN31buffer_test_append_partial_Test8TestBodyEvE3$_0vEERS2_OT_
FNA:39,1,_ZNSt3__18functionIFvPcmEEaSIZNK7testing8internal11ThrowActionISt9exceptionEcvNS5_6ActionIFT_DpT0_EEEIvJS1_mEEEvEUlS1_mE_vEERS3_OSB_
FNL:40,986
FNA:40,8,_ZNSt3__18functionIF11test_resultN3fmt3v1216basic_format_argINS3_7contextEE6handleEEED1Ev
FNA:40,8,_ZNSt3__18functionIF11test_resultN3fmt3v1216basic_format_argINS3_7contextEE6handleEEED2Ev
FNA:40,4,_ZNSt3__18functionIF11test_resultN3fmt3v1217basic_string_viewIcEEEED1Ev
FNA:40,4,_ZNSt3__18functionIF11test_resultN3fmt3v1217basic_string_viewIcEEEED2Ev
FNA:40,4,_ZNSt3__18functionIF11test_resultN3fmt3v129monostateEEED1Ev
FNA:40,4,_ZNSt3__18functionIF11test_resultN3fmt3v129monostateEEED2Ev
FNA:40,4,_ZNSt3__18functionIF11test_resultPKcEED1Ev
FNA:40,4,_ZNSt3__18functionIF11test_resultPKcEED2Ev
FNA:40,16,_ZNSt3__18functionIF11test_resultPKvEED1Ev
FNA:40,16,_ZNSt3__18functionIF11test_resultPKvEED2Ev
FNA:40,12,_ZNSt3__18functionIF11test_resultbEED1Ev
FNA:40,12,_ZNSt3__18functionIF11test_resultbEED2Ev
FNA:40,4,_ZNSt3__18functionIF11test_resultcEED1Ev
FNA:40,4,_ZNSt3__18functionIF11test_resultcEED2Ev
FNA:40,12,_ZNSt3__18functionIF11test_resultdEED1Ev
FNA:40,12,_ZNSt3__18functionIF11test_resultdEED2Ev
FNA:40,12,_ZNSt3__18functionIF11test_resulteEED1Ev
FNA:40,12,_ZNSt3__18functionIF11test_resulteEED2Ev
FNA:40,12,_ZNSt3__18functionIF11test_resultfEED1Ev
FNA:40,12,_ZNSt3__18functionIF11test_resultfEED2Ev
FNA:40,36,_ZNSt3__18functionIF11test_resultiEED1Ev
FNA:40,36,_ZNSt3__18functionIF11test_resultiEED2Ev
FNA:40,36,_ZNSt3__18functionIF11test_resultjEED1Ev
FNA:40,36,_ZNSt3__18functionIF11test_resultjEED2Ev
FNA:40,24,_ZNSt3__18functionIF11test_resultxEED1Ev
FNA:40,24,_ZNSt3__18functionIF11test_resultxEED2Ev
FNA:40,24,_ZNSt3__18functionIF11test_resultyEED1Ev
FNA:40,24,_ZNSt3__18functionIF11test_resultyEED2Ev
FNA:40,12,_ZNSt3__18functionIFPcmEED1Ev
FNA:40,12,_ZNSt3__18functionIFPcmEED2Ev
FNA:40,16,_ZNSt3__18functionIFPimEED1Ev
FNA:40,16,_ZNSt3__18functionIFPimEED2Ev
FNA:40,12,_ZNSt3__18functionIFlPKvlEED1Ev
FNA:40,12,_ZNSt3__18functionIFlPKvlEED2Ev
FNA:40,62,_ZNSt3__18functionIFmmEED1Ev
FNA:40,62,_ZNSt3__18functionIFmmEED2Ev
FNA:40,7,_ZNSt3__18functionIFvPcmEED1Ev
FNA:40,7,_ZNSt3__18functionIFvPcmEED2Ev
FNA:40,4,_ZNSt3__18functionIFvPimEED1Ev
FNA:40,4,_ZNSt3__18functionIFvPimEED2Ev
FNA:40,0,_ZNSt3__18functionIFvvEED1Ev
FNA:40,0,_ZNSt3__18functionIFvvEED2Ev
FNL:41,989
FNA:41,2,_ZNSt3__18functionIF11test_resultN3fmt3v1216basic_format_argINS3_7contextEE6handleEEE4swapERS9_
FNA:41,1,_ZNSt3__18functionIF11test_resultN3fmt3v1217basic_string_viewIcEEEE4swapERS7_
FNA:41,1,_ZNSt3__18functionIF11test_resultN3fmt3v129monostateEEE4swapERS6_
FNA:41,1,_ZNSt3__18functionIF11test_resultPKcEE4swapERS5_
FNA:41,4,_ZNSt3__18functionIF11test_resultPKvEE4swapERS5_
FNA:41,3,_ZNSt3__18functionIF11test_resultbEE4swapERS3_
FNA:41,1,_ZNSt3__18functionIF11test_resultcEE4swapERS3_
FNA:41,3,_ZNSt3__18functionIF11test_resultdEE4swapERS3_
FNA:41,3,_ZNSt3__18functionIF11test_resulteEE4swapERS3_
FNA:41,3,_ZNSt3__18functionIF11test_resultfEE4swapERS3_
FNA:41,9,_ZNSt3__18functionIF11test_resultiEE4swapERS3_
FNA:41,9,_ZNSt3__18functionIF11test_resultjEE4swapERS3_
FNA:41,6,_ZNSt3__18functionIF11test_resultxEE4swapERS3_
FNA:41,6,_ZNSt3__18functionIF11test_resultyEE4swapERS3_
FNA:41,23,_ZNSt3__18functionIFmmEE4swapERS2_
FNA:41,1,_ZNSt3__18functionIFvPcmEE4swapERS3_
FNL:42,994
FNA:42,1,_ZNKSt3__18functionIF11test_resultN3fmt3v1216basic_format_argINS3_7contextEE6handleEEEclES7_
FNA:42,1,_ZNKSt3__18functionIF11test_resultN3fmt3v1217basic_string_viewIcEEEEclES5_
FNA:42,1,_ZNKSt3__18functionIF11test_resultN3fmt3v129monostateEEEclES4_
FNA:42,1,_ZNKSt3__18functionIF11test_resultPKcEEclES3_
FNA:42,4,_ZNKSt3__18functionIF11test_resultPKvEEclES3_
FNA:42,3,_ZNKSt3__18functionIF11test_resultbEEclEb
FNA:42,1,_ZNKSt3__18functionIF11test_resultcEEclEc
FNA:42,3,_ZNKSt3__18functionIF11test_resultdEEclEd
FNA:42,3,_ZNKSt3__18functionIF11test_resulteEEclEe
FNA:42,3,_ZNKSt3__18functionIF11test_resultfEEclEf
FNA:42,9,_ZNKSt3__18functionIF11test_resultiEEclEi
FNA:42,9,_ZNKSt3__18functionIF11test_resultjEEclEj
FNA:42,6,_ZNKSt3__18functionIF11test_resultxEEclEx
FNA:42,6,_ZNKSt3__18functionIF11test_resultyEEclEy
FNA:42,3,_ZNKSt3__18functionIFPcmEEclEm
FNA:42,4,_ZNKSt3__18functionIFPimEEclEm
FNA:42,3,_ZNKSt3__18functionIFlPKvlEEclES2_l
FNA:42,8,_ZNKSt3__18functionIFmmEEclEm
FNA:42,1,_ZNKSt3__18functionIFvPcmEEclES1_m
FNA:42,0,_ZNKSt3__18functionIFvPimEEclES1_m
FNA:42,0,_ZNKSt3__18functionIFvvEEclEv
FNF:43
FNH:32
DA:62,0
DA:80,0
DA:82,0
DA:106,77
DA:107,77
DA:151,168
DA:154,168
DA:158,336
DA:160,0
DA:161,0
DA:163,154
DA:164,154
DA:166,70
DA:167,70
DA:180,245
DA:181,197
DA:183,245
DA:245,245
DA:246,0
DA:270,336
DA:272,0
DA:274,154
DA:288,0
DA:291,0
DA:293,0
DA:294,0
DA:295,0
DA:296,0
DA:299,168
DA:300,168
DA:301,168
DA:304,245
DA:305,245
DA:306,245
DA:309,0
DA:312,0
DA:313,0
DA:314,0
DA:315,0
DA:318,70
DA:319,70
DA:325,0
DA:326,0
DA:327,0
DA:328,0
DA:329,0
DA:332,0
DA:333,0
DA:352,244
DA:355,304
DA:358,154
DA:363,77
DA:364,77
DA:367,77
DA:374,77
DA:375,154
DA:378,77
DA:380,184
DA:381,92
DA:382,0
DA:383,92
DA:384,92
DA:385,92
DA:386,92
DA:387,0
DA:388,184
DA:402,642
DA:403,321
DA:404,169
DA:405,152
DA:406,0
DA:407,642
DA:433,70
DA:434,70
DA:435,0
DA:436,70
DA:439,76
DA:440,76
DA:441,0
DA:442,76
DA:444,0
DA:446,0
DA:447,0
DA:448,0
DA:449,0
DA:450,0
DA:451,0
DA:452,0
DA:453,0
DA:454,0
DA:455,0
DA:456,0
DA:457,76
DA:458,76
DA:459,76
DA:460,76
DA:461,76
DA:462,76
DA:463,0
DA:464,0
DA:465,0
DA:466,0
DA:467,0
DA:468,0
DA:469,76
DA:471,208
DA:861,304
DA:900,208
DA:933,184
DA:952,154
DA:961,62
DA:962,62
DA:963,62
DA:980,14
DA:981,14
DA:982,14
DA:983,0
DA:986,642
DA:989,76
DA:990,76
DA:991,76
DA:994,70
DA:995,70
DA:1020,208
DA:1021,208
LF:125
LH:76
end_of_record
TN:
SF:/Applications/Xcode.app/Contents/Developer/Platforms/MacOSX.platform/Developer/SDKs/MacOSX.sdk/usr/include/c++/v1/__functional/hash.h
FNL:0,410
FNA:0,110,_ZNKSt3__14hashImEclB8ne200100Em
FNF:1
FNH:1
DA:410,110
DA:413,110
LF:2
LH:2
end_of_record
TN:
SF:/Applications/Xcode.app/Contents/Developer/Platforms/MacOSX.platform/Developer/SDKs/MacOSX.sdk/usr/include/c++/v1/__functional/identity.h
FNL:0,29
FNA:0,0,_ZNKSt3__110__identityclB8ne200100IRKNS_12basic_stringIcNS_11char_traitsIcEENS_9allocatorIcEEEEEEOT_SB_
FNA:0,0,_ZNKSt3__110__identityclB8ne200100IRKwEEOT_S5_
FNF:1
FNH:0
DA:29,0
DA:30,0
LF:2
LH:0
end_of_record
TN:
SF:/Applications/Xcode.app/Contents/Developer/Platforms/MacOSX.platform/Developer/SDKs/MacOSX.sdk/usr/include/c++/v1/__functional/operations.h
FNL:0,298
FNA:0,9,_ZNKSt3__18equal_toIN3fmt3v1217basic_string_viewIcEEEclB8ne200100ERKS4_S7_
FNA:0,9,_ZNKSt3__18equal_toIiEclB8ne200100ERKiS3_
FNA:0,55,_ZNKSt3__18equal_toImEclB8ne200100ERKmS3_
FNL:1,333
FNA:1,9,_ZNKSt3__112not_equal_toIN3fmt3v1217basic_string_viewIcEEEclB8ne200100ERKS4_S7_
FNA:1,9,_ZNKSt3__112not_equal_toIiEclB8ne200100ERKiS3_
FNL:2,359
FNA:2,9,_ZNKSt3__14lessIN3fmt3v1217basic_string_viewIcEEEclB8ne200100ERKS4_S7_
FNA:2,0,_ZNKSt3__14lessINS_10error_codeEEclB8ne200100ERKS1_S4_
FNA:2,2,_ZNKSt3__14lessINS_12basic_stringIcNS_11char_traitsIcEENS_9allocatorIcEEEEEclB8ne200100ERKS6_S9_
FNA:2,1,_ZNKSt3__14lessINS_12basic_stringIwNS_11char_traitsIwEENS_9allocatorIwEEEEEclB8ne200100ERKS6_S9_
FNA:2,418,_ZNKSt3__14lessIPKvEclB8ne200100ERKS2_S5_
FNA:2,345,_ZNKSt3__14lessIPN7testing8internal25UntypedFunctionMockerBaseEEclB8ne200100ERKS4_S7_
FNA:2,13,_ZNKSt3__14lessIiEclB8ne200100ERKiS3_
FNL:3,397
FNA:3,9,_ZNKSt3__110less_equalIN3fmt3v1217basic_string_viewIcEEEclB8ne200100ERKS4_S7_
FNA:3,9,_ZNKSt3__110less_equalIiEclB8ne200100ERKiS3_
FNL:4,423
FNA:4,9,_ZNKSt3__113greater_equalIN3fmt3v1217basic_string_viewIcEEEclB8ne200100ERKS4_S7_
FNA:4,9,_ZNKSt3__113greater_equalIiEclB8ne200100ERKiS3_
FNL:5,449
FNA:5,9,_ZNKSt3__17greaterIN3fmt3v1217basic_string_viewIcEEEclB8ne200100ERKS4_S7_
FNA:5,9,_ZNKSt3__17greaterIiEclB8ne200100ERKiS3_
FNF:6
FNH:6
DA:298,73
DA:299,73
DA:333,18
DA:334,18
DA:359,788
DA:360,788
DA:397,18
DA:398,18
DA:423,18
DA:424,18
DA:449,18
DA:450,18
LF:12
LH:12
end_of_record
TN:
SF:/Applications/Xcode.app/Contents/Developer/Platforms/MacOSX.platform/Developer/SDKs/MacOSX.sdk/usr/include/c++/v1/__functional/reference_wrapper.h
FNL:0,126
FNA:0,2,_ZNSt3__13refB8ne200100I19type_with_format_asEENS_17reference_wrapperIT_EERS3_
FNA:0,2,_ZNSt3__13refB8ne200100I26type_with_format_as_stringEENS_17reference_wrapperIT_EERS3_
FNA:0,2,_ZNSt3__13refB8ne200100IiEENS_17reference_wrapperIT_EERS2_
FNL:1,137
FNA:1,2,_ZNSt3__14crefB8ne200100I11custom_typeEENS_17reference_wrapperIKT_EERS4_
FNA:1,1,_ZNSt3__14crefB8ne200100I13to_stringableEENS_17reference_wrapperIKT_EERS4_
FNA:1,2,_ZNSt3__14crefB8ne200100I19type_with_format_asEENS_17reference_wrapperIKT_EERS4_
FNA:1,2,_ZNSt3__14crefB8ne200100I26type_with_format_as_stringEENS_17reference_wrapperIKT_EERS4_
FNA:1,2,_ZNSt3__14crefB8ne200100IA11_cEENS_17reference_wrapperIKT_EERS4_
FNA:1,1,_ZNSt3__14crefB8ne200100IA15_cEENS_17reference_wrapperIKT_EERS4_
FNA:1,2,_ZNSt3__14crefB8ne200100IiEENS_17reference_wrapperIKT_EERS3_
FNL:2,48
FNA:2,2,_ZNSt3__117reference_wrapperI19type_with_format_asEC1B8ne200100IRS1_vLi0EEEOT_
FNA:2,2,_ZNSt3__117reference_wrapperI19type_with_format_asEC2B8ne200100IRS1_vLi0EEEOT_
FNA:2,2,_ZNSt3__117reference_wrapperI26type_with_format_as_stringEC1B8ne200100IRS1_vLi0EEEOT_
FNA:2,2,_ZNSt3__117reference_wrapperI26type_with_format_as_stringEC2B8ne200100IRS1_vLi0EEEOT_
FNA:2,2,_ZNSt3__117reference_wrapperIA11_KcEC1B8ne200100IRS2_vLi0EEEOT_
FNA:2,2,_ZNSt3__117reference_wrapperIA11_KcEC2B8ne200100IRS2_vLi0EEEOT_
FNA:2,1,_ZNSt3__117reference_wrapperIA15_KcEC1B8ne200100IRS2_vLi0EEEOT_
FNA:2,1,_ZNSt3__117reference_wrapperIA15_KcEC2B8ne200100IRS2_vLi0EEEOT_
FNA:2,2,_ZNSt3__117reference_wrapperIK11custom_typeEC1B8ne200100IRS2_vLi0EEEOT_
FNA:2,2,_ZNSt3__117reference_wrapperIK11custom_typeEC2B8ne200100IRS2_vLi0EEEOT_
FNA:2,1,_ZNSt3__117reference_wrapperIK13to_stringableEC1B8ne200100IRS2_vLi0EEEOT_
FNA:2,1,_ZNSt3__117reference_wrapperIK13to_stringableEC2B8ne200100IRS2_vLi0EEEOT_
FNA:2,2,_ZNSt3__117reference_wrapperIK19type_with_format_asEC1B8ne200100IRS2_vLi0EEEOT_
FNA:2,2,_ZNSt3__117reference_wrapperIK19type_with_format_asEC2B8ne200100IRS2_vLi0EEEOT_
FNA:2,2,_ZNSt3__117reference_wrapperIK26type_with_format_as_stringEC1B8ne200100IRS2_vLi0EEEOT_
FNA:2,2,_ZNSt3__117reference_wrapperIK26type_with_format_as_stringEC2B8ne200100IRS2_vLi0EEEOT_
FNA:2,2,_ZNSt3__117reference_wrapperIKiEC1B8ne200100IRS1_vLi0EEEOT_
FNA:2,2,_ZNSt3__117reference_wrapperIKiEC2B8ne200100IRS1_vLi0EEEOT_
FNA:2,2,_ZNSt3__117reference_wrapperIiEC1B8ne200100IRivLi0EEEOT_
FNA:2,2,_ZNSt3__117reference_wrapperIiEC2B8ne200100IRivLi0EEEOT_
FNL:3,55
FNA:3,2,_ZNKSt3__117reference_wrapperI19type_with_format_asEcvRS1_B8ne200100Ev
FNA:3,2,_ZNKSt3__117reference_wrapperI26type_with_format_as_stringEcvRS1_B8ne200100Ev
FNA:3,1,_ZNKSt3__117reference_wrapperIA11_KcEcvRS2_B8ne200100Ev
FNA:3,1,_ZNKSt3__117reference_wrapperIA15_KcEcvRS2_B8ne200100Ev
FNA:3,1,_ZNKSt3__117reference_wrapperIK11custom_typeEcvRS2_B8ne200100Ev
FNA:3,2,_ZNKSt3__117reference_wrapperIK19type_with_format_asEcvRS2_B8ne200100Ev
FNA:3,2,_ZNKSt3__117reference_wrapperIK26type_with_format_as_stringEcvRS2_B8ne200100Ev
FNL:4,56
FNA:4,1,_ZNKSt3__117reference_wrapperIA11_KcE3getB8ne200100Ev
FNA:4,1,_ZNKSt3__117reference_wrapperIK11custom_typeE3getB8ne200100Ev
FNA:4,1,_ZNKSt3__117reference_wrapperIK13to_stringableE3getB8ne200100Ev
FNA:4,2,_ZNKSt3__117reference_wrapperIKiE3getB8ne200100Ev
FNA:4,2,_ZNKSt3__117reference_wrapperIiE3getB8ne200100Ev
FNF:5
FNH:5
DA:48,36
DA:49,18
DA:50,18
DA:51,18
DA:52,36
DA:55,11
DA:56,7
DA:126,6
DA:127,6
DA:137,12
DA:138,12
LF:11
LH:11
end_of_record
TN:
SF:/Applications/Xcode.app/Contents/Developer/Platforms/MacOSX.platform/Developer/SDKs/MacOSX.sdk/usr/include/c++/v1/__fwd/sstream.h
FNL:0,23
FNA:0,0,_ZNSt3__115basic_stringbufIwNS_11char_traitsIwEENS_9allocatorIwEEED0Ev
FNA:0,2,_ZNSt3__115basic_stringbufIwNS_11char_traitsIwEENS_9allocatorIwEEED1Ev
FNA:0,2,_ZNSt3__115basic_stringbufIwNS_11char_traitsIwEENS_9allocatorIwEEED2Ev
FNL:1,28
FNA:1,0,_ZNSt3__119basic_ostringstreamIwNS_11char_traitsIwEENS_9allocatorIwEEED0Ev
FNA:1,2,_ZNSt3__119basic_ostringstreamIwNS_11char_traitsIwEENS_9allocatorIwEEED1Ev
FNA:1,2,_ZNSt3__119basic_ostringstreamIwNS_11char_traitsIwEENS_9allocatorIwEEED2Ev
FNF:2
FNH:2
LF:0
LH:0
end_of_record
TN:
SF:/Applications/Xcode.app/Contents/Developer/Platforms/MacOSX.platform/Developer/SDKs/MacOSX.sdk/usr/include/c++/v1/__hash_table
FNL:0,101
FNA:0,165,_ZNSt3__116__hash_node_baseIPNS_11__hash_nodeINS_17__hash_value_typeImN7testing8internal12CallReactionEEEPvEEE8__upcastB8ne200100Ev
FNL:1,1029
FNA:1,3,_ZNSt3__112__hash_tableINS_17__hash_value_typeImN7testing8internal12CallReactionEEENS_22__unordered_map_hasherImS5_NS_4hashImEENS_8equal_toImEELb1EEENS_21__unordered_map_equalImS5_SA_S8_Lb1EEENS_9allocatorIS5_EEEC1Ev
FNA:1,3,_ZNSt3__112__hash_tableINS_17__hash_value_typeImN7testing8internal12CallReactionEEENS_22__unordered_map_hasherImS5_NS_4hashImEENS_8equal_toImEELb1EEENS_21__unordered_map_equalImS5_SA_S8_Lb1EEENS_9allocatorIS5_EEEC2Ev
FNL:2,105
FNA:2,165,_ZNKSt3__116__hash_node_baseIPNS_11__hash_nodeINS_17__hash_value_typeImN7testing8internal12CallReactionEEEPvEEE6__hashB8ne200100Ev
FNL:3,107
FNA:3,3,_ZNSt3__116__hash_node_baseIPNS_11__hash_nodeINS_17__hash_value_typeImN7testing8internal12CallReactionEEEPvEEEC1B8ne200100Ev
FNA:3,3,_ZNSt3__116__hash_node_baseIPNS_11__hash_nodeINS_17__hash_value_typeImN7testing8internal12CallReactionEEEPvEEEC2B8ne200100Ev
FNL:4,108
FNA:4,55,_ZNSt3__116__hash_node_baseIPNS_11__hash_nodeINS_17__hash_value_typeImN7testing8internal12CallReactionEEEPvEEEC2B8ne200100EPSA_
FNL:5,129
FNA:5,220,_ZNSt3__111__hash_nodeINS_17__hash_value_typeImN7testing8internal12CallReactionEEEPvE11__get_valueB8ne200100Ev
FNL:6,1320
FNA:6,55,_ZNSt3__112__hash_tableINS_17__hash_value_typeImN7testing8internal12CallReactionEEENS_22__unordered_map_hasherImS5_NS_4hashImEENS_8equal_toImEELb1EEENS_21__unordered_map_equalImS5_SA_S8_Lb1EEENS_9allocatorIS5_EEE3endEv
FNL:7,1332
FNA:7,0,_ZNKSt3__112__hash_tableINS_17__hash_value_typeImN7testing8internal12CallReactionEEENS_22__unordered_map_hasherImS5_NS_4hashImEENS_8equal_toImEELb1EEENS_21__unordered_map_equalImS5_SA_S8_Lb1EEENS_9allocatorIS5_EEE3endEv
FNL:8,139
FNA:8,55,_ZNSt3__111__hash_nodeINS_17__hash_value_typeImN7testing8internal12CallReactionEEEPvEC1B8ne200100EPNS_16__hash_node_baseIPS7_EEm
FNA:8,55,_ZNSt3__111__hash_nodeINS_17__hash_value_typeImN7testing8internal12CallReactionEEEPvEC2B8ne200100EPNS_16__hash_node_baseIPS7_EEm
FNL:9,140
FNA:9,55,_ZNSt3__111__hash_nodeINS_17__hash_value_typeImN7testing8internal12CallReactionEEEPvED1B8ne200100Ev
FNA:9,55,_ZNSt3__111__hash_nodeINS_17__hash_value_typeImN7testing8internal12CallReactionEEEPvED2B8ne200100Ev
FNL:10,143
FNA:10,3,_ZNSt3__116__is_hash_power2B8ne200100Em
FNL:11,145
FNA:11,165,_ZNSt3__116__constrain_hashB8ne200100Emm
FNL:12,149
FNA:12,0,_ZNSt3__116__next_hash_pow2B8ne200100Em
FNL:13,1528
FNA:13,0,_ZNSt3__112__hash_tableINS_17__hash_value_typeImN7testing8internal12CallReactionEEENS_22__unordered_map_hasherImS5_NS_4hashImEENS_8equal_toImEELb1EEENS_21__unordered_map_equalImS5_SA_S8_Lb1EEENS_9allocatorIS5_EEE25__emplace_unique_key_argsImJRKNS_21piecewise_construct_tENS_5tupleIJOmEEENSL_IJEEEEEENS_4pairINS_15__hash_iteratorIPNS_11__hash_nodeIS5_PvEEEEbEERKT_DpOT0_
FNA:13,55,_ZNSt3__112__hash_tableINS_17__hash_value_typeImN7testing8internal12CallReactionEEENS_22__unordered_map_hasherImS5_NS_4hashImEENS_8equal_toImEELb1EEENS_21__unordered_map_equalImS5_SA_S8_Lb1EEENS_9allocatorIS5_EEE25__emplace_unique_key_argsImJRKNS_21piecewise_construct_tENS_5tupleIJRKmEEENSL_IJEEEEEENS_4pairINS_15__hash_iteratorIPNS_11__hash_nodeIS5_PvEEEEbEERKT_DpOT0_
FNL:14,1708
FNA:14,3,_ZNSt3__112__hash_tableINS_17__hash_value_typeImN7testing8internal12CallReactionEEENS_22__unordered_map_hasherImS5_NS_4hashImEENS_8equal_toImEELb1EEENS_21__unordered_map_equalImS5_SA_S8_Lb1EEENS_9allocatorIS5_EEE8__rehashILb1EEEvm
FNL:15,1728
FNA:15,3,_ZNSt3__112__hash_tableINS_17__hash_value_typeImN7testing8internal12CallReactionEEENS_22__unordered_map_hasherImS5_NS_4hashImEENS_8equal_toImEELb1EEENS_21__unordered_map_equalImS5_SA_S8_Lb1EEENS_9allocatorIS5_EEE11__do_rehashILb1EEEvm
FNL:16,1771
FNA:16,55,_ZNSt3__112__hash_tableINS_17__hash_value_typeImN7testing8internal12CallReactionEEENS_22__unordered_map_hasherImS5_NS_4hashImEENS_8equal_toImEELb1EEENS_21__unordered_map_equalImS5_SA_S8_Lb1EEENS_9allocatorIS5_EEE4findImEENS_15__hash_iteratorIPNS_11__hash_nodeIS5_PvEEEERKT_
FNL:17,1792
FNA:17,0,_ZNKSt3__112__hash_tableINS_17__hash_value_typeImN7testing8internal12CallReactionEEENS_22__unordered_map_hasherImS5_NS_4hashImEENS_8equal_toImEELb1EEENS_21__unordered_map_equalImS5_SA_S8_Lb1EEENS_9allocatorIS5_EEE4findImEENS_21__hash_const_iteratorIPNS_11__hash_nodeIS5_PvEEEERKT_
FNL:18,1837
FNA:18,0,_ZNSt3__112__hash_tableINS_17__hash_value_typeImN7testing8internal12CallReactionEEENS_22__unordered_map_hasherImS5_NS_4hashImEENS_8equal_toImEELb1EEENS_21__unordered_map_equalImS5_SA_S8_Lb1EEENS_9allocatorIS5_EEE21__construct_node_hashIRKNS_21piecewise_construct_tEJNS_5tupleIJOmEEENSL_IJEEEEEENS_10unique_ptrINS_11__hash_nodeIS5_PvEENS_22__hash_node_destructorINSE_ISS_EEEEEEmOT_DpOT0_
FNA:18,55,_ZNSt3__112__hash_tableINS_17__hash_value_typeImN7testing8internal12CallReactionEEENS_22__unordered_map_hasherImS5_NS_4hashImEENS_8equal_toImEELb1EEENS_21__unordered_map_equalImS5_SA_S8_Lb1EEENS_9allocatorIS5_EEE21__construct_node_hashIRKNS_21piecewise_construct_tEJNS_5tupleIJRKmEEENSL_IJEEEEEENS_10unique_ptrINS_11__hash_nodeIS5_PvEENS_22__hash_node_destructorINSE_IST_EEEEEEmOT_DpOT0_
FNL:19,1850
FNA:19,55,_ZNSt3__112__hash_tableINS_17__hash_value_typeImN7testing8internal12CallReactionEEENS_22__unordered_map_hasherImS5_NS_4hashImEENS_8equal_toImEELb1EEENS_21__unordered_map_equalImS5_SA_S8_Lb1EEENS_9allocatorIS5_EEE5eraseENS_21__hash_const_iteratorIPNS_11__hash_nodeIS5_PvEEEE
FNL:20,1874
FNA:20,55,_ZNSt3__112__hash_tableINS_17__hash_value_typeImN7testing8internal12CallReactionEEENS_22__unordered_map_hasherImS5_NS_4hashImEENS_8equal_toImEELb1EEENS_21__unordered_map_equalImS5_SA_S8_Lb1EEENS_9allocatorIS5_EEE14__erase_uniqueImEEmRKT_
FNL:21,1900
FNA:21,55,_ZNSt3__112__hash_tableINS_17__hash_value_typeImN7testing8internal12CallReactionEEENS_22__unordered_map_hasherImS5_NS_4hashImEENS_8equal_toImEELb1EEENS_21__unordered_map_equalImS5_SA_S8_Lb1EEENS_9allocatorIS5_EEE6removeENS_21__hash_const_iteratorIPNS_11__hash_nodeIS5_PvEEEE
FNL:22,1932
FNA:22,0,_ZNKSt3__112__hash_tableINS_17__hash_value_typeImN7testing8internal12CallReactionEEENS_22__unordered_map_hasherImS5_NS_4hashImEENS_8equal_toImEELb1EEENS_21__unordered_map_equalImS5_SA_S8_Lb1EEENS_9allocatorIS5_EEE14__count_uniqueImEEmRKT_
FNL:23,204
FNA:23,110,_ZNSt3__122__hash_key_value_typesINS_17__hash_value_typeImN7testing8internal12CallReactionEEEE9__get_ptrB8ne200100ERS5_
FNL:24,298
FNA:24,55,_ZNKSt3__115__hash_iteratorIPNS_11__hash_nodeINS_17__hash_value_typeImN7testing8internal12CallReactionEEEPvEEEptB8ne200100Ev
FNL:25,304
FNA:25,55,_ZNSt3__115__hash_iteratorIPNS_11__hash_nodeINS_17__hash_value_typeImN7testing8internal12CallReactionEEEPvEEEppB8ne200100Ev
FNL:26,317
FNA:26,55,_ZNSt3__1eqB8ne200100ERKNS_15__hash_iteratorIPNS_11__hash_nodeINS_17__hash_value_typeImN7testing8internal12CallReactionEEEPvEEEESC_
FNL:27,325
FNA:27,220,_ZNSt3__115__hash_iteratorIPNS_11__hash_nodeINS_17__hash_value_typeImN7testing8internal12CallReactionEEEPvEEEC1B8ne200100EPNS_16__hash_node_baseIS9_EE
FNA:27,220,_ZNSt3__115__hash_iteratorIPNS_11__hash_nodeINS_17__hash_value_typeImN7testing8internal12CallReactionEEEPvEEEC2B8ne200100EPNS_16__hash_node_baseIS9_EE
FNL:28,359
FNA:28,55,_ZNSt3__121__hash_const_iteratorIPNS_11__hash_nodeINS_17__hash_value_typeImN7testing8internal12CallReactionEEEPvEEEC1B8ne200100ERKNS_15__hash_iteratorIS9_EE
FNA:28,55,_ZNSt3__121__hash_const_iteratorIPNS_11__hash_nodeINS_17__hash_value_typeImN7testing8internal12CallReactionEEEPvEEEC2B8ne200100ERKNS_15__hash_iteratorIS9_EE
FNL:29,385
FNA:29,0,_ZNSt3__1eqB8ne200100ERKNS_21__hash_const_iteratorIPNS_11__hash_nodeINS_17__hash_value_typeImN7testing8internal12CallReactionEEEPvEEEESC_
FNL:30,388
FNA:30,0,_ZNSt3__1neB8ne200100ERKNS_21__hash_const_iteratorIPNS_11__hash_nodeINS_17__hash_value_typeImN7testing8internal12CallReactionEEEPvEEEESC_
FNL:31,393
FNA:31,0,_ZNSt3__121__hash_const_iteratorIPNS_11__hash_nodeINS_17__hash_value_typeImN7testing8internal12CallReactionEEEPvEEEC1B8ne200100EPNS_16__hash_node_baseIS9_EE
FNA:31,0,_ZNSt3__121__hash_const_iteratorIPNS_11__hash_nodeINS_17__hash_value_typeImN7testing8internal12CallReactionEEEPvEEEC2B8ne200100EPNS_16__hash_node_baseIS9_EE
FNL:32,570
FNA:32,3,_ZNSt3__125__bucket_list_deallocatorINS_9allocatorIPNS_16__hash_node_baseIPNS_11__hash_nodeINS_17__hash_value_typeImN7testing8internal12CallReactionEEEPvEEEEEEEC1B8ne200100Ev
FNA:32,3,_ZNSt3__125__bucket_list_deallocatorINS_9allocatorIPNS_16__hash_node_baseIPNS_11__hash_nodeINS_17__hash_value_typeImN7testing8internal12CallReactionEEEPvEEEEEEEC2B8ne200100Ev
FNL:33,583
FNA:33,3,_ZNSt3__125__bucket_list_deallocatorINS_9allocatorIPNS_16__hash_node_baseIPNS_11__hash_nodeINS_17__hash_value_typeImN7testing8internal12CallReactionEEEPvEEEEEEE4sizeB8ne200100Ev
FNL:34,584
FNA:34,171,_ZNKSt3__125__bucket_list_deallocatorINS_9allocatorIPNS_16__hash_node_baseIPNS_11__hash_nodeINS_17__hash_value_typeImN7testing8internal12CallReactionEEEPvEEEEEEE4sizeB8ne200100Ev
FNL:35,586
FNA:35,3,_ZNSt3__125__bucket_list_deallocatorINS_9allocatorIPNS_16__hash_node_baseIPNS_11__hash_nodeINS_17__hash_value_typeImN7testing8internal12CallReactionEEEPvEEEEEEE7__allocB8ne200100Ev
FNL:36,589
FNA:36,0,_ZNSt3__125__bucket_list_deallocatorINS_9allocatorIPNS_16__hash_node_baseIPNS_11__hash_nodeINS_17__hash_value_typeImN7testing8internal12CallReactionEEEPvEEEEEEEclB8ne200100EPSD_
FNL:37,614
FNA:37,110,_ZNSt3__122__hash_node_destructorINS_9allocatorINS_11__hash_nodeINS_17__hash_value_typeImN7testing8internal12CallReactionEEEPvEEEEEC1B8ne200100ERSA_b
FNA:37,110,_ZNSt3__122__hash_node_destructorINS_9allocatorINS_11__hash_nodeINS_17__hash_value_typeImN7testing8internal12CallReactionEEEPvEEEEEC2B8ne200100ERSA_b
FNL:38,618
FNA:38,55,_ZNSt3__122__hash_node_destructorINS_9allocatorINS_11__hash_nodeINS_17__hash_value_typeImN7testing8internal12CallReactionEEEPvEEEEEclB8ne200100EPS9_
FNL:39,732
FNA:39,168,_ZNSt3__112__hash_tableINS_17__hash_value_typeImN7testing8internal12CallReactionEEENS_22__unordered_map_hasherImS5_NS_4hashImEENS_8equal_toImEELb1EEENS_21__unordered_map_equalImS5_SA_S8_Lb1EEENS_9allocatorIS5_EEE4sizeB8ne200100Ev
FNL:40,737
FNA:40,110,_ZNSt3__112__hash_tableINS_17__hash_value_typeImN7testing8internal12CallReactionEEENS_22__unordered_map_hasherImS5_NS_4hashImEENS_8equal_toImEELb1EEENS_21__unordered_map_equalImS5_SA_S8_Lb1EEENS_9allocatorIS5_EEE13hash_functionB8ne200100Ev
FNL:41,738
FNA:41,0,_ZNKSt3__112__hash_tableINS_17__hash_value_typeImN7testing8internal12CallReactionEEENS_22__unordered_map_hasherImS5_NS_4hashImEENS_8equal_toImEELb1EEENS_21__unordered_map_equalImS5_SA_S8_Lb1EEENS_9allocatorIS5_EEE13hash_functionB8ne200100Ev
FNL:42,740
FNA:42,58,_ZNSt3__112__hash_tableINS_17__hash_value_typeImN7testing8internal12CallReactionEEENS_22__unordered_map_hasherImS5_NS_4hashImEENS_8equal_toImEELb1EEENS_21__unordered_map_equalImS5_SA_S8_Lb1EEENS_9allocatorIS5_EEE15max_load_factorB8ne200100Ev
FNL:43,743
FNA:43,55,_ZNSt3__112__hash_tableINS_17__hash_value_typeImN7testing8internal12CallReactionEEENS_22__unordered_map_hasherImS5_NS_4hashImEENS_8equal_toImEELb1EEENS_21__unordered_map_equalImS5_SA_S8_Lb1EEENS_9allocatorIS5_EEE6key_eqB8ne200100Ev
FNL:44,744
FNA:44,0,_ZNKSt3__112__hash_tableINS_17__hash_value_typeImN7testing8internal12CallReactionEEENS_22__unordered_map_hasherImS5_NS_4hashImEENS_8equal_toImEELb1EEENS_21__unordered_map_equalImS5_SA_S8_Lb1EEENS_9allocatorIS5_EEE6key_eqB8ne200100Ev
FNL:45,746
FNA:45,110,_ZNSt3__112__hash_tableINS_17__hash_value_typeImN7testing8internal12CallReactionEEENS_22__unordered_map_hasherImS5_NS_4hashImEENS_8equal_toImEELb1EEENS_21__unordered_map_equalImS5_SA_S8_Lb1EEENS_9allocatorIS5_EEE12__node_allocB8ne200100Ev
FNL:46,883
FNA:46,3,_ZNSt3__112__hash_tableINS_17__hash_value_typeImN7testing8internal12CallReactionEEENS_22__unordered_map_hasherImS5_NS_4hashImEENS_8equal_toImEELb1EEENS_21__unordered_map_equalImS5_SA_S8_Lb1EEENS_9allocatorIS5_EEE15__rehash_uniqueB8ne200100Em
FNL:47,892
FNA:47,171,_ZNKSt3__112__hash_tableINS_17__hash_value_typeImN7testing8internal12CallReactionEEENS_22__unordered_map_hasherImS5_NS_4hashImEENS_8equal_toImEELb1EEENS_21__unordered_map_equalImS5_SA_S8_Lb1EEENS_9allocatorIS5_EEE12bucket_countB8ne200100Ev
FNL:48,97
FNA:48,168,_ZNSt3__116__hash_node_baseIPNS_11__hash_nodeINS_17__hash_value_typeImN7testing8internal12CallReactionEEEPvEEE5__ptrB8ne200100Ev
FNF:49
FNH:39
DA:97,168
DA:98,168
DA:101,165
DA:102,165
DA:105,165
DA:107,6
DA:108,55
DA:129,220
DA:139,110
DA:140,110
DA:143,3
DA:145,165
DA:146,165
DA:149,0
DA:150,0
DA:204,110
DA:205,110
DA:298,55
DA:301,55
DA:304,55
DA:307,55
DA:308,55
DA:317,55
DA:318,55
DA:325,440
DA:359,110
DA:385,0
DA:386,0
DA:388,0
DA:389,0
DA:393,0
DA:570,9
DA:571,9
DA:583,3
DA:584,171
DA:586,3
DA:589,0
DA:614,220
DA:615,110
DA:616,220
DA:618,55
DA:619,55
DA:620,55
DA:621,55
DA:622,55
DA:623,55
DA:624,55
DA:625,55
DA:732,168
DA:737,110
DA:738,0
DA:740,58
DA:743,55
DA:744,0
DA:746,110
DA:883,3
DA:892,171
DA:1029,12
DA:1033,12
DA:1320,55
DA:1321,55
DA:1332,0
DA:1333,0
DA:1528,55
DA:1529,55
DA:1530,55
DA:1531,55
DA:1532,55
DA:1533,55
DA:1534,55
DA:1535,52
DA:1536,52
DA:1537,52
DA:1538,0
DA:1539,0
DA:1540,0
DA:1541,0
DA:1542,0
DA:1543,0
DA:1544,0
DA:1545,52
DA:1547,52
DA:1548,52
DA:1549,3
DA:1550,3
DA:1551,3
DA:1552,3
DA:1553,3
DA:1555,55
DA:1556,55
DA:1557,55
DA:1558,55
DA:1559,55
DA:1561,55
DA:1562,55
DA:1563,0
DA:1564,55
DA:1565,0
DA:1566,0
DA:1568,55
DA:1570,55
DA:1571,55
DA:1572,55
DA:1574,55
DA:1575,55
DA:1708,3
DA:1709,3
DA:1710,3
DA:1711,0
DA:1712,0
DA:1713,3
DA:1714,3
DA:1715,3
DA:1716,0
DA:1717,0
DA:1719,0
DA:1720,0
DA:1721,0
DA:1722,0
DA:1723,0
DA:1724,3
DA:1728,3
DA:1729,3
DA:1730,3
DA:1731,3
DA:1732,3
DA:1733,9
DA:1734,6
DA:1735,3
DA:1736,3
DA:1737,3
DA:1738,0
DA:1739,0
DA:1740,0
DA:1741,0
DA:1742,0
DA:1743,0
DA:1744,0
DA:1746,0
DA:1747,0
DA:1748,0
DA:1749,0
DA:1750,0
DA:1751,0
DA:1758,0
DA:1759,0
DA:1760,0
DA:1761,0
DA:1763,0
DA:1764,0
DA:1765,3
DA:1766,3
DA:1771,55
DA:1772,55
DA:1773,55
DA:1774,55
DA:1775,55
DA:1776,55
DA:1777,55
DA:1778,110
DA:1779,55
DA:1780,0
DA:1781,55
DA:1782,55
DA:1783,0
DA:1784,0
DA:1785,55
DA:1786,0
DA:1787,55
DA:1792,0
DA:1793,0
DA:1794,0
DA:1795,0
DA:1796,0
DA:1797,0
DA:1798,0
DA:1799,0
DA:1800,0
DA:1801,0
DA:1802,0
DA:1803,0
DA:1804,0
DA:1805,0
DA:1806,0
DA:1807,0
DA:1808,0
DA:1837,55
DA:1839,55
DA:1840,55
DA:1841,55
DA:1842,55
DA:1843,55
DA:1844,55
DA:1845,55
DA:1846,55
DA:1850,55
DA:1851,55
DA:1854,55
DA:1855,55
DA:1856,55
DA:1858,55
DA:1874,55
DA:1875,55
DA:1876,55
DA:1877,0
DA:1878,55
DA:1879,55
DA:1880,55
DA:1900,55
DA:1902,55
DA:1903,55
DA:1904,55
DA:1906,55
DA:1907,55
DA:1912,55
DA:1913,0
DA:1914,55
DA:1915,55
DA:1917,110
DA:1918,0
DA:1919,0
DA:1920,0
DA:1921,0
DA:1923,55
DA:1924,55
DA:1925,55
DA:1926,55
DA:1927,55
DA:1932,0
DA:1933,0
LF:230
LH:151
end_of_record
TN:
SF:/Applications/Xcode.app/Contents/Developer/Platforms/MacOSX.platform/Developer/SDKs/MacOSX.sdk/usr/include/c++/v1/__ios/fpos.h
FNL:0,29
FNA:0,0,_ZNSt3__14fposI11__mbstate_tEC1B8ne200100Ex
FNA:0,0,_ZNSt3__14fposI11__mbstate_tEC2B8ne200100Ex
FNL:1,31
FNA:1,0,_ZNKSt3__14fposI11__mbstate_tEcvxB8ne200100Ev
FNF:2
FNH:0
DA:29,0
DA:31,0
LF:2
LH:0
end_of_record
TN:
SF:/Applications/Xcode.app/Contents/Developer/Platforms/MacOSX.platform/Developer/SDKs/MacOSX.sdk/usr/include/c++/v1/__iterator/access.h
FNL:0,23
FNA:0,8,_ZNSt3__15beginB8ne200100IDiLm32EEEPT_RAT0__S1_
FNA:0,25,_ZNSt3__15beginB8ne200100IcLm10EEEPT_RAT0__S1_
FNA:0,15,_ZNSt3__15beginB8ne200100IcLm8EEEPT_RAT0__S1_
FNA:0,0,_ZNSt3__15beginB8ne200100IwLm32EEEPT_RAT0__S1_
FNL:1,28
FNA:1,8,_ZNSt3__13endB8ne200100IDiLm32EEEPT_RAT0__S1_
FNA:1,25,_ZNSt3__13endB8ne200100IcLm10EEEPT_RAT0__S1_
FNA:1,15,_ZNSt3__13endB8ne200100IcLm8EEEPT_RAT0__S1_
FNA:1,0,_ZNSt3__13endB8ne200100IwLm32EEEPT_RAT0__S1_
FNL:2,35
FNA:2,2,_ZNSt3__15beginB8ne200100IN3fmt3v1212scan_contextEEEDTcldtfp_5beginEERT_
FNA:2,1,_ZNSt3__15beginB8ne200100INS_12basic_stringIcNS_11char_traitsIcEENS_9allocatorIcEEEEEEDTcldtfp_5beginEERT_
FNF:3
FNH:3
DA:23,48
DA:24,48
DA:28,48
DA:29,48
DA:35,3
DA:36,3
LF:6
LH:6
end_of_record
TN:
SF:/Applications/Xcode.app/Contents/Developer/Platforms/MacOSX.platform/Developer/SDKs/MacOSX.sdk/usr/include/c++/v1/__iterator/advance.h
FNL:0,46
FNA:0,0,_ZNSt3__19__advanceB8ne200100INS_21__tree_const_iteratorINS_12__value_typeINS_10error_codeEiEEPNS_11__tree_nodeIS4_PvEElEEEEvRT_NS_15iterator_traitsISA_E15difference_typeENS_26bidirectional_iterator_tagE
FNA:0,0,_ZNSt3__19__advanceB8ne200100INS_21__tree_const_iteratorINS_12__value_typeINS_12basic_stringIcNS_11char_traitsIcEENS_9allocatorIcEEEEiEEPNS_11__tree_nodeIS9_PvEElEEEEvRT_NS_15iterator_traitsISF_E15difference_typeENS_26bidirectional_iterator_tagE
FNA:0,0,_ZNSt3__19__advanceB8ne200100INS_21__tree_const_iteratorINS_12__value_typeINS_12basic_stringIwNS_11char_traitsIwEENS_9allocatorIwEEEEiEEPNS_11__tree_nodeIS9_PvEElEEEEvRT_NS_15iterator_traitsISF_E15difference_typeENS_26bidirectional_iterator_tagE
FNA:0,0,_ZNSt3__19__advanceB8ne200100INS_21__tree_const_iteratorINS_12__value_typeIi14test_map_valueEEPNS_11__tree_nodeIS4_PvEElEEEEvRT_NS_15iterator_traitsISA_E15difference_typeENS_26bidirectional_iterator_tagE
FNA:0,0,_ZNSt3__19__advanceB8ne200100INS_21__tree_const_iteratorINS_12basic_stringIcNS_11char_traitsIcEENS_9allocatorIcEEEEPNS_11__tree_nodeIS7_PvEElEEEEvRT_NS_15iterator_traitsISD_E15difference_typeENS_26bidirectional_iterator_tagE
FNL:1,57
FNA:1,133,_ZNSt3__19__advanceB8ne200100INS_11__wrap_iterIPcEEEEvRT_NS_15iterator_traitsIS4_E15difference_typeENS_26random_access_iterator_tagE
FNL:2,65
FNA:2,133,_ZNSt3__17advanceB8ne200100INS_11__wrap_iterIPcEEllLi0EEEvRT_T0_
FNA:2,0,_ZNSt3__17advanceB8ne200100INS_21__tree_const_iteratorINS_12__value_typeINS_10error_codeEiEEPNS_11__tree_nodeIS4_PvEElEEllLi0EEEvRT_T0_
FNA:2,0,_ZNSt3__17advanceB8ne200100INS_21__tree_const_iteratorINS_12__value_typeINS_12basic_stringIcNS_11char_traitsIcEENS_9allocatorIcEEEEiEEPNS_11__tree_nodeIS9_PvEElEEllLi0EEEvRT_T0_
FNA:2,0,_ZNSt3__17advanceB8ne200100INS_21__tree_const_iteratorINS_12__value_typeINS_12basic_stringIwNS_11char_traitsIwEENS_9allocatorIwEEEEiEEPNS_11__tree_nodeIS9_PvEElEEllLi0EEEvRT_T0_
FNA:2,0,_ZNSt3__17advanceB8ne200100INS_21__tree_const_iteratorINS_12__value_typeIi14test_map_valueEEPNS_11__tree_nodeIS4_PvEElEEllLi0EEEvRT_T0_
FNA:2,0,_ZNSt3__17advanceB8ne200100INS_21__tree_const_iteratorINS_12basic_stringIcNS_11char_traitsIcEENS_9allocatorIcEEEEPNS_11__tree_nodeIS7_PvEElEEllLi0EEEvRT_T0_
FNF:3
FNH:2
DA:46,0
DA:47,0
DA:48,0
DA:49,0
DA:51,0
DA:52,0
DA:53,0
DA:57,133
DA:58,133
DA:59,133
DA:65,133
DA:67,133
DA:71,133
DA:72,133
LF:14
LH:7
end_of_record
TN:
SF:/Applications/Xcode.app/Contents/Developer/Platforms/MacOSX.platform/Developer/SDKs/MacOSX.sdk/usr/include/c++/v1/__iterator/back_insert_iterator.h
FNL:0,53
FNA:0,1,_ZNSt3__120back_insert_iteratorI11mock_bufferIcEEC1B8ne200100ERS2_
FNA:0,1,_ZNSt3__120back_insert_iteratorI11mock_bufferIcEEC2B8ne200100ERS2_
FNA:0,2,_ZNSt3__120back_insert_iteratorI16custom_containerEC1B8ne200100ERS1_
FNA:0,2,_ZNSt3__120back_insert_iteratorI16custom_containerEC2B8ne200100ERS1_
FNA:0,1,_ZNSt3__120back_insert_iteratorI17minimal_containerEC1B8ne200100ERS1_
FNA:0,1,_ZNSt3__120back_insert_iteratorI17minimal_containerEC2B8ne200100ERS1_
FNA:0,1,_ZNSt3__120back_insert_iteratorI20nongrowing_containerEC1B8ne200100ERS1_
FNA:0,1,_ZNSt3__120back_insert_iteratorI20nongrowing_containerEC2B8ne200100ERS1_
FNA:0,23,_ZNSt3__120back_insert_iteratorIN3fmt3v1219basic_memory_bufferIcLm500ENS2_6detail9allocatorIcEEEEEC1B8ne200100ERS7_
FNA:0,23,_ZNSt3__120back_insert_iteratorIN3fmt3v1219basic_memory_bufferIcLm500ENS2_6detail9allocatorIcEEEEEC2B8ne200100ERS7_
FNA:0,26,_ZNSt3__120back_insert_iteratorINS_12basic_stringIcNS_11char_traitsIcEENS_9allocatorIcEEEEEC1B8ne200100ERS6_
FNA:0,26,_ZNSt3__120back_insert_iteratorINS_12basic_stringIcNS_11char_traitsIcEENS_9allocatorIcEEEEEC2B8ne200100ERS6_
FNA:0,4,_ZNSt3__120back_insert_iteratorINS_12basic_stringIwNS_11char_traitsIwEENS_9allocatorIwEEEEEC1B8ne200100ERS6_
FNA:0,4,_ZNSt3__120back_insert_iteratorINS_12basic_stringIwNS_11char_traitsIwEENS_9allocatorIwEEEEEC2B8ne200100ERS6_
FNA:0,1,_ZNSt3__120back_insert_iteratorINS_4listIcNS_9allocatorIcEEEEEC1B8ne200100ERS4_
FNA:0,1,_ZNSt3__120back_insert_iteratorINS_4listIcNS_9allocatorIcEEEEEC2B8ne200100ERS4_
FNA:0,2,_ZNSt3__120back_insert_iteratorINS_6vectorIcNS_9allocatorIcEEEEEC1B8ne200100ERS4_
FNA:0,2,_ZNSt3__120back_insert_iteratorINS_6vectorIcNS_9allocatorIcEEEEEC2B8ne200100ERS4_
FNA:0,1,_ZNSt3__120back_insert_iteratorINS_6vectorIwNS_9allocatorIwEEEEEC1B8ne200100ERS4_
FNA:0,1,_ZNSt3__120back_insert_iteratorINS_6vectorIwNS_9allocatorIwEEEEEC2B8ne200100ERS4_
FNL:1,56
FNA:1,1,_ZNSt3__120back_insert_iteratorI20nongrowing_containerEaSB8ne200100ERKc
FNA:1,0,_ZNSt3__120back_insert_iteratorIN3fmt3v1219basic_memory_bufferIcLm500ENS2_6detail9allocatorIcEEEEEaSB8ne200100ERKc
FNA:1,16,_ZNSt3__120back_insert_iteratorINS_12basic_stringIcNS_11char_traitsIcEENS_9allocatorIcEEEEEaSB8ne200100ERKc
FNA:1,2,_ZNSt3__120back_insert_iteratorINS_4listIcNS_9allocatorIcEEEEEaSB8ne200100ERKc
FNA:1,5,_ZNSt3__120back_insert_iteratorINS_6vectorIcNS_9allocatorIcEEEEEaSB8ne200100ERKc
FNA:1,3,_ZNSt3__120back_insert_iteratorINS_6vectorIwNS_9allocatorIwEEEEEaSB8ne200100ERKw
FNL:2,62
FNA:2,1,_ZNSt3__120back_insert_iteratorI17minimal_containerEaSB8ne200100EOc
FNA:2,4,_ZNSt3__120back_insert_iteratorIN3fmt3v1219basic_memory_bufferIcLm500ENS2_6detail9allocatorIcEEEEEaSB8ne200100EOc
FNA:2,6,_ZNSt3__120back_insert_iteratorINS_12basic_stringIcNS_11char_traitsIcEENS_9allocatorIcEEEEEaSB8ne200100EOc
FNL:3,67
FNA:3,1,_ZNSt3__120back_insert_iteratorI17minimal_containerEdeB8ne200100Ev
FNA:3,1,_ZNSt3__120back_insert_iteratorI20nongrowing_containerEdeB8ne200100Ev
FNA:3,4,_ZNSt3__120back_insert_iteratorIN3fmt3v1219basic_memory_bufferIcLm500ENS2_6detail9allocatorIcEEEEEdeB8ne200100Ev
FNA:3,22,_ZNSt3__120back_insert_iteratorINS_12basic_stringIcNS_11char_traitsIcEENS_9allocatorIcEEEEEdeB8ne200100Ev
FNA:3,2,_ZNSt3__120back_insert_iteratorINS_4listIcNS_9allocatorIcEEEEEdeB8ne200100Ev
FNA:3,5,_ZNSt3__120back_insert_iteratorINS_6vectorIcNS_9allocatorIcEEEEEdeB8ne200100Ev
FNA:3,3,_ZNSt3__120back_insert_iteratorINS_6vectorIwNS_9allocatorIwEEEEEdeB8ne200100Ev
FNL:4,69
FNA:4,1,_ZNSt3__120back_insert_iteratorI17minimal_containerEppB8ne200100Ei
FNA:4,1,_ZNSt3__120back_insert_iteratorI20nongrowing_containerEppB8ne200100Ei
FNA:4,4,_ZNSt3__120back_insert_iteratorIN3fmt3v1219basic_memory_bufferIcLm500ENS2_6detail9allocatorIcEEEEEppB8ne200100Ei
FNA:4,22,_ZNSt3__120back_insert_iteratorINS_12basic_stringIcNS_11char_traitsIcEENS_9allocatorIcEEEEEppB8ne200100Ei
FNA:4,2,_ZNSt3__120back_insert_iteratorINS_4listIcNS_9allocatorIcEEEEEppB8ne200100Ei
FNA:4,5,_ZNSt3__120back_insert_iteratorINS_6vectorIcNS_9allocatorIcEEEEEppB8ne200100Ei
FNA:4,3,_ZNSt3__120back_insert_iteratorINS_6vectorIwNS_9allocatorIwEEEEEppB8ne200100Ei
FNL:5,77
FNA:5,1,_ZNSt3__113back_inserterB8ne200100I11mock_bufferIcEEENS_20back_insert_iteratorIT_EERS4_
FNA:5,1,_ZNSt3__113back_inserterB8ne200100I16custom_containerEENS_20back_insert_iteratorIT_EERS3_
FNA:5,1,_ZNSt3__113back_inserterB8ne200100I17minimal_containerEENS_20back_insert_iteratorIT_EERS3_
FNA:5,1,_ZNSt3__113back_inserterB8ne200100I20nongrowing_containerEENS_20back_insert_iteratorIT_EERS3_
FNA:5,23,_ZNSt3__113back_inserterB8ne200100IN3fmt3v1219basic_memory_bufferIcLm500ENS2_6detail9allocatorIcEEEEEENS_20back_insert_iteratorIT_EERS9_
FNA:5,17,_ZNSt3__113back_inserterB8ne200100INS_12basic_stringIcNS_11char_traitsIcEENS_9allocatorIcEEEEEENS_20back_insert_iteratorIT_EERS8_
FNA:5,2,_ZNSt3__113back_inserterB8ne200100INS_12basic_stringIwNS_11char_traitsIwEENS_9allocatorIwEEEEEENS_20back_insert_iteratorIT_EERS8_
FNA:5,1,_ZNSt3__113back_inserterB8ne200100INS_4listIcNS_9allocatorIcEEEEEENS_20back_insert_iteratorIT_EERS6_
FNA:5,2,_ZNSt3__113back_inserterB8ne200100INS_6vectorIcNS_9allocatorIcEEEEEENS_20back_insert_iteratorIT_EERS6_
FNA:5,1,_ZNSt3__113back_inserterB8ne200100INS_6vectorIwNS_9allocatorIwEEEEEENS_20back_insert_iteratorIT_EERS6_
FNF:6
FNH:6
DA:53,124
DA:54,124
DA:56,27
DA:57,27
DA:58,27
DA:62,11
DA:63,11
DA:64,11
DA:67,38
DA:69,38
DA:77,50
DA:78,50
LF:12
LH:12
end_of_record
TN:
SF:/Applications/Xcode.app/Contents/Developer/Platforms/MacOSX.platform/Developer/SDKs/MacOSX.sdk/usr/include/c++/v1/__iterator/distance.h
FNL:0,31
FNA:0,1,_ZNSt3__110__distanceB8ne200100INS_15__list_iteratorIcPvEEEENS_15iterator_traitsIT_E15difference_typeES5_S5_NS_18input_iterator_tagE
FNL:1,40
FNA:1,0,_ZNSt3__110__distanceB8ne200100INS_11__wrap_iterIPKNS_12basic_stringIcNS_11char_traitsIcEENS_9allocatorIcEEEEEEEENS_15iterator_traitsIT_E15difference_typeESC_SC_NS_26random_access_iterator_tagE
FNA:1,2,_ZNSt3__110__distanceB8ne200100INS_11__wrap_iterIPKcEEEENS_15iterator_traitsIT_E15difference_typeES6_S6_NS_26random_access_iterator_tagE
FNA:1,0,_ZNSt3__110__distanceB8ne200100INS_13move_iteratorIPN3fmt3v1216basic_format_argINS3_7contextEEEEEEENS_15iterator_traitsIT_E15difference_typeESA_SA_NS_26random_access_iterator_tagE
FNA:1,0,_ZNSt3__110__distanceB8ne200100INS_13move_iteratorIPPN7testing9TestSuiteEEEEENS_15iterator_traitsIT_E15difference_typeES8_S8_NS_26random_access_iterator_tagE
FNA:1,0,_ZNSt3__110__distanceB8ne200100INS_13move_iteratorIPPcEEEENS_15iterator_traitsIT_E15difference_typeES6_S6_NS_26random_access_iterator_tagE
FNA:1,0,_ZNSt3__110__distanceB8ne200100INS_13move_iteratorIPPiEEEENS_15iterator_traitsIT_E15difference_typeES6_S6_NS_26random_access_iterator_tagE
FNA:1,0,_ZNSt3__110__distanceB8ne200100IPKPKcEENS_15iterator_traitsIT_E15difference_typeES6_S6_NS_26random_access_iterator_tagE
FNA:1,4,_ZNSt3__110__distanceB8ne200100IPKcEENS_15iterator_traitsIT_E15difference_typeES4_S4_NS_26random_access_iterator_tagE
FNA:1,14,_ZNSt3__110__distanceB8ne200100IPcEENS_15iterator_traitsIT_E15difference_typeES3_S3_NS_26random_access_iterator_tagE
FNA:1,2,_ZNSt3__110__distanceB8ne200100IPwEENS_15iterator_traitsIT_E15difference_typeES3_S3_NS_26random_access_iterator_tagE
FNL:2,46
FNA:2,0,_ZNSt3__18distanceB8ne200100INS_11__wrap_iterIPKNS_12basic_stringIcNS_11char_traitsIcEENS_9allocatorIcEEEEEEEENS_15iterator_traitsIT_E15difference_typeESC_SC_
FNA:2,2,_ZNSt3__18distanceB8ne200100INS_11__wrap_iterIPKcEEEENS_15iterator_traitsIT_E15difference_typeES6_S6_
FNA:2,0,_ZNSt3__18distanceB8ne200100INS_13move_iteratorIPN3fmt3v1216basic_format_argINS3_7contextEEEEEEENS_15iterator_traitsIT_E15difference_typeESA_SA_
FNA:2,0,_ZNSt3__18distanceB8ne200100INS_13move_iteratorIPPN7testing9TestSuiteEEEEENS_15iterator_traitsIT_E15difference_typeES8_S8_
FNA:2,0,_ZNSt3__18distanceB8ne200100INS_13move_iteratorIPPcEEEENS_15iterator_traitsIT_E15difference_typeES6_S6_
FNA:2,0,_ZNSt3__18distanceB8ne200100INS_13move_iteratorIPPiEEEENS_15iterator_traitsIT_E15difference_typeES6_S6_
FNA:2,1,_ZNSt3__18distanceB8ne200100INS_15__list_iteratorIcPvEEEENS_15iterator_traitsIT_E15difference_typeES5_S5_
FNA:2,0,_ZNSt3__18distanceB8ne200100IPKPKcEENS_15iterator_traitsIT_E15difference_typeES6_S6_
FNA:2,4,_ZNSt3__18distanceB8ne200100IPKcEENS_15iterator_traitsIT_E15difference_typeES4_S4_
FNA:2,14,_ZNSt3__18distanceB8ne200100IPcEENS_15iterator_traitsIT_E15difference_typeES3_S3_
FNA:2,2,_ZNSt3__18distanceB8ne200100IPwEENS_15iterator_traitsIT_E15difference_typeES3_S3_
FNF:3
FNH:3
DA:31,1
DA:32,1
DA:33,3
DA:34,2
DA:35,2
DA:36,1
DA:40,22
DA:41,22
DA:46,23
DA:47,23
LF:10
LH:10
end_of_record
TN:
SF:/Applications/Xcode.app/Contents/Developer/Platforms/MacOSX.platform/Developer/SDKs/MacOSX.sdk/usr/include/c++/v1/__iterator/istream_iterator.h
FNL:0,52
FNA:0,3,_ZNSt3__116istream_iteratorIicNS_11char_traitsIcEElEC1B8ne200100Ev
FNA:0,3,_ZNSt3__116istream_iteratorIicNS_11char_traitsIcEElEC2B8ne200100Ev
FNL:1,56
FNA:1,1,_ZNSt3__116istream_iteratorIicNS_11char_traitsIcEElEC1B8ne200100ERNS_13basic_istreamIcS2_EE
FNA:1,3,_ZNSt3__116istream_iteratorIicNS_11char_traitsIcEElEC2B8ne200100ERNS_13basic_istreamIcS2_EE
FNL:2,61
FNA:2,15,_ZNKSt3__116istream_iteratorIicNS_11char_traitsIcEElEdeB8ne200100Ev
FNL:3,63
FNA:3,15,_ZNSt3__116istream_iteratorIicNS_11char_traitsIcEElEppB8ne200100Ev
FNL:4,86
FNA:4,18,_ZNSt3__1eqB8ne200100IicNS_11char_traitsIcEElEEbRKNS_16istream_iteratorIT_T0_T1_T2_EESA_
FNL:5,93
FNA:5,16,_ZNSt3__1neB8ne200100IicNS_11char_traitsIcEElEEbRKNS_16istream_iteratorIT_T0_T1_T2_EESA_
FNF:6
FNH:6
DA:52,6
DA:56,4
DA:57,3
DA:58,0
DA:59,4
DA:61,15
DA:63,15
DA:64,15
DA:65,3
DA:66,15
DA:86,18
DA:88,18
DA:93,16
DA:95,16
LF:14
LH:13
end_of_record
TN:
SF:/Applications/Xcode.app/Contents/Developer/Platforms/MacOSX.platform/Developer/SDKs/MacOSX.sdk/usr/include/c++/v1/__iterator/move_iterator.h
FNL:0,112
FNA:0,0,_ZNSt3__113move_iteratorIPN3fmt3v1216basic_format_argINS2_7contextEEEEC1B8ne200100ES6_
FNA:0,0,_ZNSt3__113move_iteratorIPN3fmt3v1216basic_format_argINS2_7contextEEEEC2B8ne200100ES6_
FNA:0,0,_ZNSt3__113move_iteratorIPPN7testing9TestSuiteEEC1B8ne200100ES4_
FNA:0,0,_ZNSt3__113move_iteratorIPPN7testing9TestSuiteEEC2B8ne200100ES4_
FNA:0,0,_ZNSt3__113move_iteratorIPPcEC1B8ne200100ES2_
FNA:0,0,_ZNSt3__113move_iteratorIPPcEC2B8ne200100ES2_
FNA:0,0,_ZNSt3__113move_iteratorIPPiEC1B8ne200100ES2_
FNA:0,0,_ZNSt3__113move_iteratorIPPiEC2B8ne200100ES2_
FNL:1,114
FNA:1,0,_ZNSt3__113move_iteratorIPN3fmt3v1216basic_format_argINS2_7contextEEEEppB8ne200100Ev
FNA:1,0,_ZNSt3__113move_iteratorIPPN7testing9TestSuiteEEppB8ne200100Ev
FNA:1,0,_ZNSt3__113move_iteratorIPPcEppB8ne200100Ev
FNA:1,0,_ZNSt3__113move_iteratorIPPiEppB8ne200100Ev
FNL:2,172
FNA:2,0,_ZNKSt3__113move_iteratorIPN3fmt3v1216basic_format_argINS2_7contextEEEE4baseB8ne200100Ev
FNA:2,0,_ZNKSt3__113move_iteratorIPPN7testing9TestSuiteEE4baseB8ne200100Ev
FNA:2,0,_ZNKSt3__113move_iteratorIPPcE4baseB8ne200100Ev
FNA:2,0,_ZNKSt3__113move_iteratorIPPiE4baseB8ne200100Ev
FNL:3,174
FNA:3,0,_ZNKSt3__113move_iteratorIPN3fmt3v1216basic_format_argINS2_7contextEEEEdeB8ne200100Ev
FNA:3,0,_ZNKSt3__113move_iteratorIPPN7testing9TestSuiteEEdeB8ne200100Ev
FNA:3,0,_ZNKSt3__113move_iteratorIPPcEdeB8ne200100Ev
FNA:3,0,_ZNKSt3__113move_iteratorIPPiEdeB8ne200100Ev
FNL:4,303
FNA:4,0,_ZNSt3__1miB8ne200100IPN3fmt3v1216basic_format_argINS2_7contextEEES6_EEDTmicldtfp_4baseEcldtfp0_4baseEERKNS_13move_iteratorIT_EERKNS8_IT0_EE
FNA:4,0,_ZNSt3__1miB8ne200100IPPN7testing9TestSuiteES4_EEDTmicldtfp_4baseEcldtfp0_4baseEERKNS_13move_iteratorIT_EERKNS6_IT0_EE
FNA:4,0,_ZNSt3__1miB8ne200100IPPcS2_EEDTmicldtfp_4baseEcldtfp0_4baseEERKNS_13move_iteratorIT_EERKNS4_IT0_EE
FNA:4,0,_ZNSt3__1miB8ne200100IPPiS2_EEDTmicldtfp_4baseEcldtfp0_4baseEERKNS_13move_iteratorIT_EERKNS4_IT0_EE
FNF:5
FNH:0
DA:112,0
DA:114,0
DA:115,0
DA:116,0
DA:172,0
DA:174,0
DA:175,0
DA:303,0
DA:304,0
LF:9
LH:0
end_of_record
TN:
SF:/Applications/Xcode.app/Contents/Developer/Platforms/MacOSX.platform/Developer/SDKs/MacOSX.sdk/usr/include/c++/v1/__iterator/next.h
FNL:0,29
FNA:0,0,_ZNSt3__14nextB8ne200100INS_21__tree_const_iteratorINS_12__value_typeINS_10error_codeEiEEPNS_11__tree_nodeIS4_PvEElEELi0EEET_SA_NS_15iterator_traitsISA_E15difference_typeE
FNA:0,0,_ZNSt3__14nextB8ne200100INS_21__tree_const_iteratorINS_12__value_typeINS_12basic_stringIcNS_11char_traitsIcEENS_9allocatorIcEEEEiEEPNS_11__tree_nodeIS9_PvEElEELi0EEET_SF_NS_15iterator_traitsISF_E15difference_typeE
FNA:0,0,_ZNSt3__14nextB8ne200100INS_21__tree_const_iteratorINS_12__value_typeINS_12basic_stringIwNS_11char_traitsIwEENS_9allocatorIwEEEEiEEPNS_11__tree_nodeIS9_PvEElEELi0EEET_SF_NS_15iterator_traitsISF_E15difference_typeE
FNA:0,0,_ZNSt3__14nextB8ne200100INS_21__tree_const_iteratorINS_12__value_typeIi14test_map_valueEEPNS_11__tree_nodeIS4_PvEElEELi0EEET_SA_NS_15iterator_traitsISA_E15difference_typeE
FNA:0,0,_ZNSt3__14nextB8ne200100INS_21__tree_const_iteratorINS_12basic_stringIcNS_11char_traitsIcEENS_9allocatorIcEEEEPNS_11__tree_nodeIS7_PvEElEELi0EEET_SD_NS_15iterator_traitsISD_E15difference_typeE
FNF:1
FNH:0
DA:29,0
DA:35,0
DA:36,0
LF:3
LH:0
end_of_record
TN:
SF:/Applications/Xcode.app/Contents/Developer/Platforms/MacOSX.platform/Developer/SDKs/MacOSX.sdk/usr/include/c++/v1/__iterator/ostream_iterator.h
FNL:0,55
FNA:0,1,_ZNSt3__116ostream_iteratorIccNS_11char_traitsIcEEEC1B8ne200100ERNS_13basic_ostreamIcS2_EE
FNA:0,1,_ZNSt3__116ostream_iteratorIccNS_11char_traitsIcEEEC2B8ne200100ERNS_13basic_ostreamIcS2_EE
FNL:1,61
FNA:1,2,_ZNSt3__116ostream_iteratorIccNS_11char_traitsIcEEEaSB8ne200100ERKc
FNL:2,68
FNA:2,2,_ZNSt3__116ostream_iteratorIccNS_11char_traitsIcEEEdeB8ne200100Ev
FNL:3,70
FNA:3,2,_ZNSt3__116ostream_iteratorIccNS_11char_traitsIcEEEppB8ne200100Ei
FNF:4
FNH:4
DA:55,2
DA:56,1
DA:57,2
DA:61,2
DA:62,2
DA:63,2
DA:64,0
DA:65,2
DA:68,2
DA:70,2
LF:10
LH:9
end_of_record
TN:
SF:/Applications/Xcode.app/Contents/Developer/Platforms/MacOSX.platform/Developer/SDKs/MacOSX.sdk/usr/include/c++/v1/__iterator/ostreambuf_iterator.h
FNL:0,56
FNA:0,29496,_ZNSt3__119ostreambuf_iteratorIcNS_11char_traitsIcEEEC1B8ne200100ERNS_13basic_ostreamIcS2_EE
FNA:0,29496,_ZNSt3__119ostreambuf_iteratorIcNS_11char_traitsIcEEEC2B8ne200100ERNS_13basic_ostreamIcS2_EE
FNA:0,3,_ZNSt3__119ostreambuf_iteratorIwNS_11char_traitsIwEEEC1B8ne200100ERNS_13basic_ostreamIwS2_EE
FNA:0,3,_ZNSt3__119ostreambuf_iteratorIwNS_11char_traitsIwEEEC2B8ne200100ERNS_13basic_ostreamIwS2_EE
FNL:1,58
FNA:1,9,_ZNSt3__119ostreambuf_iteratorIcNS_11char_traitsIcEEEaSB8ne200100Ec
FNL:2,63
FNA:2,9,_ZNSt3__119ostreambuf_iteratorIcNS_11char_traitsIcEEEdeB8ne200100Ev
FNL:3,65
FNA:3,9,_ZNSt3__119ostreambuf_iteratorIcNS_11char_traitsIcEEEppB8ne200100Ei
FNL:4,66
FNA:4,9061,_ZNKSt3__119ostreambuf_iteratorIcNS_11char_traitsIcEEE6failedB8ne200100Ev
FNA:4,3,_ZNKSt3__119ostreambuf_iteratorIwNS_11char_traitsIwEEE6failedB8ne200100Ev
FNF:5
FNH:5
DA:56,58998
DA:58,9
DA:59,9
DA:60,0
DA:61,9
DA:63,9
DA:65,9
DA:66,9064
LF:8
LH:7
end_of_record
TN:
SF:/Applications/Xcode.app/Contents/Developer/Platforms/MacOSX.platform/Developer/SDKs/MacOSX.sdk/usr/include/c++/v1/__iterator/prev.h
FNL:0,33
FNA:0,133,_ZNSt3__14prevB8ne200100INS_11__wrap_iterIPcEELi0EEET_S4_NS_15iterator_traitsIS4_E15difference_typeE
FNL:1,46
FNA:1,133,_ZNSt3__14prevB8ne200100INS_11__wrap_iterIPcEELi0EEET_S4_
FNF:2
FNH:2
DA:33,133
DA:38,133
DA:39,133
DA:46,133
DA:49,133
LF:5
LH:5
end_of_record
TN:
SF:/Applications/Xcode.app/Contents/Developer/Platforms/MacOSX.platform/Developer/SDKs/MacOSX.sdk/usr/include/c++/v1/__iterator/reverse_iterator.h
FNL:0,129
FNA:0,160,_ZNKSt3__116reverse_iteratorINS_11__wrap_iterIPKNS_10shared_ptrIN7testing8internal15ExpectationBaseEEEEEE4baseB8ne200100Ev
FNA:0,122,_ZNKSt3__116reverse_iteratorINS_11__wrap_iterIPKPKvEEE4baseB8ne200100Ev
FNA:0,38,_ZNKSt3__116reverse_iteratorINS_11__wrap_iterIPPN7testing11EnvironmentEEEE4baseB8ne200100Ev
FNA:0,3098,_ZNKSt3__116reverse_iteratorINS_11__wrap_iterIPPN7testing9TestSuiteEEEE4baseB8ne200100Ev
FNA:0,0,_ZNKSt3__116reverse_iteratorIP17basic_test_stringIcEE4baseB8ne200100Ev
FNA:0,0,_ZNKSt3__116reverse_iteratorIP2tmE4baseB8ne200100Ev
FNA:0,0,_ZNKSt3__116reverse_iteratorIP9test_enumE4baseB8ne200100Ev
FNA:0,0,_ZNKSt3__116reverse_iteratorIPN7testing12TestPropertyEE4baseB8ne200100Ev
FNA:0,0,_ZNKSt3__116reverse_iteratorIPN7testing14TestPartResultEE4baseB8ne200100Ev
FNA:0,0,_ZNKSt3__116reverse_iteratorIPN7testing8internal9TraceInfoEE4baseB8ne200100Ev
FNA:0,0,_ZNKSt3__116reverse_iteratorIPNS_12basic_stringIcNS_11char_traitsIcEENS_9allocatorIcEEEEE4baseB8ne200100Ev
FNA:0,0,_ZNKSt3__116reverse_iteratorIPNS_12basic_stringIwNS_11char_traitsIwEENS_9allocatorIwEEEEE4baseB8ne200100Ev
FNA:0,0,_ZNKSt3__116reverse_iteratorIPNS_6vectorIcNS_9allocatorIcEEEEE4baseB8ne200100Ev
FNA:0,0,_ZNKSt3__116reverse_iteratorIPNS_6vectorIiNS_9allocatorIiEEEEE4baseB8ne200100Ev
FNA:0,0,_ZNKSt3__116reverse_iteratorIPcE4baseB8ne200100Ev
FNA:0,0,_ZNKSt3__116reverse_iteratorIPiE4baseB8ne200100Ev
FNL:1,130
FNA:1,80,_ZNKSt3__116reverse_iteratorINS_11__wrap_iterIPKNS_10shared_ptrIN7testing8internal15ExpectationBaseEEEEEEdeB8ne200100Ev
FNA:1,55,_ZNKSt3__116reverse_iteratorINS_11__wrap_iterIPKPKvEEEdeB8ne200100Ev
FNA:1,0,_ZNKSt3__116reverse_iteratorINS_11__wrap_iterIPKcEEEdeB8ne200100Ev
FNA:1,0,_ZNKSt3__116reverse_iteratorINS_11__wrap_iterIPPN7testing11EnvironmentEEEEdeB8ne200100Ev
FNA:1,1429,_ZNKSt3__116reverse_iteratorINS_11__wrap_iterIPPN7testing9TestSuiteEEEEdeB8ne200100Ev
FNA:1,0,_ZNKSt3__116reverse_iteratorIP17basic_test_stringIcEEdeB8ne200100Ev
FNA:1,0,_ZNKSt3__116reverse_iteratorIP2tmEdeB8ne200100Ev
FNA:1,0,_ZNKSt3__116reverse_iteratorIP9test_enumEdeB8ne200100Ev
FNA:1,0,_ZNKSt3__116reverse_iteratorIPN7testing12TestPropertyEEdeB8ne200100Ev
FNA:1,0,_ZNKSt3__116reverse_iteratorIPN7testing14TestPartResultEEdeB8ne200100Ev
FNA:1,0,_ZNKSt3__116reverse_iteratorIPN7testing8internal9TraceInfoEEdeB8ne200100Ev
FNA:1,0,_ZNKSt3__116reverse_iteratorIPNS_12basic_stringIcNS_11char_traitsIcEENS_9allocatorIcEEEEEdeB8ne200100Ev
FNA:1,0,_ZNKSt3__116reverse_iteratorIPNS_12basic_stringIwNS_11char_traitsIwEENS_9allocatorIwEEEEEdeB8ne200100Ev
FNA:1,0,_ZNKSt3__116reverse_iteratorIPNS_6vectorIcNS_9allocatorIcEEEEEdeB8ne200100Ev
FNA:1,0,_ZNKSt3__116reverse_iteratorIPNS_6vectorIiNS_9allocatorIiEEEEEdeB8ne200100Ev
FNA:1,0,_ZNKSt3__116reverse_iteratorIPcEdeB8ne200100Ev
FNA:1,0,_ZNKSt3__116reverse_iteratorIPiEdeB8ne200100Ev
FNL:2,148
FNA:2,80,_ZNKSt3__116reverse_iteratorINS_11__wrap_iterIPKNS_10shared_ptrIN7testing8internal15ExpectationBaseEEEEEEptB8ne200100Ev
FNA:2,0,_ZNKSt3__116reverse_iteratorIP17basic_test_stringIcEEptB8ne200100Ev
FNA:2,0,_ZNKSt3__116reverse_iteratorIP2tmEptB8ne200100Ev
FNA:2,0,_ZNKSt3__116reverse_iteratorIP9test_enumEptB8ne200100Ev
FNA:2,0,_ZNKSt3__116reverse_iteratorIPN7testing12TestPropertyEEptB8ne200100Ev
FNA:2,0,_ZNKSt3__116reverse_iteratorIPN7testing14TestPartResultEEptB8ne200100Ev
FNA:2,0,_ZNKSt3__116reverse_iteratorIPN7testing8internal9TraceInfoEEptB8ne200100Ev
FNA:2,0,_ZNKSt3__116reverse_iteratorIPNS_12basic_stringIcNS_11char_traitsIcEENS_9allocatorIcEEEEEptB8ne200100Ev
FNA:2,0,_ZNKSt3__116reverse_iteratorIPNS_12basic_stringIwNS_11char_traitsIwEENS_9allocatorIwEEEEEptB8ne200100Ev
FNA:2,0,_ZNKSt3__116reverse_iteratorIPNS_6vectorIcNS_9allocatorIcEEEEEptB8ne200100Ev
FNA:2,0,_ZNKSt3__116reverse_iteratorIPNS_6vectorIiNS_9allocatorIiEEEEEptB8ne200100Ev
FNA:2,0,_ZNKSt3__116reverse_iteratorIPcEptB8ne200100Ev
FNA:2,0,_ZNKSt3__116reverse_iteratorIPiEptB8ne200100Ev
FNL:3,151
FNA:3,4,_ZNSt3__116reverse_iteratorINS_11__wrap_iterIPKNS_10shared_ptrIN7testing8internal15ExpectationBaseEEEEEEppB8ne200100Ev
FNA:3,0,_ZNSt3__116reverse_iteratorINS_11__wrap_iterIPKPKvEEEppB8ne200100Ev
FNA:3,0,_ZNSt3__116reverse_iteratorINS_11__wrap_iterIPPN7testing11EnvironmentEEEEppB8ne200100Ev
FNA:3,485,_ZNSt3__116reverse_iteratorINS_11__wrap_iterIPPN7testing9TestSuiteEEEEppB8ne200100Ev
FNA:3,0,_ZNSt3__116reverse_iteratorIP17basic_test_stringIcEEppB8ne200100Ev
FNA:3,0,_ZNSt3__116reverse_iteratorIP2tmEppB8ne200100Ev
FNA:3,0,_ZNSt3__116reverse_iteratorIP9test_enumEppB8ne200100Ev
FNA:3,0,_ZNSt3__116reverse_iteratorIPN7testing12TestPropertyEEppB8ne200100Ev
FNA:3,0,_ZNSt3__116reverse_iteratorIPN7testing14TestPartResultEEppB8ne200100Ev
FNA:3,0,_ZNSt3__116reverse_iteratorIPN7testing8internal9TraceInfoEEppB8ne200100Ev
FNA:3,0,_ZNSt3__116reverse_iteratorIPNS_12basic_stringIcNS_11char_traitsIcEENS_9allocatorIcEEEEEppB8ne200100Ev
FNA:3,0,_ZNSt3__116reverse_iteratorIPNS_12basic_stringIwNS_11char_traitsIwEENS_9allocatorIwEEEEEppB8ne200100Ev
FNA:3,0,_ZNSt3__116reverse_iteratorIPNS_6vectorIcNS_9allocatorIcEEEEEppB8ne200100Ev
FNA:3,0,_ZNSt3__116reverse_iteratorIPNS_6vectorIiNS_9allocatorIiEEEEEppB8ne200100Ev
FNA:3,0,_ZNSt3__116reverse_iteratorIPcEppB8ne200100Ev
FNA:3,0,_ZNSt3__116reverse_iteratorIPiEppB8ne200100Ev
FNL:4,232
FNA:4,80,_ZNSt3__1neB8ne200100INS_11__wrap_iterIPKNS_10shared_ptrIN7testing8internal15ExpectationBaseEEEEES9_EEbRKNS_16reverse_iteratorIT_EERKNSA_IT0_EE
FNA:4,61,_ZNSt3__1neB8ne200100INS_11__wrap_iterIPKPKvEES6_EEbRKNS_16reverse_iteratorIT_EERKNS7_IT0_EE
FNA:4,19,_ZNSt3__1neB8ne200100INS_11__wrap_iterIPPN7testing11EnvironmentEEES6_EEbRKNS_16reverse_iteratorIT_EERKNS7_IT0_EE
FNA:4,1549,_ZNSt3__1neB8ne200100INS_11__wrap_iterIPPN7testing9TestSuiteEEES6_EEbRKNS_16reverse_iteratorIT_EERKNS7_IT0_EE
FNA:4,0,_ZNSt3__1neB8ne200100IP17basic_test_stringIcES3_EEbRKNS_16reverse_iteratorIT_EERKNS4_IT0_EE
FNA:4,0,_ZNSt3__1neB8ne200100IP2tmS2_EEbRKNS_16reverse_iteratorIT_EERKNS3_IT0_EE
FNA:4,0,_ZNSt3__1neB8ne200100IP9test_enumS2_EEbRKNS_16reverse_iteratorIT_EERKNS3_IT0_EE
FNA:4,0,_ZNSt3__1neB8ne200100IPN7testing12TestPropertyES3_EEbRKNS_16reverse_iteratorIT_EERKNS4_IT0_EE
FNA:4,0,_ZNSt3__1neB8ne200100IPN7testing14TestPartResultES3_EEbRKNS_16reverse_iteratorIT_EERKNS4_IT0_EE
FNA:4,0,_ZNSt3__1neB8ne200100IPN7testing8internal9TraceInfoES4_EEbRKNS_16reverse_iteratorIT_EERKNS5_IT0_EE
FNA:4,0,_ZNSt3__1neB8ne200100IPNS_12basic_stringIcNS_11char_traitsIcEENS_9allocatorIcEEEES7_EEbRKNS_16reverse_iteratorIT_EERKNS8_IT0_EE
FNA:4,0,_ZNSt3__1neB8ne200100IPNS_12basic_stringIwNS_11char_traitsIwEENS_9allocatorIwEEEES7_EEbRKNS_16reverse_iteratorIT_EERKNS8_IT0_EE
FNA:4,0,_ZNSt3__1neB8ne200100IPNS_6vectorIcNS_9allocatorIcEEEES5_EEbRKNS_16reverse_iteratorIT_EERKNS6_IT0_EE
FNA:4,0,_ZNSt3__1neB8ne200100IPNS_6vectorIiNS_9allocatorIiEEEES5_EEbRKNS_16reverse_iteratorIT_EERKNS6_IT0_EE
FNA:4,0,_ZNSt3__1neB8ne200100IPcS1_EEbRKNS_16reverse_iteratorIT_EERKNS2_IT0_EE
FNA:4,0,_ZNSt3__1neB8ne200100IPiS1_EEbRKNS_16reverse_iteratorIT_EERKNS2_IT0_EE
FNL:5,97
FNA:5,156,_ZNSt3__116reverse_iteratorINS_11__wrap_iterIPKNS_10shared_ptrIN7testing8internal15ExpectationBaseEEEEEEC1B8ne200100ES9_
FNA:5,156,_ZNSt3__116reverse_iteratorINS_11__wrap_iterIPKNS_10shared_ptrIN7testing8internal15ExpectationBaseEEEEEEC2B8ne200100ES9_
FNA:5,122,_ZNSt3__116reverse_iteratorINS_11__wrap_iterIPKPKvEEEC1B8ne200100ES6_
FNA:5,122,_ZNSt3__116reverse_iteratorINS_11__wrap_iterIPKPKvEEEC2B8ne200100ES6_
FNA:5,0,_ZNSt3__116reverse_iteratorINS_11__wrap_iterIPKcEEEC1B8ne200100ES4_
FNA:5,0,_ZNSt3__116reverse_iteratorINS_11__wrap_iterIPKcEEEC2B8ne200100ES4_
FNA:5,38,_ZNSt3__116reverse_iteratorINS_11__wrap_iterIPPN7testing11EnvironmentEEEEC1B8ne200100ES6_
FNA:5,38,_ZNSt3__116reverse_iteratorINS_11__wrap_iterIPPN7testing11EnvironmentEEEEC2B8ne200100ES6_
FNA:5,1596,_ZNSt3__116reverse_iteratorINS_11__wrap_iterIPPN7testing9TestSuiteEEEEC1B8ne200100ES6_
FNA:5,1596,_ZNSt3__116reverse_iteratorINS_11__wrap_iterIPPN7testing9TestSuiteEEEEC2B8ne200100ES6_
FNA:5,0,_ZNSt3__116reverse_iteratorIP17basic_test_stringIcEEC1B8ne200100ES3_
FNA:5,0,_ZNSt3__116reverse_iteratorIP17basic_test_stringIcEEC2B8ne200100ES3_
FNA:5,0,_ZNSt3__116reverse_iteratorIP2tmEC1B8ne200100ES2_
FNA:5,0,_ZNSt3__116reverse_iteratorIP2tmEC2B8ne200100ES2_
FNA:5,0,_ZNSt3__116reverse_iteratorIP9test_enumEC1B8ne200100ES2_
FNA:5,0,_ZNSt3__116reverse_iteratorIP9test_enumEC2B8ne200100ES2_
FNA:5,0,_ZNSt3__116reverse_iteratorIPN7testing12TestPropertyEEC1B8ne200100ES3_
FNA:5,0,_ZNSt3__116reverse_iteratorIPN7testing12TestPropertyEEC2B8ne200100ES3_
FNA:5,0,_ZNSt3__116reverse_iteratorIPN7testing14TestPartResultEEC1B8ne200100ES3_
FNA:5,0,_ZNSt3__116reverse_iteratorIPN7testing14TestPartResultEEC2B8ne200100ES3_
FNA:5,0,_ZNSt3__116reverse_iteratorIPN7testing8internal9TraceInfoEEC1B8ne200100ES4_
FNA:5,0,_ZNSt3__116reverse_iteratorIPN7testing8internal9TraceInfoEEC2B8ne200100ES4_
FNA:5,0,_ZNSt3__116reverse_iteratorIPNS_12basic_stringIcNS_11char_traitsIcEENS_9allocatorIcEEEEEC1B8ne200100ES7_
FNA:5,0,_ZNSt3__116reverse_iteratorIPNS_12basic_stringIcNS_11char_traitsIcEENS_9allocatorIcEEEEEC2B8ne200100ES7_
FNA:5,0,_ZNSt3__116reverse_iteratorIPNS_12basic_stringIwNS_11char_traitsIwEENS_9allocatorIwEEEEEC1B8ne200100ES7_
FNA:5,0,_ZNSt3__116reverse_iteratorIPNS_12basic_stringIwNS_11char_traitsIwEENS_9allocatorIwEEEEEC2B8ne200100ES7_
FNA:5,0,_ZNSt3__116reverse_iteratorIPNS_6vectorIcNS_9allocatorIcEEEEEC1B8ne200100ES5_
FNA:5,0,_ZNSt3__116reverse_iteratorIPNS_6vectorIcNS_9allocatorIcEEEEEC2B8ne200100ES5_
FNA:5,0,_ZNSt3__116reverse_iteratorIPNS_6vectorIiNS_9allocatorIiEEEEEC1B8ne200100ES5_
FNA:5,0,_ZNSt3__116reverse_iteratorIPNS_6vectorIiNS_9allocatorIiEEEEEC2B8ne200100ES5_
FNA:5,0,_ZNSt3__116reverse_iteratorIPcEC1B8ne200100ES1_
FNA:5,0,_ZNSt3__116reverse_iteratorIPcEC2B8ne200100ES1_
FNA:5,0,_ZNSt3__116reverse_iteratorIPiEC1B8ne200100ES1_
FNA:5,0,_ZNSt3__116reverse_iteratorIPiEC2B8ne200100ES1_
FNF:6
FNH:6
DA:97,3824
DA:129,3418
DA:130,1564
DA:131,1564
DA:132,3128
DA:133,1564
DA:148,80
DA:151,489
DA:152,489
DA:153,489
DA:232,1709
DA:239,1709
LF:12
LH:12
end_of_record
TN:
SF:/Applications/Xcode.app/Contents/Developer/Platforms/MacOSX.platform/Developer/SDKs/MacOSX.sdk/usr/include/c++/v1/__iterator/wrap_iter.h
FNL:0,103
FNA:0,6,_ZNKSt3__111__wrap_iterIP17basic_test_stringIcEE4baseB8ne200100Ev
FNA:0,16,_ZNKSt3__111__wrap_iterIP2tmE4baseB8ne200100Ev
FNA:0,8,_ZNKSt3__111__wrap_iterIP9test_enumE4baseB8ne200100Ev
FNA:0,6,_ZNKSt3__111__wrap_iterIPK17basic_test_stringIcEE4baseB8ne200100Ev
FNA:0,4,_ZNKSt3__111__wrap_iterIPK9test_enumE4baseB8ne200100Ev
FNA:0,6,_ZNKSt3__111__wrap_iterIPKN3fmt3v1216basic_format_argINS2_7contextEEEE4baseB8ne200100Ev
FNA:0,7524,_ZNKSt3__111__wrap_iterIPKN7testing14TestPartResultEE4baseB8ne200100Ev
FNA:0,0,_ZNKSt3__111__wrap_iterIPKN7testing8internal13edit_distance8EditTypeEE4baseB8ne200100Ev
FNA:0,358,_ZNKSt3__111__wrap_iterIPKNS_10shared_ptrIN7testing8internal15ExpectationBaseEEEE4baseB8ne200100Ev
FNA:0,80,_ZNKSt3__111__wrap_iterIPKNS_12basic_stringIcNS_11char_traitsIcEENS_9allocatorIcEEEEE4baseB8ne200100Ev
FNA:0,14,_ZNKSt3__111__wrap_iterIPKNS_12basic_stringIwNS_11char_traitsIwEENS_9allocatorIwEEEEE4baseB8ne200100Ev
FNA:0,0,_ZNKSt3__111__wrap_iterIPKNS_4pairImmEEE4baseB8ne200100Ev
FNA:0,34,_ZNKSt3__111__wrap_iterIPKNS_6vectorIcNS_9allocatorIcEEEEE4baseB8ne200100Ev
FNA:0,30,_ZNKSt3__111__wrap_iterIPKNS_6vectorIiNS_9allocatorIiEEEEE4baseB8ne200100Ev
FNA:0,397,_ZNKSt3__111__wrap_iterIPKPKvE4baseB8ne200100Ev
FNA:0,40,_ZNKSt3__111__wrap_iterIPKPN7testing11EnvironmentEE4baseB8ne200100Ev
FNA:0,4,_ZNKSt3__111__wrap_iterIPKPN7testing17TestEventListenerEE4baseB8ne200100Ev
FNA:0,11840,_ZNKSt3__111__wrap_iterIPKPN7testing8TestInfoEE4baseB8ne200100Ev
FNA:0,802,_ZNKSt3__111__wrap_iterIPKPN7testing9TestSuiteEE4baseB8ne200100Ev
FNA:0,0,_ZNKSt3__111__wrap_iterIPKPcE4baseB8ne200100Ev
FNA:0,599,_ZNKSt3__111__wrap_iterIPKcE4baseB8ne200100Ev
FNA:0,226,_ZNKSt3__111__wrap_iterIPKiE4baseB8ne200100Ev
FNA:0,6,_ZNKSt3__111__wrap_iterIPN3fmt3v1216basic_format_argINS2_7contextEEEE4baseB8ne200100Ev
FNA:0,0,_ZNKSt3__111__wrap_iterIPN7testing12TestPropertyEE4baseB8ne200100Ev
FNA:0,0,_ZNKSt3__111__wrap_iterIPN7testing8internal13edit_distance8EditTypeEE4baseB8ne200100Ev
FNA:0,198,_ZNKSt3__111__wrap_iterIPNS_10shared_ptrIN7testing8internal15ExpectationBaseEEEE4baseB8ne200100Ev
FNA:0,0,_ZNKSt3__111__wrap_iterIPNS_12basic_stringIcNS_11char_traitsIcEENS_9allocatorIcEEEEE4baseB8ne200100Ev
FNA:0,6,_ZNKSt3__111__wrap_iterIPNS_6vectorIiNS_9allocatorIiEEEEE4baseB8ne200100Ev
FNA:0,275,_ZNKSt3__111__wrap_iterIPPKvE4baseB8ne200100Ev
FNA:0,38,_ZNKSt3__111__wrap_iterIPPN7testing11EnvironmentEE4baseB8ne200100Ev
FNA:0,42,_ZNKSt3__111__wrap_iterIPPN7testing8internal30ParameterizedTestSuiteInfoBaseEE4baseB8ne200100Ev
FNA:0,3258,_ZNKSt3__111__wrap_iterIPPN7testing9TestSuiteEE4baseB8ne200100Ev
FNA:0,0,_ZNKSt3__111__wrap_iterIPPcE4baseB8ne200100Ev
FNA:0,2601,_ZNKSt3__111__wrap_iterIPcE4baseB8ne200100Ev
FNA:0,12,_ZNKSt3__111__wrap_iterIPfE4baseB8ne200100Ev
FNA:0,56,_ZNKSt3__111__wrap_iterIPiE4baseB8ne200100Ev
FNL:1,106
FNA:1,2,_ZNSt3__111__wrap_iterIP17basic_test_stringIcEEC1B8ne200100ES3_
FNA:1,2,_ZNSt3__111__wrap_iterIP17basic_test_stringIcEEC2B8ne200100ES3_
FNA:1,2,_ZNSt3__111__wrap_iterIP2tmEC1B8ne200100ES2_
FNA:1,2,_ZNSt3__111__wrap_iterIP2tmEC2B8ne200100ES2_
FNA:1,2,_ZNSt3__111__wrap_iterIP9test_enumEC1B8ne200100ES2_
FNA:1,2,_ZNSt3__111__wrap_iterIP9test_enumEC2B8ne200100ES2_
FNA:1,2,_ZNSt3__111__wrap_iterIPK17basic_test_stringIcEEC1B8ne200100ES4_
FNA:1,2,_ZNSt3__111__wrap_iterIPK17basic_test_stringIcEEC2B8ne200100ES4_
FNA:1,2,_ZNSt3__111__wrap_iterIPK9test_enumEC1B8ne200100ES3_
FNA:1,2,_ZNSt3__111__wrap_iterIPK9test_enumEC2B8ne200100ES3_
FNA:1,7524,_ZNSt3__111__wrap_iterIPKN7testing14TestPartResultEEC1B8ne200100ES4_
FNA:1,7524,_ZNSt3__111__wrap_iterIPKN7testing14TestPartResultEEC2B8ne200100ES4_
FNA:1,0,_ZNSt3__111__wrap_iterIPKN7testing8internal13edit_distance8EditTypeEEC1B8ne200100ES6_
FNA:1,0,_ZNSt3__111__wrap_iterIPKN7testing8internal13edit_distance8EditTypeEEC2B8ne200100ES6_
FNA:1,156,_ZNSt3__111__wrap_iterIPKNS_10shared_ptrIN7testing8internal15ExpectationBaseEEEEC1B8ne200100ES7_
FNA:1,156,_ZNSt3__111__wrap_iterIPKNS_10shared_ptrIN7testing8internal15ExpectationBaseEEEEC2B8ne200100ES7_
FNA:1,42,_ZNSt3__111__wrap_iterIPKNS_12basic_stringIcNS_11char_traitsIcEENS_9allocatorIcEEEEEC1B8ne200100ES8_
FNA:1,42,_ZNSt3__111__wrap_iterIPKNS_12basic_stringIcNS_11char_traitsIcEENS_9allocatorIcEEEEEC2B8ne200100ES8_
FNA:1,8,_ZNSt3__111__wrap_iterIPKNS_12basic_stringIwNS_11char_traitsIwEENS_9allocatorIwEEEEEC1B8ne200100ES8_
FNA:1,8,_ZNSt3__111__wrap_iterIPKNS_12basic_stringIwNS_11char_traitsIwEENS_9allocatorIwEEEEEC2B8ne200100ES8_
FNA:1,0,_ZNSt3__111__wrap_iterIPKNS_4pairImmEEEC1B8ne200100ES4_
FNA:1,0,_ZNSt3__111__wrap_iterIPKNS_4pairImmEEEC2B8ne200100ES4_
FNA:1,12,_ZNSt3__111__wrap_iterIPKNS_6vectorIcNS_9allocatorIcEEEEEC1B8ne200100ES6_
FNA:1,12,_ZNSt3__111__wrap_iterIPKNS_6vectorIcNS_9allocatorIcEEEEEC2B8ne200100ES6_
FNA:1,8,_ZNSt3__111__wrap_iterIPKNS_6vectorIiNS_9allocatorIiEEEEEC1B8ne200100ES6_
FNA:1,8,_ZNSt3__111__wrap_iterIPKNS_6vectorIiNS_9allocatorIiEEEEEC2B8ne200100ES6_
FNA:1,122,_ZNSt3__111__wrap_iterIPKPKvEC1B8ne200100ES4_
FNA:1,122,_ZNSt3__111__wrap_iterIPKPKvEC2B8ne200100ES4_
FNA:1,40,_ZNSt3__111__wrap_iterIPKPN7testing11EnvironmentEEC1B8ne200100ES5_
FNA:1,40,_ZNSt3__111__wrap_iterIPKPN7testing11EnvironmentEEC2B8ne200100ES5_
FNA:1,2,_ZNSt3__111__wrap_iterIPKPN7testing17TestEventListenerEEC1B8ne200100ES5_
FNA:1,2,_ZNSt3__111__wrap_iterIPKPN7testing17TestEventListenerEEC2B8ne200100ES5_
FNA:1,5988,_ZNSt3__111__wrap_iterIPKPN7testing8TestInfoEEC1B8ne200100ES5_
FNA:1,5988,_ZNSt3__111__wrap_iterIPKPN7testing8TestInfoEEC2B8ne200100ES5_
FNA:1,442,_ZNSt3__111__wrap_iterIPKPN7testing9TestSuiteEEC1B8ne200100ES5_
FNA:1,442,_ZNSt3__111__wrap_iterIPKPN7testing9TestSuiteEEC2B8ne200100ES5_
FNA:1,521,_ZNSt3__111__wrap_iterIPKcEC1B8ne200100ES2_
FNA:1,521,_ZNSt3__111__wrap_iterIPKcEC2B8ne200100ES2_
FNA:1,48,_ZNSt3__111__wrap_iterIPKiEC1B8ne200100ES2_
FNA:1,48,_ZNSt3__111__wrap_iterIPKiEC2B8ne200100ES2_
FNA:1,18,_ZNSt3__111__wrap_iterIPN3fmt3v1216basic_format_argINS2_7contextEEEEC1B8ne200100ES6_
FNA:1,18,_ZNSt3__111__wrap_iterIPN3fmt3v1216basic_format_argINS2_7contextEEEEC2B8ne200100ES6_
FNA:1,0,_ZNSt3__111__wrap_iterIPN7testing12TestPropertyEEC1B8ne200100ES3_
FNA:1,0,_ZNSt3__111__wrap_iterIPN7testing12TestPropertyEEC2B8ne200100ES3_
FNA:1,0,_ZNSt3__111__wrap_iterIPN7testing8internal13edit_distance8EditTypeEEC1B8ne200100ES5_
FNA:1,0,_ZNSt3__111__wrap_iterIPN7testing8internal13edit_distance8EditTypeEEC2B8ne200100ES5_
FNA:1,320,_ZNSt3__111__wrap_iterIPNS_10shared_ptrIN7testing8internal15ExpectationBaseEEEEC1B8ne200100ES6_
FNA:1,320,_ZNSt3__111__wrap_iterIPNS_10shared_ptrIN7testing8internal15ExpectationBaseEEEEC2B8ne200100ES6_
FNA:1,0,_ZNSt3__111__wrap_iterIPNS_12basic_stringIcNS_11char_traitsIcEENS_9allocatorIcEEEEEC1B8ne200100ES7_
FNA:1,0,_ZNSt3__111__wrap_iterIPNS_12basic_stringIcNS_11char_traitsIcEENS_9allocatorIcEEEEEC2B8ne200100ES7_
FNA:1,2,_ZNSt3__111__wrap_iterIPNS_6vectorIiNS_9allocatorIiEEEEEC1B8ne200100ES5_
FNA:1,2,_ZNSt3__111__wrap_iterIPNS_6vectorIiNS_9allocatorIiEEEEEC2B8ne200100ES5_
FNA:1,473,_ZNSt3__111__wrap_iterIPPKvEC1B8ne200100ES3_
FNA:1,473,_ZNSt3__111__wrap_iterIPPKvEC2B8ne200100ES3_
FNA:1,38,_ZNSt3__111__wrap_iterIPPN7testing11EnvironmentEEC1B8ne200100ES4_
FNA:1,38,_ZNSt3__111__wrap_iterIPPN7testing11EnvironmentEEC2B8ne200100ES4_
FNA:1,0,_ZNSt3__111__wrap_iterIPPN7testing17TestEventListenerEEC1B8ne200100ES4_
FNA:1,0,_ZNSt3__111__wrap_iterIPPN7testing17TestEventListenerEEC2B8ne200100ES4_
FNA:1,42,_ZNSt3__111__wrap_iterIPPN7testing8internal30ParameterizedTestSuiteInfoBaseEEC1B8ne200100ES5_
FNA:1,42,_ZNSt3__111__wrap_iterIPPN7testing8internal30ParameterizedTestSuiteInfoBaseEEC2B8ne200100ES5_
FNA:1,1636,_ZNSt3__111__wrap_iterIPPN7testing9TestSuiteEEC1B8ne200100ES4_
FNA:1,1636,_ZNSt3__111__wrap_iterIPPN7testing9TestSuiteEEC2B8ne200100ES4_
FNA:1,0,_ZNSt3__111__wrap_iterIPPcEC1B8ne200100ES2_
FNA:1,0,_ZNSt3__111__wrap_iterIPPcEC2B8ne200100ES2_
FNA:1,284,_ZNSt3__111__wrap_iterIPcEC1B8ne200100ES1_
FNA:1,284,_ZNSt3__111__wrap_iterIPcEC2B8ne200100ES1_
FNA:1,4,_ZNSt3__111__wrap_iterIPfEC1B8ne200100ES1_
FNA:1,4,_ZNSt3__111__wrap_iterIPfEC2B8ne200100ES1_
FNA:1,28,_ZNSt3__111__wrap_iterIPiEC1B8ne200100ES1_
FNA:1,28,_ZNSt3__111__wrap_iterIPiEC2B8ne200100ES1_
FNL:2,124
FNA:2,3,_ZNSt3__1eqB8ne200100IP17basic_test_stringIcEEEbRKNS_11__wrap_iterIT_EES8_
FNA:2,8,_ZNSt3__1eqB8ne200100IP2tmEEbRKNS_11__wrap_iterIT_EES7_
FNA:2,4,_ZNSt3__1eqB8ne200100IP9test_enumEEbRKNS_11__wrap_iterIT_EES7_
FNA:2,3,_ZNSt3__1eqB8ne200100IPK17basic_test_stringIcEEEbRKNS_11__wrap_iterIT_EES9_
FNA:2,2,_ZNSt3__1eqB8ne200100IPK9test_enumEEbRKNS_11__wrap_iterIT_EES8_
FNA:2,3762,_ZNSt3__1eqB8ne200100IPKN7testing14TestPartResultEEEbRKNS_11__wrap_iterIT_EES9_
FNA:2,0,_ZNSt3__1eqB8ne200100IPKN7testing8internal13edit_distance8EditTypeEEEbRKNS_11__wrap_iterIT_EESB_
FNA:2,80,_ZNSt3__1eqB8ne200100IPKNS_10shared_ptrIN7testing8internal15ExpectationBaseEEEEEbRKNS_11__wrap_iterIT_EESC_
FNA:2,40,_ZNSt3__1eqB8ne200100IPKNS_12basic_stringIcNS_11char_traitsIcEENS_9allocatorIcEEEEEEbRKNS_11__wrap_iterIT_EESD_
FNA:2,7,_ZNSt3__1eqB8ne200100IPKNS_12basic_stringIwNS_11char_traitsIwEENS_9allocatorIwEEEEEEbRKNS_11__wrap_iterIT_EESD_
FNA:2,0,_ZNSt3__1eqB8ne200100IPKNS_4pairImmEEEEbRKNS_11__wrap_iterIT_EES9_
FNA:2,17,_ZNSt3__1eqB8ne200100IPKNS_6vectorIcNS_9allocatorIcEEEEEEbRKNS_11__wrap_iterIT_EESB_
FNA:2,15,_ZNSt3__1eqB8ne200100IPKNS_6vectorIiNS_9allocatorIiEEEEEEbRKNS_11__wrap_iterIT_EESB_
FNA:2,61,_ZNSt3__1eqB8ne200100IPKPKvEEbRKNS_11__wrap_iterIT_EES9_
FNA:2,20,_ZNSt3__1eqB8ne200100IPKPN7testing11EnvironmentEEEbRKNS_11__wrap_iterIT_EESA_
FNA:2,2,_ZNSt3__1eqB8ne200100IPKPN7testing17TestEventListenerEEEbRKNS_11__wrap_iterIT_EESA_
FNA:2,5920,_ZNSt3__1eqB8ne200100IPKPN7testing8TestInfoEEEbRKNS_11__wrap_iterIT_EESA_
FNA:2,401,_ZNSt3__1eqB8ne200100IPKPN7testing9TestSuiteEEEbRKNS_11__wrap_iterIT_EESA_
FNA:2,264,_ZNSt3__1eqB8ne200100IPKcEEbRKNS_11__wrap_iterIT_EES7_
FNA:2,113,_ZNSt3__1eqB8ne200100IPKiEEbRKNS_11__wrap_iterIT_EES7_
FNA:2,0,_ZNSt3__1eqB8ne200100IPN7testing12TestPropertyEEEbRKNS_11__wrap_iterIT_EES8_
FNA:2,0,_ZNSt3__1eqB8ne200100IPN7testing8internal13edit_distance8EditTypeEEEbRKNS_11__wrap_iterIT_EESA_
FNA:2,3,_ZNSt3__1eqB8ne200100IPNS_6vectorIiNS_9allocatorIiEEEEEEbRKNS_11__wrap_iterIT_EESA_
FNA:2,19,_ZNSt3__1eqB8ne200100IPPN7testing11EnvironmentEEEbRKNS_11__wrap_iterIT_EES9_
FNA:2,21,_ZNSt3__1eqB8ne200100IPPN7testing8internal30ParameterizedTestSuiteInfoBaseEEEbRKNS_11__wrap_iterIT_EESA_
FNA:2,1629,_ZNSt3__1eqB8ne200100IPPN7testing9TestSuiteEEEbRKNS_11__wrap_iterIT_EES9_
FNA:2,0,_ZNSt3__1eqB8ne200100IPPcEEbRKNS_11__wrap_iterIT_EES7_
FNA:2,1291,_ZNSt3__1eqB8ne200100IPcEEbRKNS_11__wrap_iterIT_EES6_
FNA:2,6,_ZNSt3__1eqB8ne200100IPfEEbRKNS_11__wrap_iterIT_EES6_
FNA:2,24,_ZNSt3__1eqB8ne200100IPiEEbRKNS_11__wrap_iterIT_EES6_
FNL:3,130
FNA:3,198,_ZNSt3__1eqB8ne200100IPKNS_10shared_ptrIN7testing8internal15ExpectationBaseEEEPS5_EEbRKNS_11__wrap_iterIT_EERKNS9_IT0_EE
FNA:3,0,_ZNSt3__1eqB8ne200100IPKNS_12basic_stringIcNS_11char_traitsIcEENS_9allocatorIcEEEEPS6_EEbRKNS_11__wrap_iterIT_EERKNSA_IT0_EE
FNA:3,275,_ZNSt3__1eqB8ne200100IPKPKvPS2_EEbRKNS_11__wrap_iterIT_EERKNS6_IT0_EE
FNL:4,136
FNA:4,0,_ZNSt3__1ltB8ne200100IPN7testing8internal13edit_distance8EditTypeEEEbRKNS_11__wrap_iterIT_EESA_
FNL:5,149
FNA:5,2,_ZNSt3__1neB8ne200100IP17basic_test_stringIcEEEbRKNS_11__wrap_iterIT_EES8_
FNA:5,8,_ZNSt3__1neB8ne200100IP2tmEEbRKNS_11__wrap_iterIT_EES7_
FNA:5,3,_ZNSt3__1neB8ne200100IP9test_enumEEbRKNS_11__wrap_iterIT_EES7_
FNA:5,3,_ZNSt3__1neB8ne200100IPK17basic_test_stringIcEEEbRKNS_11__wrap_iterIT_EES9_
FNA:5,2,_ZNSt3__1neB8ne200100IPK9test_enumEEbRKNS_11__wrap_iterIT_EES8_
FNA:5,3762,_ZNSt3__1neB8ne200100IPKN7testing14TestPartResultEEEbRKNS_11__wrap_iterIT_EES9_
FNA:5,0,_ZNSt3__1neB8ne200100IPKN7testing8internal13edit_distance8EditTypeEEEbRKNS_11__wrap_iterIT_EESB_
FNA:5,80,_ZNSt3__1neB8ne200100IPKNS_10shared_ptrIN7testing8internal15ExpectationBaseEEEEEbRKNS_11__wrap_iterIT_EESC_
FNA:5,40,_ZNSt3__1neB8ne200100IPKNS_12basic_stringIcNS_11char_traitsIcEENS_9allocatorIcEEEEEEbRKNS_11__wrap_iterIT_EESD_
FNA:5,7,_ZNSt3__1neB8ne200100IPKNS_12basic_stringIwNS_11char_traitsIwEENS_9allocatorIwEEEEEEbRKNS_11__wrap_iterIT_EESD_
FNA:5,0,_ZNSt3__1neB8ne200100IPKNS_4pairImmEEEEbRKNS_11__wrap_iterIT_EES9_
FNA:5,17,_ZNSt3__1neB8ne200100IPKNS_6vectorIcNS_9allocatorIcEEEEEEbRKNS_11__wrap_iterIT_EESB_
FNA:5,15,_ZNSt3__1neB8ne200100IPKNS_6vectorIiNS_9allocatorIiEEEEEEbRKNS_11__wrap_iterIT_EESB_
FNA:5,61,_ZNSt3__1neB8ne200100IPKPKvEEbRKNS_11__wrap_iterIT_EES9_
FNA:5,20,_ZNSt3__1neB8ne200100IPKPN7testing11EnvironmentEEEbRKNS_11__wrap_iterIT_EESA_
FNA:5,2,_ZNSt3__1neB8ne200100IPKPN7testing17TestEventListenerEEEbRKNS_11__wrap_iterIT_EESA_
FNA:5,5920,_ZNSt3__1neB8ne200100IPKPN7testing8TestInfoEEEbRKNS_11__wrap_iterIT_EESA_
FNA:5,401,_ZNSt3__1neB8ne200100IPKPN7testing9TestSuiteEEEbRKNS_11__wrap_iterIT_EESA_
FNA:5,70,_ZNSt3__1neB8ne200100IPKcEEbRKNS_11__wrap_iterIT_EES7_
FNA:5,110,_ZNSt3__1neB8ne200100IPKiEEbRKNS_11__wrap_iterIT_EES7_
FNA:5,0,_ZNSt3__1neB8ne200100IPN7testing12TestPropertyEEEbRKNS_11__wrap_iterIT_EES8_
FNA:5,0,_ZNSt3__1neB8ne200100IPN7testing8internal13edit_distance8EditTypeEEEbRKNS_11__wrap_iterIT_EESA_
FNA:5,3,_ZNSt3__1neB8ne200100IPNS_6vectorIiNS_9allocatorIiEEEEEEbRKNS_11__wrap_iterIT_EESA_
FNA:5,19,_ZNSt3__1neB8ne200100IPPN7testing11EnvironmentEEEbRKNS_11__wrap_iterIT_EES9_
FNA:5,21,_ZNSt3__1neB8ne200100IPPN7testing8internal30ParameterizedTestSuiteInfoBaseEEEbRKNS_11__wrap_iterIT_EESA_
FNA:5,1629,_ZNSt3__1neB8ne200100IPPN7testing9TestSuiteEEEbRKNS_11__wrap_iterIT_EES9_
FNA:5,0,_ZNSt3__1neB8ne200100IPPcEEbRKNS_11__wrap_iterIT_EES7_
FNA:5,1139,_ZNSt3__1neB8ne200100IPcEEbRKNS_11__wrap_iterIT_EES6_
FNA:5,4,_ZNSt3__1neB8ne200100IPfEEbRKNS_11__wrap_iterIT_EES6_
FNA:5,20,_ZNSt3__1neB8ne200100IPiEEbRKNS_11__wrap_iterIT_EES6_
FNL:6,155
FNA:6,198,_ZNSt3__1neB8ne200100IPKNS_10shared_ptrIN7testing8internal15ExpectationBaseEEEPS5_EEbRKNS_11__wrap_iterIT_EERKNS9_IT0_EE
FNA:6,0,_ZNSt3__1neB8ne200100IPKNS_12basic_stringIcNS_11char_traitsIcEENS_9allocatorIcEEEEPS6_EEbRKNS_11__wrap_iterIT_EERKNSA_IT0_EE
FNA:6,275,_ZNSt3__1neB8ne200100IPKPKvPS2_EEbRKNS_11__wrap_iterIT_EERKNS6_IT0_EE
FNL:7,216
FNA:7,6,_ZNSt3__1miB8ne200100IPKN3fmt3v1216basic_format_argINS2_7contextEEEPS5_EEDTmicldtfp_4baseEcldtfp0_4baseEERKNS_11__wrap_iterIT_EERKNSA_IT0_EE
FNA:7,0,_ZNSt3__1miB8ne200100IPKN7testing8internal13edit_distance8EditTypeES6_EEDTmicldtfp_4baseEcldtfp0_4baseEERKNS_11__wrap_iterIT_EERKNS8_IT0_EE
FNA:7,0,_ZNSt3__1miB8ne200100IPKNS_12basic_stringIcNS_11char_traitsIcEENS_9allocatorIcEEEES8_EEDTmicldtfp_4baseEcldtfp0_4baseEERKNS_11__wrap_iterIT_EERKNSA_IT0_EE
FNA:7,0,_ZNSt3__1miB8ne200100IPKPN7testing17TestEventListenerES5_EEDTmicldtfp_4baseEcldtfp0_4baseEERKNS_11__wrap_iterIT_EERKNS7_IT0_EE
FNA:7,0,_ZNSt3__1miB8ne200100IPKPN7testing9TestSuiteEPS3_EEDTmicldtfp_4baseEcldtfp0_4baseEERKNS_11__wrap_iterIT_EERKNS8_IT0_EE
FNA:7,0,_ZNSt3__1miB8ne200100IPKPcPS1_EEDTmicldtfp_4baseEcldtfp0_4baseEERKNS_11__wrap_iterIT_EERKNS6_IT0_EE
FNA:7,19,_ZNSt3__1miB8ne200100IPKcPcEEDTmicldtfp_4baseEcldtfp0_4baseEERKNS_11__wrap_iterIT_EERKNS5_IT0_EE
FNA:7,25,_ZNSt3__1miB8ne200100IPKcS2_EEDTmicldtfp_4baseEcldtfp0_4baseEERKNS_11__wrap_iterIT_EERKNS4_IT0_EE
FNA:7,4,_ZNSt3__1miB8ne200100IPiS1_EEDTmicldtfp_4baseEcldtfp0_4baseEERKNS_11__wrap_iterIT_EERKNS3_IT0_EE
FNL:8,244
FNA:8,0,_ZNSt3__114pointer_traitsINS_11__wrap_iterIPKNS_12basic_stringIcNS_11char_traitsIcEENS_9allocatorIcEEEEEEE10to_addressB8ne200100ESA_
FNA:8,2,_ZNSt3__114pointer_traitsINS_11__wrap_iterIPKcEEE10to_addressB8ne200100ES4_
FNL:9,58
FNA:9,6,_ZNSt3__111__wrap_iterIPKN3fmt3v1216basic_format_argINS2_7contextEEEEC1B8ne200100IPS5_Li0EEERKNS0_IT_EE
FNA:9,6,_ZNSt3__111__wrap_iterIPKN3fmt3v1216basic_format_argINS2_7contextEEEEC2B8ne200100IPS5_Li0EEERKNS0_IT_EE
FNA:9,122,_ZNSt3__111__wrap_iterIPKNS_10shared_ptrIN7testing8internal15ExpectationBaseEEEEC1B8ne200100IPS5_Li0EEERKNS0_IT_EE
FNA:9,122,_ZNSt3__111__wrap_iterIPKNS_10shared_ptrIN7testing8internal15ExpectationBaseEEEEC2B8ne200100IPS5_Li0EEERKNS0_IT_EE
FNA:9,0,_ZNSt3__111__wrap_iterIPKNS_12basic_stringIcNS_11char_traitsIcEENS_9allocatorIcEEEEEC1B8ne200100IPS6_Li0EEERKNS0_IT_EE
FNA:9,0,_ZNSt3__111__wrap_iterIPKNS_12basic_stringIcNS_11char_traitsIcEENS_9allocatorIcEEEEEC2B8ne200100IPS6_Li0EEERKNS0_IT_EE
FNA:9,198,_ZNSt3__111__wrap_iterIPKPKvEC1B8ne200100IPS2_Li0EEERKNS0_IT_EE
FNA:9,198,_ZNSt3__111__wrap_iterIPKPKvEC2B8ne200100IPS2_Li0EEERKNS0_IT_EE
FNA:9,0,_ZNSt3__111__wrap_iterIPKPN7testing17TestEventListenerEEC1B8ne200100IPS3_Li0EEERKNS0_IT_EE
FNA:9,0,_ZNSt3__111__wrap_iterIPKPN7testing17TestEventListenerEEC2B8ne200100IPS3_Li0EEERKNS0_IT_EE
FNA:9,0,_ZNSt3__111__wrap_iterIPKPN7testing9TestSuiteEEC1B8ne200100IPS3_Li0EEERKNS0_IT_EE
FNA:9,0,_ZNSt3__111__wrap_iterIPKPN7testing9TestSuiteEEC2B8ne200100IPS3_Li0EEERKNS0_IT_EE
FNA:9,0,_ZNSt3__111__wrap_iterIPKPcEC1B8ne200100IPS1_Li0EEERKNS0_IT_EE
FNA:9,0,_ZNSt3__111__wrap_iterIPKPcEC2B8ne200100IPS1_Li0EEERKNS0_IT_EE
FNA:9,38,_ZNSt3__111__wrap_iterIPKcEC1B8ne200100IPcLi0EEERKNS0_IT_EE
FNA:9,38,_ZNSt3__111__wrap_iterIPKcEC2B8ne200100IPcLi0EEERKNS0_IT_EE
FNA:9,8,_ZNSt3__111__wrap_iterIPKiEC1B8ne200100IPiLi0EEERKNS0_IT_EE
FNA:9,8,_ZNSt3__111__wrap_iterIPKiEC2B8ne200100IPiLi0EEERKNS0_IT_EE
FNL:10,60
FNA:10,2,_ZNKSt3__111__wrap_iterIP17basic_test_stringIcEEdeB8ne200100Ev
FNA:10,7,_ZNKSt3__111__wrap_iterIP2tmEdeB8ne200100Ev
FNA:10,3,_ZNKSt3__111__wrap_iterIP9test_enumEdeB8ne200100Ev
FNA:10,2,_ZNKSt3__111__wrap_iterIPK17basic_test_stringIcEEdeB8ne200100Ev
FNA:10,1,_ZNKSt3__111__wrap_iterIPK9test_enumEdeB8ne200100Ev
FNA:10,0,_ZNKSt3__111__wrap_iterIPKN7testing14TestPartResultEEdeB8ne200100Ev
FNA:10,0,_ZNKSt3__111__wrap_iterIPKN7testing8internal13edit_distance8EditTypeEEdeB8ne200100Ev
FNA:10,80,_ZNKSt3__111__wrap_iterIPKNS_10shared_ptrIN7testing8internal15ExpectationBaseEEEEdeB8ne200100Ev
FNA:10,27,_ZNKSt3__111__wrap_iterIPKNS_12basic_stringIcNS_11char_traitsIcEENS_9allocatorIcEEEEEdeB8ne200100Ev
FNA:10,5,_ZNKSt3__111__wrap_iterIPKNS_12basic_stringIwNS_11char_traitsIwEENS_9allocatorIwEEEEEdeB8ne200100Ev
FNA:10,11,_ZNKSt3__111__wrap_iterIPKNS_6vectorIcNS_9allocatorIcEEEEEdeB8ne200100Ev
FNA:10,11,_ZNKSt3__111__wrap_iterIPKNS_6vectorIiNS_9allocatorIiEEEEEdeB8ne200100Ev
FNA:10,132,_ZNKSt3__111__wrap_iterIPKPKvEdeB8ne200100Ev
FNA:10,0,_ZNKSt3__111__wrap_iterIPKPN7testing11EnvironmentEEdeB8ne200100Ev
FNA:10,1,_ZNKSt3__111__wrap_iterIPKPN7testing17TestEventListenerEEdeB8ne200100Ev
FNA:10,5320,_ZNKSt3__111__wrap_iterIPKPN7testing8TestInfoEEdeB8ne200100Ev
FNA:10,300,_ZNKSt3__111__wrap_iterIPKPN7testing9TestSuiteEEdeB8ne200100Ev
FNA:10,286,_ZNKSt3__111__wrap_iterIPKcEdeB8ne200100Ev
FNA:10,85,_ZNKSt3__111__wrap_iterIPKiEdeB8ne200100Ev
FNA:10,0,_ZNKSt3__111__wrap_iterIPN7testing12TestPropertyEEdeB8ne200100Ev
FNA:10,0,_ZNKSt3__111__wrap_iterIPN7testing8internal13edit_distance8EditTypeEEdeB8ne200100Ev
FNA:10,2,_ZNKSt3__111__wrap_iterIPNS_6vectorIiNS_9allocatorIiEEEEEdeB8ne200100Ev
FNA:10,0,_ZNKSt3__111__wrap_iterIPPN7testing11EnvironmentEEdeB8ne200100Ev
FNA:10,0,_ZNKSt3__111__wrap_iterIPPN7testing8internal30ParameterizedTestSuiteInfoBaseEEdeB8ne200100Ev
FNA:10,1489,_ZNKSt3__111__wrap_iterIPPN7testing9TestSuiteEEdeB8ne200100Ev
FNA:10,0,_ZNKSt3__111__wrap_iterIPPcEdeB8ne200100Ev
FNA:10,2355,_ZNKSt3__111__wrap_iterIPcEdeB8ne200100Ev
FNA:10,4,_ZNKSt3__111__wrap_iterIPfEdeB8ne200100Ev
FNA:10,31,_ZNKSt3__111__wrap_iterIPiEdeB8ne200100Ev
FNL:11,61
FNA:11,76,_ZNKSt3__111__wrap_iterIPKNS_10shared_ptrIN7testing8internal15ExpectationBaseEEEEptB8ne200100Ev
FNA:11,0,_ZNKSt3__111__wrap_iterIPKNS_12basic_stringIcNS_11char_traitsIcEENS_9allocatorIcEEEEEptB8ne200100Ev
FNA:11,0,_ZNKSt3__111__wrap_iterIPKNS_4pairImmEEEptB8ne200100Ev
FNA:11,0,_ZNKSt3__111__wrap_iterIPN7testing12TestPropertyEEptB8ne200100Ev
FNL:12,64
FNA:12,2,_ZNSt3__111__wrap_iterIP17basic_test_stringIcEEppB8ne200100Ev
FNA:12,7,_ZNSt3__111__wrap_iterIP2tmEppB8ne200100Ev
FNA:12,3,_ZNSt3__111__wrap_iterIP9test_enumEppB8ne200100Ev
FNA:12,2,_ZNSt3__111__wrap_iterIPK17basic_test_stringIcEEppB8ne200100Ev
FNA:12,1,_ZNSt3__111__wrap_iterIPK9test_enumEppB8ne200100Ev
FNA:12,0,_ZNSt3__111__wrap_iterIPKN7testing14TestPartResultEEppB8ne200100Ev
FNA:12,0,_ZNSt3__111__wrap_iterIPKN7testing8internal13edit_distance8EditTypeEEppB8ne200100Ev
FNA:12,76,_ZNSt3__111__wrap_iterIPKNS_10shared_ptrIN7testing8internal15ExpectationBaseEEEEppB8ne200100Ev
FNA:12,22,_ZNSt3__111__wrap_iterIPKNS_12basic_stringIcNS_11char_traitsIcEENS_9allocatorIcEEEEEppB8ne200100Ev
FNA:12,4,_ZNSt3__111__wrap_iterIPKNS_12basic_stringIwNS_11char_traitsIwEENS_9allocatorIwEEEEEppB8ne200100Ev
FNA:12,0,_ZNSt3__111__wrap_iterIPKNS_4pairImmEEEppB8ne200100Ev
FNA:12,11,_ZNSt3__111__wrap_iterIPKNS_6vectorIcNS_9allocatorIcEEEEEppB8ne200100Ev
FNA:12,11,_ZNSt3__111__wrap_iterIPKNS_6vectorIiNS_9allocatorIiEEEEEppB8ne200100Ev
FNA:12,77,_ZNSt3__111__wrap_iterIPKPKvEppB8ne200100Ev
FNA:12,0,_ZNSt3__111__wrap_iterIPKPN7testing11EnvironmentEEppB8ne200100Ev
FNA:12,1,_ZNSt3__111__wrap_iterIPKPN7testing17TestEventListenerEEppB8ne200100Ev
FNA:12,5320,_ZNSt3__111__wrap_iterIPKPN7testing8TestInfoEEppB8ne200100Ev
FNA:12,300,_ZNSt3__111__wrap_iterIPKPN7testing9TestSuiteEEppB8ne200100Ev
FNA:12,130,_ZNSt3__111__wrap_iterIPKcEppB8ne200100Ev
FNA:12,85,_ZNSt3__111__wrap_iterIPKiEppB8ne200100Ev
FNA:12,0,_ZNSt3__111__wrap_iterIPN7testing12TestPropertyEEppB8ne200100Ev
FNA:12,0,_ZNSt3__111__wrap_iterIPN7testing8internal13edit_distance8EditTypeEEppB8ne200100Ev
FNA:12,2,_ZNSt3__111__wrap_iterIPNS_6vectorIiNS_9allocatorIiEEEEEppB8ne200100Ev
FNA:12,0,_ZNSt3__111__wrap_iterIPPN7testing8internal30ParameterizedTestSuiteInfoBaseEEppB8ne200100Ev
FNA:12,60,_ZNSt3__111__wrap_iterIPPN7testing9TestSuiteEEppB8ne200100Ev
FNA:12,0,_ZNSt3__111__wrap_iterIPPcEppB8ne200100Ev
FNA:12,2204,_ZNSt3__111__wrap_iterIPcEppB8ne200100Ev
FNA:12,4,_ZNSt3__111__wrap_iterIPfEppB8ne200100Ev
FNA:12,18,_ZNSt3__111__wrap_iterIPiEppB8ne200100Ev
FNL:13,68
FNA:13,78,_ZNSt3__111__wrap_iterIPKcEppB8ne200100Ei
FNA:13,1102,_ZNSt3__111__wrap_iterIPcEppB8ne200100Ei
FNL:14,74
FNA:14,84,_ZNSt3__111__wrap_iterIPKNS_10shared_ptrIN7testing8internal15ExpectationBaseEEEEmmB8ne200100Ev
FNA:14,55,_ZNSt3__111__wrap_iterIPKPKvEmmB8ne200100Ev
FNA:14,0,_ZNSt3__111__wrap_iterIPKcEmmB8ne200100Ev
FNA:14,0,_ZNSt3__111__wrap_iterIPN7testing8internal13edit_distance8EditTypeEEmmB8ne200100Ev
FNA:14,0,_ZNSt3__111__wrap_iterIPPN7testing11EnvironmentEEmmB8ne200100Ev
FNA:14,1914,_ZNSt3__111__wrap_iterIPPN7testing9TestSuiteEEmmB8ne200100Ev
FNA:14,18,_ZNSt3__111__wrap_iterIPcEmmB8ne200100Ev
FNA:14,3,_ZNSt3__111__wrap_iterIPiEmmB8ne200100Ev
FNL:15,83
FNA:15,0,_ZNKSt3__111__wrap_iterIPKN7testing8internal13edit_distance8EditTypeEEplB8ne200100El
FNA:15,0,_ZNKSt3__111__wrap_iterIPKNS_12basic_stringIcNS_11char_traitsIcEENS_9allocatorIcEEEEEplB8ne200100El
FNA:15,0,_ZNKSt3__111__wrap_iterIPPN7testing17TestEventListenerEEplB8ne200100El
FNA:15,0,_ZNKSt3__111__wrap_iterIPPN7testing9TestSuiteEEplB8ne200100El
FNA:15,0,_ZNKSt3__111__wrap_iterIPPcEplB8ne200100El
FNA:15,19,_ZNKSt3__111__wrap_iterIPcEplB8ne200100El
FNA:15,4,_ZNKSt3__111__wrap_iterIPiEplB8ne200100El
FNL:16,88
FNA:16,0,_ZNSt3__111__wrap_iterIPKN7testing8internal13edit_distance8EditTypeEEpLB8ne200100El
FNA:16,0,_ZNSt3__111__wrap_iterIPKNS_12basic_stringIcNS_11char_traitsIcEENS_9allocatorIcEEEEEpLB8ne200100El
FNA:16,0,_ZNSt3__111__wrap_iterIPPN7testing17TestEventListenerEEpLB8ne200100El
FNA:16,0,_ZNSt3__111__wrap_iterIPPN7testing9TestSuiteEEpLB8ne200100El
FNA:16,0,_ZNSt3__111__wrap_iterIPPcEpLB8ne200100El
FNA:16,152,_ZNSt3__111__wrap_iterIPcEpLB8ne200100El
FNA:16,4,_ZNSt3__111__wrap_iterIPiEpLB8ne200100El
FNL:17,92
FNA:17,0,_ZNKSt3__111__wrap_iterIPPcEmiB8ne200100El
FNF:18
FNH:16
DA:58,744
DA:59,744
DA:60,10154
DA:61,76
DA:62,76
DA:64,8340
DA:65,8340
DA:66,8340
DA:68,1180
DA:69,1180
DA:70,1180
DA:71,1180
DA:74,2074
DA:75,2074
DA:76,2074
DA:83,23
DA:84,23
DA:85,23
DA:86,23
DA:88,156
DA:89,156
DA:90,156
DA:92,0
DA:93,0
DA:103,28486
DA:106,35536
DA:124,13715
DA:125,13715
DA:130,473
DA:131,473
DA:136,0
DA:137,0
DA:149,13358
DA:150,13358
DA:155,473
DA:156,473
DA:216,54
DA:223,54
DA:244,2
DA:245,2
LF:40
LH:36
end_of_record
TN:
SF:/Applications/Xcode.app/Contents/Developer/Platforms/MacOSX.platform/Developer/SDKs/MacOSX.sdk/usr/include/c++/v1/__locale
FNL:0,1103
FNA:0,8,_ZNKSt3__17codecvtIDic11__mbstate_tE2inB8ne200100ERS1_PKcS5_RS5_PDiS7_RS7_
FNL:1,123
FNA:1,27,_ZNSt3__16locale5facetC2B8ne200100Em
FNL:2,1426
FNA:2,9,_ZNKSt3__18numpunctIcE13decimal_pointB8ne200100Ev
FNL:3,1427
FNA:3,26,_ZNKSt3__18numpunctIcE13thousands_sepB8ne200100Ev
FNL:4,1428
FNA:4,31,_ZNKSt3__18numpunctIcE8groupingB8ne200100Ev
FNL:5,1456
FNA:5,0,_ZNKSt3__18numpunctIwE13decimal_pointB8ne200100Ev
FNL:6,1457
FNA:6,4,_ZNKSt3__18numpunctIwE13thousands_sepB8ne200100Ev
FNL:7,1458
FNA:7,8,_ZNKSt3__18numpunctIwE8groupingB8ne200100Ev
FNL:8,153
FNA:8,1,_ZNSt3__16localeC1B8ne200100I11no_groupingIcEEERKS0_PT_
FNA:8,1,_ZNSt3__16localeC1B8ne200100I11no_groupingIwEEERKS0_PT_
FNA:8,1,_ZNSt3__16localeC1B8ne200100I12format_facetEERKS0_PT_
FNA:8,1,_ZNSt3__16localeC1B8ne200100I14small_groupingIcEEERKS0_PT_
FNA:8,1,_ZNSt3__16localeC1B8ne200100I14small_groupingIwEEERKS0_PT_
FNA:8,4,_ZNSt3__16localeC1B8ne200100I16special_groupingIcEEERKS0_PT_
FNA:8,1,_ZNSt3__16localeC1B8ne200100I16special_groupingIwEEERKS0_PT_
FNA:8,2,_ZNSt3__16localeC1B8ne200100I8numpunctIcEEERKS0_PT_
FNA:8,1,_ZNSt3__16localeC1B8ne200100I8numpunctIwEEERKS0_PT_
FNA:8,3,_ZNSt3__16localeC1B8ne200100IN3fmt3v1212format_facetIS0_EEEERKS0_PT_
FNA:8,1,_ZNSt3__16localeC2B8ne200100I11no_groupingIcEEERKS0_PT_
FNA:8,1,_ZNSt3__16localeC2B8ne200100I11no_groupingIwEEERKS0_PT_
FNA:8,1,_ZNSt3__16localeC2B8ne200100I12format_facetEERKS0_PT_
FNA:8,1,_ZNSt3__16localeC2B8ne200100I14small_groupingIcEEERKS0_PT_
FNA:8,1,_ZNSt3__16localeC2B8ne200100I14small_groupingIwEEERKS0_PT_
FNA:8,4,_ZNSt3__16localeC2B8ne200100I16special_groupingIcEEERKS0_PT_
FNA:8,1,_ZNSt3__16localeC2B8ne200100I16special_groupingIwEEERKS0_PT_
FNA:8,2,_ZNSt3__16localeC2B8ne200100I8numpunctIcEEERKS0_PT_
FNA:8,1,_ZNSt3__16localeC2B8ne200100I8numpunctIwEEERKS0_PT_
FNA:8,3,_ZNSt3__16localeC2B8ne200100IN3fmt3v1212format_facetIS0_EEEERKS0_PT_
FNL:9,166
FNA:9,30,_ZNSt3__19has_facetB8ne200100IN3fmt3v1212format_facetINS_6localeEEEEEbRKS4_
FNL:10,171
FNA:10,7,_ZNSt3__19use_facetB8ne200100IN3fmt3v1212format_facetINS_6localeEEEEERKT_RKS4_
FNA:10,1368,_ZNSt3__19use_facetB8ne200100INS_5ctypeIcEEEERKT_RKNS_6localeE
FNA:10,2,_ZNSt3__19use_facetB8ne200100INS_5ctypeIwEEEERKT_RKNS_6localeE
FNA:10,8,_ZNSt3__19use_facetB8ne200100INS_7codecvtIDic11__mbstate_tEEEERKT_RKNS_6localeE
FNA:10,0,_ZNSt3__19use_facetB8ne200100INS_7codecvtIwc11__mbstate_tEEEERKT_RKNS_6localeE
FNA:10,40,_ZNSt3__19use_facetB8ne200100INS_8numpunctIcEEEERKT_RKNS_6localeE
FNA:10,8,_ZNSt3__19use_facetB8ne200100INS_8numpunctIwEEEERKT_RKNS_6localeE
FNA:10,20442,_ZNSt3__19use_facetB8ne200100INS_8time_putIcNS_19ostreambuf_iteratorIcNS_11char_traitsIcEEEEEEEERKT_RKNS_6localeE
FNA:10,1,_ZNSt3__19use_facetB8ne200100INS_8time_putIwNS_19ostreambuf_iteratorIwNS_11char_traitsIwEEEEEEEERKT_RKNS_6localeE
FNL:11,490
FNA:11,2,_ZNKSt3__15ctypeIwE5widenB8ne200100Ec
FNL:12,523
FNA:12,48,_ZNSt3__116__libcpp_isasciiB8ne200100Ei
FNL:13,535
FNA:13,48,_ZNKSt3__15ctypeIcE2isB8ne200100Ejc
FNL:14,571
FNA:14,1320,_ZNKSt3__15ctypeIcE5widenB8ne200100Ec
FNL:15,692
FNA:15,48,_ZNSt3__17isalphaB8ne200100IcEEbT_RKNS_6localeE
FNL:16,859
FNA:16,0,_ZNKSt3__17codecvtIwc11__mbstate_tE2inB8ne200100ERS1_PKcS5_RS5_PwS7_RS7_
FNL:17,92
FNA:17,13,_ZNKSt3__16localeneB8ne200100ERKS0_
FNF:18
FNH:16
DA:92,13
DA:123,27
DA:153,32
DA:154,16
DA:155,32
DA:166,30
DA:167,30
DA:171,21876
DA:172,21876
DA:490,2
DA:523,48
DA:535,48
DA:536,48
DA:571,1320
DA:692,48
DA:693,48
DA:859,0
DA:866,0
DA:1103,8
DA:1110,8
DA:1426,9
DA:1427,26
DA:1428,31
DA:1456,0
DA:1457,4
DA:1458,8
LF:26
LH:23
end_of_record
TN:
SF:/Applications/Xcode.app/Contents/Developer/Platforms/MacOSX.platform/Developer/SDKs/MacOSX.sdk/usr/include/c++/v1/__locale_dir/pad_and_output.h
FNL:0,44
FNA:0,9053,_ZNSt3__116__pad_and_outputB8ne200100IcNS_11char_traitsIcEEEENS_19ostreambuf_iteratorIT_T0_EES6_PKS4_S8_S8_RNS_8ios_baseES4_
FNA:0,2,_ZNSt3__116__pad_and_outputB8ne200100IwNS_11char_traitsIwEEEENS_19ostreambuf_iteratorIT_T0_EES6_PKS4_S8_S8_RNS_8ios_baseES4_
FNF:1
FNH:1
DA:44,9055
DA:51,9055
DA:52,0
DA:53,9055
DA:54,9055
DA:55,9055
DA:56,0
DA:58,9055
DA:59,9055
DA:60,9055
DA:61,0
DA:62,0
DA:63,0
DA:65,0
DA:66,8642
DA:67,0
DA:68,0
DA:69,0
DA:70,0
DA:72,0
DA:73,9055
DA:74,9055
DA:75,9054
DA:76,0
DA:77,0
DA:79,9054
DA:80,9055
DA:81,9055
DA:82,9055
LF:29
LH:16
end_of_record
TN:
SF:/Applications/Xcode.app/Contents/Developer/Platforms/MacOSX.platform/Developer/SDKs/MacOSX.sdk/usr/include/c++/v1/__math/exponential_functions.h
FNL:0,75
FNA:0,2098,_ZNSt3__16__math5ldexpB8ne200100IiLi0EEEdT_i
FNF:1
FNH:1
DA:75,2098
DA:76,2098
LF:2
LH:2
end_of_record
TN:
SF:/Applications/Xcode.app/Contents/Developer/Platforms/MacOSX.platform/Developer/SDKs/MacOSX.sdk/usr/include/c++/v1/__math/modulo.h
FNL:0,28
FNA:0,1,_ZNSt3__16__math4fmodB8ne200100Eff
FNF:1
FNH:1
DA:28,1
LF:1
LH:1
end_of_record
TN:
SF:/Applications/Xcode.app/Contents/Developer/Platforms/MacOSX.platform/Developer/SDKs/MacOSX.sdk/usr/include/c++/v1/__math/rounding_functions.h
FNL:0,207
FNA:0,0,_ZNSt3__16__math5roundB8ne200100Ef
FNL:1,29
FNA:1,3,_ZNSt3__16__math4ceilB8ne200100Ef
FNF:2
FNH:1
DA:29,3
DA:207,0
LF:2
LH:1
end_of_record
TN:
SF:/Applications/Xcode.app/Contents/Developer/Platforms/MacOSX.platform/Developer/SDKs/MacOSX.sdk/usr/include/c++/v1/__math/traits.h
FNL:0,114
FNA:0,0,_ZNSt3__16__math5isnanB8ne200100Ef
FNL:1,123
FNA:1,5,_ZNSt3__16__math5isnanB8ne200100EUa9enable_ifIXLb1EEEd
FNL:2,127
FNA:2,0,_ZNSt3__16__math5isnanB8ne200100Ee
FNL:3,45
FNA:3,2463,_ZNSt3__16__math7signbitB8ne200100IvEEbd
FNL:4,71
FNA:4,28,_ZNSt3__16__math8isfiniteB8ne200100Ef
FNL:5,75
FNA:5,397,_ZNSt3__16__math8isfiniteB8ne200100Ed
FNL:6,79
FNA:6,34,_ZNSt3__16__math8isfiniteB8ne200100Ee
FNF:7
FNH:5
DA:45,2463
DA:46,2463
DA:71,28
DA:72,28
DA:75,397
DA:76,397
DA:79,34
DA:80,34
DA:114,0
DA:115,0
DA:123,5
DA:124,5
DA:127,0
DA:128,0
LF:14
LH:10
end_of_record
TN:
SF:/Applications/Xcode.app/Contents/Developer/Platforms/MacOSX.platform/Developer/SDKs/MacOSX.sdk/usr/include/c++/v1/__memory/allocate_at_least.h
FNL:0,40
FNA:0,2,_ZNSt3__119__allocate_at_leastB8ne200100INS_9allocatorI17basic_test_stringIcEEEEENS_19__allocation_resultINS_16allocator_traitsIT_E7pointerEEERS7_m
FNA:0,1,_ZNSt3__119__allocate_at_leastB8ne200100INS_9allocatorI2tmEEEENS_19__allocation_resultINS_16allocator_traitsIT_E7pointerEEERS6_m
FNA:0,2,_ZNSt3__119__allocate_at_leastB8ne200100INS_9allocatorI9test_enumEEEENS_19__allocation_resultINS_16allocator_traitsIT_E7pointerEEERS6_m
FNA:0,31,_ZNSt3__119__allocate_at_leastB8ne200100INS_9allocatorIN3fmt3v1216basic_format_argINS3_7contextEEEEEEENS_19__allocation_resultINS_16allocator_traitsIT_E7pointerEEERSA_m
FNA:0,9,_ZNSt3__119__allocate_at_leastB8ne200100INS_9allocatorIN3fmt3v126detail14named_arg_infoIcEEEEEENS_19__allocation_resultINS_16allocator_traitsIT_E7pointerEEERSA_m
FNA:0,0,_ZNSt3__119__allocate_at_leastB8ne200100INS_9allocatorIN7testing12TestPropertyEEEEENS_19__allocation_resultINS_16allocator_traitsIT_E7pointerEEERS7_m
FNA:0,26,_ZNSt3__119__allocate_at_leastB8ne200100INS_9allocatorIN7testing14TestPartResultEEEEENS_19__allocation_resultINS_16allocator_traitsIT_E7pointerEEERS7_m
FNA:0,0,_ZNSt3__119__allocate_at_leastB8ne200100INS_9allocatorIN7testing8internal13edit_distance8EditTypeEEEEENS_19__allocation_resultINS_16allocator_traitsIT_E7pointerEEERS9_m
FNA:0,0,_ZNSt3__119__allocate_at_leastB8ne200100INS_9allocatorIN7testing8internal9TraceInfoEEEEENS_19__allocation_resultINS_16allocator_traitsIT_E7pointerEEERS8_m
FNA:0,76,_ZNSt3__119__allocate_at_leastB8ne200100INS_9allocatorINS_10shared_ptrIN7testing8internal15ExpectationBaseEEEEEEENS_19__allocation_resultINS_16allocator_traitsIT_E7pointerEEERSA_m
FNA:0,63,_ZNSt3__119__allocate_at_leastB8ne200100INS_9allocatorINS_12basic_stringIcNS_11char_traitsIcEENS1_IcEEEEEEEENS_19__allocation_resultINS_16allocator_traitsIT_E7pointerEEERSA_m
FNA:0,3,_ZNSt3__119__allocate_at_leastB8ne200100INS_9allocatorINS_12basic_stringIwNS_11char_traitsIwEENS1_IwEEEEEEEENS_19__allocation_resultINS_16allocator_traitsIT_E7pointerEEERSA_m
FNA:0,0,_ZNSt3__119__allocate_at_leastB8ne200100INS_9allocatorINS_4pairImmEEEEEENS_19__allocation_resultINS_16allocator_traitsIT_E7pointerEEERS7_m
FNA:0,0,_ZNSt3__119__allocate_at_leastB8ne200100INS_9allocatorINS_6vectorIN7testing8internal13edit_distance8EditTypeENS1_IS6_EEEEEEEENS_19__allocation_resultINS_16allocator_traitsIT_E7pointerEEERSC_m
FNA:0,2,_ZNSt3__119__allocate_at_leastB8ne200100INS_9allocatorINS_6vectorIcNS1_IcEEEEEEEENS_19__allocation_resultINS_16allocator_traitsIT_E7pointerEEERS8_m
FNA:0,0,_ZNSt3__119__allocate_at_leastB8ne200100INS_9allocatorINS_6vectorIdNS1_IdEEEEEEEENS_19__allocation_resultINS_16allocator_traitsIT_E7pointerEEERS8_m
FNA:0,2,_ZNSt3__119__allocate_at_leastB8ne200100INS_9allocatorINS_6vectorIiNS1_IiEEEEEEEENS_19__allocation_resultINS_16allocator_traitsIT_E7pointerEEERS8_m
FNA:0,80,_ZNSt3__119__allocate_at_leastB8ne200100INS_9allocatorIPKN7testing8internal15ExpectationBaseEEEEENS_19__allocation_resultINS_16allocator_traitsIT_E7pointerEEERSA_m
FNA:0,77,_ZNSt3__119__allocate_at_leastB8ne200100INS_9allocatorIPKvEEEENS_19__allocation_resultINS_16allocator_traitsIT_E7pointerEEERS7_m
FNA:0,0,_ZNSt3__119__allocate_at_leastB8ne200100INS_9allocatorIPN7testing11EnvironmentEEEEENS_19__allocation_resultINS_16allocator_traitsIT_E7pointerEEERS8_m
FNA:0,20,_ZNSt3__119__allocate_at_leastB8ne200100INS_9allocatorIPN7testing17TestEventListenerEEEEENS_19__allocation_resultINS_16allocator_traitsIT_E7pointerEEERS8_m
FNA:0,183,_ZNSt3__119__allocate_at_leastB8ne200100INS_9allocatorIPN7testing8TestInfoEEEEENS_19__allocation_resultINS_16allocator_traitsIT_E7pointerEEERS8_m
FNA:0,76,_ZNSt3__119__allocate_at_leastB8ne200100INS_9allocatorIPN7testing8internal15ExpectationBaseEEEEENS_19__allocation_resultINS_16allocator_traitsIT_E7pointerEEERS9_m
FNA:0,39,_ZNSt3__119__allocate_at_leastB8ne200100INS_9allocatorIPN7testing9TestSuiteEEEEENS_19__allocation_resultINS_16allocator_traitsIT_E7pointerEEERS8_m
FNA:0,0,_ZNSt3__119__allocate_at_leastB8ne200100INS_9allocatorIPcEEEENS_19__allocation_resultINS_16allocator_traitsIT_E7pointerEEERS6_m
FNA:0,2,_ZNSt3__119__allocate_at_leastB8ne200100INS_9allocatorIPiEEEENS_19__allocation_resultINS_16allocator_traitsIT_E7pointerEEERS6_m
FNA:0,1075,_ZNSt3__119__allocate_at_leastB8ne200100INS_9allocatorIcEEEENS_19__allocation_resultINS_16allocator_traitsIT_E7pointerEEERS5_m
FNA:0,0,_ZNSt3__119__allocate_at_leastB8ne200100INS_9allocatorIdEEEENS_19__allocation_resultINS_16allocator_traitsIT_E7pointerEEERS5_m
FNA:0,2,_ZNSt3__119__allocate_at_leastB8ne200100INS_9allocatorIfEEEENS_19__allocation_resultINS_16allocator_traitsIT_E7pointerEEERS5_m
FNA:0,254,_ZNSt3__119__allocate_at_leastB8ne200100INS_9allocatorIiEEEENS_19__allocation_resultINS_16allocator_traitsIT_E7pointerEEERS5_m
FNA:0,2,_ZNSt3__119__allocate_at_leastB8ne200100INS_9allocatorImEEEENS_19__allocation_resultINS_16allocator_traitsIT_E7pointerEEERS5_m
FNA:0,7,_ZNSt3__119__allocate_at_leastB8ne200100INS_9allocatorIwEEEENS_19__allocation_resultINS_16allocator_traitsIT_E7pointerEEERS5_m
FNF:1
FNH:1
DA:40,2034
DA:41,2034
LF:2
LH:2
end_of_record
TN:
SF:/Applications/Xcode.app/Contents/Developer/Platforms/MacOSX.platform/Developer/SDKs/MacOSX.sdk/usr/include/c++/v1/__memory/allocation_guard.h
FNL:0,52
FNA:0,0,_ZNSt3__118__allocation_guardINS_9allocatorINS_11__list_nodeINS_4pairIcPKcEEPvEEEEEC1B8ne200100IS9_EET_m
FNA:0,0,_ZNSt3__118__allocation_guardINS_9allocatorINS_11__list_nodeINS_4pairIcPKcEEPvEEEEEC2B8ne200100IS9_EET_m
FNA:0,2,_ZNSt3__118__allocation_guardINS_9allocatorINS_11__list_nodeIcPvEEEEEC1B8ne200100IS5_EET_m
FNA:0,2,_ZNSt3__118__allocation_guardINS_9allocatorINS_11__list_nodeIcPvEEEEEC2B8ne200100IS5_EET_m
FNL:1,58
FNA:1,0,_ZNSt3__118__allocation_guardINS_9allocatorINS_11__list_nodeINS_4pairIcPKcEEPvEEEEED1B8ne200100Ev
FNA:1,0,_ZNSt3__118__allocation_guardINS_9allocatorINS_11__list_nodeINS_4pairIcPKcEEPvEEEEED2B8ne200100Ev
FNA:1,2,_ZNSt3__118__allocation_guardINS_9allocatorINS_11__list_nodeIcPvEEEEED1B8ne200100Ev
FNA:1,2,_ZNSt3__118__allocation_guardINS_9allocatorINS_11__list_nodeIcPvEEEEED2B8ne200100Ev
FNL:2,83
FNA:2,0,_ZNSt3__118__allocation_guardINS_9allocatorINS_11__list_nodeINS_4pairIcPKcEEPvEEEEE13__release_ptrB8ne200100Ev
FNA:2,2,_ZNSt3__118__allocation_guardINS_9allocatorINS_11__list_nodeIcPvEEEEE13__release_ptrB8ne200100Ev
FNL:3,89
FNA:3,0,_ZNKSt3__118__allocation_guardINS_9allocatorINS_11__list_nodeINS_4pairIcPKcEEPvEEEEE5__getB8ne200100Ev
FNA:3,4,_ZNKSt3__118__allocation_guardINS_9allocatorINS_11__list_nodeIcPvEEEEE5__getB8ne200100Ev
FNL:4,92
FNA:4,0,_ZNSt3__118__allocation_guardINS_9allocatorINS_11__list_nodeINS_4pairIcPKcEEPvEEEEE9__destroyB8ne200100Ev
FNA:4,2,_ZNSt3__118__allocation_guardINS_9allocatorINS_11__list_nodeIcPvEEEEE9__destroyB8ne200100Ev
FNF:5
FNH:5
DA:52,4
DA:54,2
DA:55,2
DA:56,4
DA:58,4
DA:83,2
DA:84,2
DA:85,2
DA:86,4
DA:87,2
DA:89,4
DA:92,2
DA:93,2
DA:94,0
DA:95,0
DA:96,2
LF:16
LH:14
end_of_record
TN:
SF:/Applications/Xcode.app/Contents/Developer/Platforms/MacOSX.platform/Developer/SDKs/MacOSX.sdk/usr/include/c++/v1/__memory/allocator.h
FNL:0,116
FNA:0,2,_ZNSt3__19allocatorI17basic_test_stringIcEE10deallocateB8ne200100EPS2_m
FNA:0,1,_ZNSt3__19allocatorI2tmE10deallocateB8ne200100EPS1_m
FNA:0,2,_ZNSt3__19allocatorI9test_enumE10deallocateB8ne200100EPS1_m
FNA:0,31,_ZNSt3__19allocatorIN3fmt3v1216basic_format_argINS2_7contextEEEE10deallocateB8ne200100EPS5_m
FNA:0,9,_ZNSt3__19allocatorIN3fmt3v126detail14named_arg_infoIcEEE10deallocateB8ne200100EPS5_m
FNA:0,0,_ZNSt3__19allocatorIN7testing12TestPropertyEE10deallocateB8ne200100EPS2_m
FNA:0,26,_ZNSt3__19allocatorIN7testing14TestPartResultEE10deallocateB8ne200100EPS2_m
FNA:0,0,_ZNSt3__19allocatorIN7testing8internal13edit_distance8EditTypeEE10deallocateB8ne200100EPS4_m
FNA:0,0,_ZNSt3__19allocatorIN7testing8internal9TraceInfoEE10deallocateB8ne200100EPS3_m
FNA:0,0,_ZNSt3__19allocatorINS_10__function6__funcI12check_customNS0_IS3_EEF11test_resultN3fmt3v1216basic_format_argINS7_7contextEE6handleEEEEE10deallocateB8ne200100EPSD_m
FNA:0,0,_ZNSt3__19allocatorINS_10__function6__funcIN7testing6ActionIF11test_resultN3fmt3v1216basic_format_argINS7_7contextEE6handleEEE13ActionAdapterENS0_ISE_EESC_EEE10deallocateB8ne200100EPSG_m
FNA:0,0,_ZNSt3__19allocatorINS_10__function6__funcIN7testing6ActionIF11test_resultN3fmt3v1217basic_string_viewIcEEEE13ActionAdapterENS0_ISC_EESA_EEE10deallocateB8ne200100EPSE_m
FNA:0,0,_ZNSt3__19allocatorINS_10__function6__funcIN7testing6ActionIF11test_resultN3fmt3v129monostateEEE13ActionAdapterENS0_ISB_EES9_EEE10deallocateB8ne200100EPSD_m
FNA:0,0,_ZNSt3__19allocatorINS_10__function6__funcIN7testing6ActionIF11test_resultPKcEE13ActionAdapterENS0_ISA_EES8_EEE10deallocateB8ne200100EPSC_m
FNA:0,0,_ZNSt3__19allocatorINS_10__function6__funcIN7testing6ActionIF11test_resultPKvEE13ActionAdapterENS0_ISA_EES8_EEE10deallocateB8ne200100EPSC_m
FNA:0,0,_ZNSt3__19allocatorINS_10__function6__funcIN7testing6ActionIF11test_resultbEE13ActionAdapterENS0_IS8_EES6_EEE10deallocateB8ne200100EPSA_m
FNA:0,0,_ZNSt3__19allocatorINS_10__function6__funcIN7testing6ActionIF11test_resultcEE13ActionAdapterENS0_IS8_EES6_EEE10deallocateB8ne200100EPSA_m
FNA:0,0,_ZNSt3__19allocatorINS_10__function6__funcIN7testing6ActionIF11test_resultdEE13ActionAdapterENS0_IS8_EES6_EEE10deallocateB8ne200100EPSA_m
FNA:0,0,_ZNSt3__19allocatorINS_10__function6__funcIN7testing6ActionIF11test_resulteEE13ActionAdapterENS0_IS8_EES6_EEE10deallocateB8ne200100EPSA_m
FNA:0,0,_ZNSt3__19allocatorINS_10__function6__funcIN7testing6ActionIF11test_resultfEE13ActionAdapterENS0_IS8_EES6_EEE10deallocateB8ne200100EPSA_m
FNA:0,0,_ZNSt3__19allocatorINS_10__function6__funcIN7testing6ActionIF11test_resultiEE13ActionAdapterENS0_IS8_EES6_EEE10deallocateB8ne200100EPSA_m
FNA:0,0,_ZNSt3__19allocatorINS_10__function6__funcIN7testing6ActionIF11test_resultjEE13ActionAdapterENS0_IS8_EES6_EEE10deallocateB8ne200100EPSA_m
FNA:0,0,_ZNSt3__19allocatorINS_10__function6__funcIN7testing6ActionIF11test_resultxEE13ActionAdapterENS0_IS8_EES6_EEE10deallocateB8ne200100EPSA_m
FNA:0,0,_ZNSt3__19allocatorINS_10__function6__funcIN7testing6ActionIF11test_resultyEE13ActionAdapterENS0_IS8_EES6_EEE10deallocateB8ne200100EPSA_m
FNA:0,0,_ZNSt3__19allocatorINS_10__function6__funcIN7testing6ActionIFPcmEE13ActionAdapterENS0_IS8_EES6_EEE10deallocateB8ne200100EPSA_m
FNA:0,0,_ZNSt3__19allocatorINS_10__function6__funcIN7testing6ActionIFPimEE13ActionAdapterENS0_IS8_EES6_EEE10deallocateB8ne200100EPSA_m
FNA:0,0,_ZNSt3__19allocatorINS_10__function6__funcIN7testing6ActionIFlPKvlEE13ActionAdapterENS0_IS9_EES7_EEE10deallocateB8ne200100EPSB_m
FNA:0,0,_ZNSt3__19allocatorINS_10__function6__funcIN7testing6ActionIFmmEE13ActionAdapterENS0_IS7_EES5_EEE10deallocateB8ne200100EPS9_m
FNA:0,0,_ZNSt3__19allocatorINS_10__function6__funcIZN11mock_bufferIcEC1EPcmEUlmE_NS0_IS6_EEFmmEEEE10deallocateB8ne200100EPS9_m
FNA:0,0,_ZNSt3__19allocatorINS_10__function6__funcIZN11mock_bufferIiEC1EPimEUlmE_NS0_IS6_EEFmmEEEE10deallocateB8ne200100EPS9_m
FNA:0,0,_ZNSt3__19allocatorINS_10__function6__funcIZN31buffer_test_append_partial_Test8TestBodyEvE3$_0NS0_IS4_EEFmmEEEE10deallocateB8ne200100EPS7_m
FNA:0,0,_ZNSt3__19allocatorINS_10__function6__funcIZNK7testing8internal11ThrowActionISt9exceptionEcvNS3_6ActionIFT_DpT0_EEEIvJPcmEEEvEUlSF_mE_NS0_ISG_EEFvSF_mEEEE10deallocateB8ne200100EPSJ_m
FNA:0,76,_ZNSt3__19allocatorINS_10shared_ptrIN7testing8internal15ExpectationBaseEEEE10deallocateB8ne200100EPS5_m
FNA:0,55,_ZNSt3__19allocatorINS_11__hash_nodeINS_17__hash_value_typeImN7testing8internal12CallReactionEEEPvEEE10deallocateB8ne200100EPS8_m
FNA:0,0,_ZNSt3__19allocatorINS_11__list_nodeINS_4pairIcPKcEEPvEEE10deallocateB8ne200100EPS7_m
FNA:0,2,_ZNSt3__19allocatorINS_11__list_nodeIcPvEEE10deallocateB8ne200100EPS3_m
FNA:0,3,_ZNSt3__19allocatorINS_11__tree_nodeIN7testing11ExpectationEPvEEE10deallocateB8ne200100EPS5_m
FNA:0,1,_ZNSt3__19allocatorINS_11__tree_nodeINS_12__value_typeINS_10error_codeEiEEPvEEE10deallocateB8ne200100EPS6_m
FNA:0,0,_ZNSt3__19allocatorINS_11__tree_nodeINS_12__value_typeINS_12basic_stringIcNS_11char_traitsIcEENS0_IcEEEEN7testing8internal34TypeParameterizedTestSuiteRegistry30TypeParameterizedTestSuiteInfoEEEPvEEE10deallocateB8ne200100EPSE_m
FNA:0,2,_ZNSt3__19allocatorINS_11__tree_nodeINS_12__value_typeINS_12basic_stringIcNS_11char_traitsIcEENS0_IcEEEEiEEPvEEE10deallocateB8ne200100EPSA_m
FNA:0,0,_ZNSt3__19allocatorINS_11__tree_nodeINS_12__value_typeINS_12basic_stringIcNS_11char_traitsIcEENS0_IcEEEEmEEPvEEE10deallocateB8ne200100EPSA_m
FNA:0,2,_ZNSt3__19allocatorINS_11__tree_nodeINS_12__value_typeINS_12basic_stringIwNS_11char_traitsIwEENS0_IwEEEEiEEPvEEE10deallocateB8ne200100EPSA_m
FNA:0,67,_ZNSt3__19allocatorINS_11__tree_nodeINS_12__value_typeIPKvN7testing12_GLOBAL__N_115MockObjectStateEEEPvEEE10deallocateB8ne200100EPSA_m
FNA:0,1,_ZNSt3__19allocatorINS_11__tree_nodeINS_12__value_typeIi14test_map_valueEEPvEEE10deallocateB8ne200100EPS6_m
FNA:0,2,_ZNSt3__19allocatorINS_11__tree_nodeINS_12basic_stringIcNS_11char_traitsIcEENS0_IcEEEEPvEEE10deallocateB8ne200100EPS8_m
FNA:0,71,_ZNSt3__19allocatorINS_11__tree_nodeIPN7testing8internal25UntypedFunctionMockerBaseEPvEEE10deallocateB8ne200100EPS7_m
FNA:0,43,_ZNSt3__19allocatorINS_12basic_stringIcNS_11char_traitsIcEENS0_IcEEEEE10deallocateB8ne200100EPS5_m
FNA:0,3,_ZNSt3__19allocatorINS_12basic_stringIwNS_11char_traitsIwEENS0_IwEEEEE10deallocateB8ne200100EPS5_m
FNA:0,51,_ZNSt3__19allocatorINS_20__shared_ptr_pointerIP11test_resultNS_10shared_ptrIS2_E27__shared_ptr_default_deleteIS2_S2_EENS0_IS2_EEEEE10deallocateB8ne200100EPS9_m
FNA:0,91,_ZNSt3__19allocatorINS_20__shared_ptr_pointerIPKN7testing20CardinalityInterfaceENS_10shared_ptrIS4_E27__shared_ptr_default_deleteIS4_S4_EENS0_IS3_EEEEE10deallocateB8ne200100EPSB_m
FNA:0,0,_ZNSt3__19allocatorINS_20__shared_ptr_pointerIPKN7testing8internal2REENS_10shared_ptrIS5_E27__shared_ptr_default_deleteIS5_S5_EENS0_IS4_EEEEE10deallocateB8ne200100EPSC_m
FNA:0,2,_ZNSt3__19allocatorINS_20__shared_ptr_pointerIPN7testing11ExpectationENS_10shared_ptrIS3_E27__shared_ptr_default_deleteIS3_S3_EENS0_IS3_EEEEE10deallocateB8ne200100EPSA_m
FNA:0,1,_ZNSt3__19allocatorINS_20__shared_ptr_pointerIPN7testing15ActionInterfaceIF11test_resultN3fmt3v1216basic_format_argINS6_7contextEE6handleEEEENS_10shared_ptrISC_E27__shared_ptr_default_deleteISC_SC_EENS0_ISC_EEEEE10deallocateB8ne200100EPSJ_m
FNA:0,1,_ZNSt3__19allocatorINS_20__shared_ptr_pointerIPN7testing15ActionInterfaceIF11test_resultN3fmt3v1217basic_string_viewIcEEEEENS_10shared_ptrISA_E27__shared_ptr_default_deleteISA_SA_EENS0_ISA_EEEEE10deallocateB8ne200100EPSH_m
FNA:0,1,_ZNSt3__19allocatorINS_20__shared_ptr_pointerIPN7testing15ActionInterfaceIF11test_resultN3fmt3v129monostateEEEENS_10shared_ptrIS9_E27__shared_ptr_default_deleteIS9_S9_EENS0_IS9_EEEEE10deallocateB8ne200100EPSG_m
FNA:0,1,_ZNSt3__19allocatorINS_20__shared_ptr_pointerIPN7testing15ActionInterfaceIF11test_resultPKcEEENS_10shared_ptrIS8_E27__shared_ptr_default_deleteIS8_S8_EENS0_IS8_EEEEE10deallocateB8ne200100EPSF_m
FNA:0,4,_ZNSt3__19allocatorINS_20__shared_ptr_pointerIPN7testing15ActionInterfaceIF11test_resultPKvEEENS_10shared_ptrIS8_E27__shared_ptr_default_deleteIS8_S8_EENS0_IS8_EEEEE10deallocateB8ne200100EPSF_m
FNA:0,3,_ZNSt3__19allocatorINS_20__shared_ptr_pointerIPN7testing15ActionInterfaceIF11test_resultbEEENS_10shared_ptrIS6_E27__shared_ptr_default_deleteIS6_S6_EENS0_IS6_EEEEE10deallocateB8ne200100EPSD_m
FNA:0,1,_ZNSt3__19allocatorINS_20__shared_ptr_pointerIPN7testing15ActionInterfaceIF11test_resultcEEENS_10shared_ptrIS6_E27__shared_ptr_default_deleteIS6_S6_EENS0_IS6_EEEEE10deallocateB8ne200100EPSD_m
FNA:0,3,_ZNSt3__19allocatorINS_20__shared_ptr_pointerIPN7testing15ActionInterfaceIF11test_resultdEEENS_10shared_ptrIS6_E27__shared_ptr_default_deleteIS6_S6_EENS0_IS6_EEEEE10deallocateB8ne200100EPSD_m
FNA:0,3,_ZNSt3__19allocatorINS_20__shared_ptr_pointerIPN7testing15ActionInterfaceIF11test_resulteEEENS_10shared_ptrIS6_E27__shared_ptr_default_deleteIS6_S6_EENS0_IS6_EEEEE10deallocateB8ne200100EPSD_m
FNA:0,3,_ZNSt3__19allocatorINS_20__shared_ptr_pointerIPN7testing15ActionInterfaceIF11test_resultfEEENS_10shared_ptrIS6_E27__shared_ptr_default_deleteIS6_S6_EENS0_IS6_EEEEE10deallocateB8ne200100EPSD_m
FNA:0,9,_ZNSt3__19allocatorINS_20__shared_ptr_pointerIPN7testing15ActionInterfaceIF11test_resultiEEENS_10shared_ptrIS6_E27__shared_ptr_default_deleteIS6_S6_EENS0_IS6_EEEEE10deallocateB8ne200100EPSD_m
FNA:0,9,_ZNSt3__19allocatorINS_20__shared_ptr_pointerIPN7testing15ActionInterfaceIF11test_resultjEEENS_10shared_ptrIS6_E27__shared_ptr_default_deleteIS6_S6_EENS0_IS6_EEEEE10deallocateB8ne200100EPSD_m
FNA:0,6,_ZNSt3__19allocatorINS_20__shared_ptr_pointerIPN7testing15ActionInterfaceIF11test_resultxEEENS_10shared_ptrIS6_E27__shared_ptr_default_deleteIS6_S6_EENS0_IS6_EEEEE10deallocateB8ne200100EPSD_m
FNA:0,6,_ZNSt3__19allocatorINS_20__shared_ptr_pointerIPN7testing15ActionInterfaceIF11test_resultyEEENS_10shared_ptrIS6_E27__shared_ptr_default_deleteIS6_S6_EENS0_IS6_EEEEE10deallocateB8ne200100EPSD_m
FNA:0,3,_ZNSt3__19allocatorINS_20__shared_ptr_pointerIPN7testing15ActionInterfaceIFPcmEEENS_10shared_ptrIS6_E27__shared_ptr_default_deleteIS6_S6_EENS0_IS6_EEEEE10deallocateB8ne200100EPSD_m
FNA:0,4,_ZNSt3__19allocatorINS_20__shared_ptr_pointerIPN7testing15ActionInterfaceIFPimEEENS_10shared_ptrIS6_E27__shared_ptr_default_deleteIS6_S6_EENS0_IS6_EEEEE10deallocateB8ne200100EPSD_m
FNA:0,3,_ZNSt3__19allocatorINS_20__shared_ptr_pointerIPN7testing15ActionInterfaceIFlPKvlEEENS_10shared_ptrIS7_E27__shared_ptr_default_deleteIS7_S7_EENS0_IS7_EEEEE10deallocateB8ne200100EPSE_m
FNA:0,2,_ZNSt3__19allocatorINS_20__shared_ptr_pointerIPN7testing15ActionInterfaceIFmmEEENS_10shared_ptrIS5_E27__shared_ptr_default_deleteIS5_S5_EENS0_IS5_EEEEE10deallocateB8ne200100EPSC_m
FNA:0,1,_ZNSt3__19allocatorINS_20__shared_ptr_pointerIPN7testing8internal16TypedExpectationIF11test_resultN3fmt3v1216basic_format_argINS7_7contextEE6handleEEEENS_10shared_ptrINS3_15ExpectationBaseEE27__shared_ptr_default_deleteISG_SD_EENS0_ISD_EEEEE10deallocateB8ne200100EPSL_m
FNA:0,1,_ZNSt3__19allocatorINS_20__shared_ptr_pointerIPN7testing8internal16TypedExpectationIF11test_resultN3fmt3v1217basic_string_viewIcEEEEENS_10shared_ptrINS3_15ExpectationBaseEE27__shared_ptr_default_deleteISE_SB_EENS0_ISB_EEEEE10deallocateB8ne200100EPSJ_m
FNA:0,1,_ZNSt3__19allocatorINS_20__shared_ptr_pointerIPN7testing8internal16TypedExpectationIF11test_resultN3fmt3v129monostateEEEENS_10shared_ptrINS3_15ExpectationBaseEE27__shared_ptr_default_deleteISD_SA_EENS0_ISA_EEEEE10deallocateB8ne200100EPSI_m
FNA:0,1,_ZNSt3__19allocatorINS_20__shared_ptr_pointerIPN7testing8internal16TypedExpectationIF11test_resultPKcEEENS_10shared_ptrINS3_15ExpectationBaseEE27__shared_ptr_default_deleteISC_S9_EENS0_IS9_EEEEE10deallocateB8ne200100EPSH_m
FNA:0,4,_ZNSt3__19allocatorINS_20__shared_ptr_pointerIPN7testing8internal16TypedExpectationIF11test_resultPKvEEENS_10shared_ptrINS3_15ExpectationBaseEE27__shared_ptr_default_deleteISC_S9_EENS0_IS9_EEEEE10deallocateB8ne200100EPSH_m
FNA:0,3,_ZNSt3__19allocatorINS_20__shared_ptr_pointerIPN7testing8internal16TypedExpectationIF11test_resultbEEENS_10shared_ptrINS3_15ExpectationBaseEE27__shared_ptr_default_deleteISA_S7_EENS0_IS7_EEEEE10deallocateB8ne200100EPSF_m
FNA:0,1,_ZNSt3__19allocatorINS_20__shared_ptr_pointerIPN7testing8internal16TypedExpectationIF11test_resultcEEENS_10shared_ptrINS3_15ExpectationBaseEE27__shared_ptr_default_deleteISA_S7_EENS0_IS7_EEEEE10deallocateB8ne200100EPSF_m
FNA:0,3,_ZNSt3__19allocatorINS_20__shared_ptr_pointerIPN7testing8internal16TypedExpectationIF11test_resultdEEENS_10shared_ptrINS3_15ExpectationBaseEE27__shared_ptr_default_deleteISA_S7_EENS0_IS7_EEEEE10deallocateB8ne200100EPSF_m
FNA:0,3,_ZNSt3__19allocatorINS_20__shared_ptr_pointerIPN7testing8internal16TypedExpectationIF11test_resulteEEENS_10shared_ptrINS3_15ExpectationBaseEE27__shared_ptr_default_deleteISA_S7_EENS0_IS7_EEEEE10deallocateB8ne200100EPSF_m
FNA:0,3,_ZNSt3__19allocatorINS_20__shared_ptr_pointerIPN7testing8internal16TypedExpectationIF11test_resultfEEENS_10shared_ptrINS3_15ExpectationBaseEE27__shared_ptr_default_deleteISA_S7_EENS0_IS7_EEEEE10deallocateB8ne200100EPSF_m
FNA:0,9,_ZNSt3__19allocatorINS_20__shared_ptr_pointerIPN7testing8internal16TypedExpectationIF11test_resultiEEENS_10shared_ptrINS3_15ExpectationBaseEE27__shared_ptr_default_deleteISA_S7_EENS0_IS7_EEEEE10deallocateB8ne200100EPSF_m
FNA:0,9,_ZNSt3__19allocatorINS_20__shared_ptr_pointerIPN7testing8internal16TypedExpectationIF11test_resultjEEENS_10shared_ptrINS3_15ExpectationBaseEE27__shared_ptr_default_deleteISA_S7_EENS0_IS7_EEEEE10deallocateB8ne200100EPSF_m
FNA:0,6,_ZNSt3__19allocatorINS_20__shared_ptr_pointerIPN7testing8internal16TypedExpectationIF11test_resultxEEENS_10shared_ptrINS3_15ExpectationBaseEE27__shared_ptr_default_deleteISA_S7_EENS0_IS7_EEEEE10deallocateB8ne200100EPSF_m
FNA:0,6,_ZNSt3__19allocatorINS_20__shared_ptr_pointerIPN7testing8internal16TypedExpectationIF11test_resultyEEENS_10shared_ptrINS3_15ExpectationBaseEE27__shared_ptr_default_deleteISA_S7_EENS0_IS7_EEEEE10deallocateB8ne200100EPSF_m
FNA:0,3,_ZNSt3__19allocatorINS_20__shared_ptr_pointerIPN7testing8internal16TypedExpectationIFPcmEEENS_10shared_ptrINS3_15ExpectationBaseEE27__shared_ptr_default_deleteISA_S7_EENS0_IS7_EEEEE10deallocateB8ne200100EPSF_m
FNA:0,4,_ZNSt3__19allocatorINS_20__shared_ptr_pointerIPN7testing8internal16TypedExpectationIFPimEEENS_10shared_ptrINS3_15ExpectationBaseEE27__shared_ptr_default_deleteISA_S7_EENS0_IS7_EEEEE10deallocateB8ne200100EPSF_m
FNA:0,3,_ZNSt3__19allocatorINS_20__shared_ptr_pointerIPN7testing8internal16TypedExpectationIFlPKvlEEENS_10shared_ptrINS3_15ExpectationBaseEE27__shared_ptr_default_deleteISB_S8_EENS0_IS8_EEEEE10deallocateB8ne200100EPSG_m
FNA:0,8,_ZNSt3__19allocatorINS_20__shared_ptr_pointerIPN7testing8internal16TypedExpectationIFmmEEENS_10shared_ptrINS3_15ExpectationBaseEE27__shared_ptr_default_deleteIS9_S6_EENS0_IS6_EEEEE10deallocateB8ne200100EPSE_m
FNA:0,3,_ZNSt3__19allocatorINS_20__shared_ptr_pointerIPN7testing8internal16TypedExpectationIFvPcmEEENS_10shared_ptrINS3_15ExpectationBaseEE27__shared_ptr_default_deleteISA_S7_EENS0_IS7_EEEEE10deallocateB8ne200100EPSF_m
FNA:0,4,_ZNSt3__19allocatorINS_20__shared_ptr_pointerIPN7testing8internal16TypedExpectationIFvPimEEENS_10shared_ptrINS3_15ExpectationBaseEE27__shared_ptr_default_deleteISA_S7_EENS0_IS7_EEEEE10deallocateB8ne200100EPSF_m
FNA:0,3,_ZNSt3__19allocatorINS_20__shared_ptr_pointerIPPcNS_10shared_ptrIS2_E27__shared_ptr_default_deleteIS2_S2_EENS0_IS2_EEEEE10deallocateB8ne200100EPS9_m
FNA:0,4,_ZNSt3__19allocatorINS_20__shared_ptr_pointerIPPiNS_10shared_ptrIS2_E27__shared_ptr_default_deleteIS2_S2_EENS0_IS2_EEEEE10deallocateB8ne200100EPS9_m
FNA:0,3,_ZNSt3__19allocatorINS_20__shared_ptr_pointerIPiNS_10shared_ptrIiE27__shared_ptr_default_deleteIiiEENS0_IiEEEEE10deallocateB8ne200100EPS8_m
FNA:0,3,_ZNSt3__19allocatorINS_20__shared_ptr_pointerIPlNS_10shared_ptrIlE27__shared_ptr_default_deleteIllEENS0_IlEEEEE10deallocateB8ne200100EPS8_m
FNA:0,0,_ZNSt3__19allocatorINS_4pairImmEEE10deallocateB8ne200100EPS2_m
FNA:0,0,_ZNSt3__19allocatorINS_6vectorIN7testing8internal13edit_distance8EditTypeENS0_IS5_EEEEE10deallocateB8ne200100EPS7_m
FNA:0,2,_ZNSt3__19allocatorINS_6vectorIcNS0_IcEEEEE10deallocateB8ne200100EPS3_m
FNA:0,0,_ZNSt3__19allocatorINS_6vectorIdNS0_IdEEEEE10deallocateB8ne200100EPS3_m
FNA:0,2,_ZNSt3__19allocatorINS_6vectorIiNS0_IiEEEEE10deallocateB8ne200100EPS3_m
FNA:0,80,_ZNSt3__19allocatorIPKN7testing8internal15ExpectationBaseEE10deallocateB8ne200100EPS5_m
FNA:0,77,_ZNSt3__19allocatorIPKvE10deallocateB8ne200100EPS2_m
FNA:0,0,_ZNSt3__19allocatorIPN7testing11EnvironmentEE10deallocateB8ne200100EPS3_m
FNA:0,1,_ZNSt3__19allocatorIPN7testing17TestEventListenerEE10deallocateB8ne200100EPS3_m
FNA:0,123,_ZNSt3__19allocatorIPN7testing8TestInfoEE10deallocateB8ne200100EPS3_m
FNA:0,76,_ZNSt3__19allocatorIPN7testing8internal15ExpectationBaseEE10deallocateB8ne200100EPS4_m
FNA:0,0,_ZNSt3__19allocatorIPN7testing8internal30ParameterizedTestSuiteInfoBaseEE10deallocateB8ne200100EPS4_m
FNA:0,20,_ZNSt3__19allocatorIPN7testing9TestSuiteEE10deallocateB8ne200100EPS3_m
FNA:0,0,_ZNSt3__19allocatorIPNS_16__hash_node_baseIPNS_11__hash_nodeINS_17__hash_value_typeImN7testing8internal12CallReactionEEEPvEEEEE10deallocateB8ne200100EPSC_m
FNA:0,0,_ZNSt3__19allocatorIPcE10deallocateB8ne200100EPS1_m
FNA:0,2,_ZNSt3__19allocatorIPiE10deallocateB8ne200100EPS1_m
FNA:0,3851,_ZNSt3__19allocatorIcE10deallocateB8ne200100EPcm
FNA:0,0,_ZNSt3__19allocatorIdE10deallocateB8ne200100EPdm
FNA:0,2,_ZNSt3__19allocatorIfE10deallocateB8ne200100EPfm
FNA:0,177,_ZNSt3__19allocatorIiE10deallocateB8ne200100EPim
FNA:0,2,_ZNSt3__19allocatorImE10deallocateB8ne200100EPmm
FNA:0,42,_ZNSt3__19allocatorIwE10deallocateB8ne200100EPwm
FNL:1,147
FNA:1,4,_ZNKSt3__19allocatorI17basic_test_stringIcEE8max_sizeB8ne200100Ev
FNA:1,2,_ZNKSt3__19allocatorI2tmE8max_sizeB8ne200100Ev
FNA:1,4,_ZNKSt3__19allocatorI9test_enumE8max_sizeB8ne200100Ev
FNA:1,62,_ZNKSt3__19allocatorIN3fmt3v1216basic_format_argINS2_7contextEEEE8max_sizeB8ne200100Ev
FNA:1,18,_ZNKSt3__19allocatorIN3fmt3v126detail14named_arg_infoIcEEE8max_sizeB8ne200100Ev
FNA:1,0,_ZNKSt3__19allocatorIN7testing12TestPropertyEE8max_sizeB8ne200100Ev
FNA:1,52,_ZNKSt3__19allocatorIN7testing14TestPartResultEE8max_sizeB8ne200100Ev
FNA:1,0,_ZNKSt3__19allocatorIN7testing8internal13edit_distance8EditTypeEE8max_sizeB8ne200100Ev
FNA:1,0,_ZNKSt3__19allocatorIN7testing8internal9TraceInfoEE8max_sizeB8ne200100Ev
FNA:1,0,_ZNKSt3__19allocatorINS_10__function6__funcI12check_customNS0_IS3_EEF11test_resultN3fmt3v1216basic_format_argINS7_7contextEE6handleEEEEE8max_sizeB8ne200100Ev
FNA:1,0,_ZNKSt3__19allocatorINS_10__function6__funcIN7testing6ActionIF11test_resultN3fmt3v1216basic_format_argINS7_7contextEE6handleEEE13ActionAdapterENS0_ISE_EESC_EEE8max_sizeB8ne200100Ev
FNA:1,0,_ZNKSt3__19allocatorINS_10__function6__funcIN7testing6ActionIF11test_resultN3fmt3v1217basic_string_viewIcEEEE13ActionAdapterENS0_ISC_EESA_EEE8max_sizeB8ne200100Ev
FNA:1,0,_ZNKSt3__19allocatorINS_10__function6__funcIN7testing6ActionIF11test_resultN3fmt3v129monostateEEE13ActionAdapterENS0_ISB_EES9_EEE8max_sizeB8ne200100Ev
FNA:1,0,_ZNKSt3__19allocatorINS_10__function6__funcIN7testing6ActionIF11test_resultPKcEE13ActionAdapterENS0_ISA_EES8_EEE8max_sizeB8ne200100Ev
FNA:1,0,_ZNKSt3__19allocatorINS_10__function6__funcIN7testing6ActionIF11test_resultPKvEE13ActionAdapterENS0_ISA_EES8_EEE8max_sizeB8ne200100Ev
FNA:1,0,_ZNKSt3__19allocatorINS_10__function6__funcIN7testing6ActionIF11test_resultbEE13ActionAdapterENS0_IS8_EES6_EEE8max_sizeB8ne200100Ev
FNA:1,0,_ZNKSt3__19allocatorINS_10__function6__funcIN7testing6ActionIF11test_resultcEE13ActionAdapterENS0_IS8_EES6_EEE8max_sizeB8ne200100Ev
FNA:1,0,_ZNKSt3__19allocatorINS_10__function6__funcIN7testing6ActionIF11test_resultdEE13ActionAdapterENS0_IS8_EES6_EEE8max_sizeB8ne200100Ev
FNA:1,0,_ZNKSt3__19allocatorINS_10__function6__funcIN7testing6ActionIF11test_resulteEE13ActionAdapterENS0_IS8_EES6_EEE8max_sizeB8ne200100Ev
FNA:1,0,_ZNKSt3__19allocatorINS_10__function6__funcIN7testing6ActionIF11test_resultfEE13ActionAdapterENS0_IS8_EES6_EEE8max_sizeB8ne200100Ev
FNA:1,0,_ZNKSt3__19allocatorINS_10__function6__funcIN7testing6ActionIF11test_resultiEE13ActionAdapterENS0_IS8_EES6_EEE8max_sizeB8ne200100Ev
FNA:1,0,_ZNKSt3__19allocatorINS_10__function6__funcIN7testing6ActionIF11test_resultjEE13ActionAdapterENS0_IS8_EES6_EEE8max_sizeB8ne200100Ev
FNA:1,0,_ZNKSt3__19allocatorINS_10__function6__funcIN7testing6ActionIF11test_resultxEE13ActionAdapterENS0_IS8_EES6_EEE8max_sizeB8ne200100Ev
FNA:1,0,_ZNKSt3__19allocatorINS_10__function6__funcIN7testing6ActionIF11test_resultyEE13ActionAdapterENS0_IS8_EES6_EEE8max_sizeB8ne200100Ev
FNA:1,0,_ZNKSt3__19allocatorINS_10__function6__funcIN7testing6ActionIFPcmEE13ActionAdapterENS0_IS8_EES6_EEE8max_sizeB8ne200100Ev
FNA:1,0,_ZNKSt3__19allocatorINS_10__function6__funcIN7testing6ActionIFPimEE13ActionAdapterENS0_IS8_EES6_EEE8max_sizeB8ne200100Ev
FNA:1,0,_ZNKSt3__19allocatorINS_10__function6__funcIN7testing6ActionIFlPKvlEE13ActionAdapterENS0_IS9_EES7_EEE8max_sizeB8ne200100Ev
FNA:1,0,_ZNKSt3__19allocatorINS_10__function6__funcIN7testing6ActionIFmmEE13ActionAdapterENS0_IS7_EES5_EEE8max_sizeB8ne200100Ev
FNA:1,0,_ZNKSt3__19allocatorINS_10__function6__funcIZN11mock_bufferIcEC1EPcmEUlmE_NS0_IS6_EEFmmEEEE8max_sizeB8ne200100Ev
FNA:1,0,_ZNKSt3__19allocatorINS_10__function6__funcIZN11mock_bufferIiEC1EPimEUlmE_NS0_IS6_EEFmmEEEE8max_sizeB8ne200100Ev
FNA:1,0,_ZNKSt3__19allocatorINS_10__function6__funcIZN31buffer_test_append_partial_Test8TestBodyEvE3$_0NS0_IS4_EEFmmEEEE8max_sizeB8ne200100Ev
FNA:1,0,_ZNKSt3__19allocatorINS_10__function6__funcIZNK7testing8internal11ThrowActionISt9exceptionEcvNS3_6ActionIFT_DpT0_EEEIvJPcmEEEvEUlSF_mE_NS0_ISG_EEFvSF_mEEEE8max_sizeB8ne200100Ev
FNA:1,152,_ZNKSt3__19allocatorINS_10shared_ptrIN7testing8internal15ExpectationBaseEEEE8max_sizeB8ne200100Ev
FNA:1,55,_ZNKSt3__19allocatorINS_11__hash_nodeINS_17__hash_value_typeImN7testing8internal12CallReactionEEEPvEEE8max_sizeB8ne200100Ev
FNA:1,0,_ZNKSt3__19allocatorINS_11__list_nodeINS_4pairIcPKcEEPvEEE8max_sizeB8ne200100Ev
FNA:1,2,_ZNKSt3__19allocatorINS_11__list_nodeIcPvEEE8max_sizeB8ne200100Ev
FNA:1,3,_ZNKSt3__19allocatorINS_11__tree_nodeIN7testing11ExpectationEPvEEE8max_sizeB8ne200100Ev
FNA:1,1,_ZNKSt3__19allocatorINS_11__tree_nodeINS_12__value_typeINS_10error_codeEiEEPvEEE8max_sizeB8ne200100Ev
FNA:1,0,_ZNKSt3__19allocatorINS_11__tree_nodeINS_12__value_typeINS_12basic_stringIcNS_11char_traitsIcEENS0_IcEEEEN7testing8internal34TypeParameterizedTestSuiteRegistry30TypeParameterizedTestSuiteInfoEEEPvEEE8max_sizeB8ne200100Ev
FNA:1,2,_ZNKSt3__19allocatorINS_11__tree_nodeINS_12__value_typeINS_12basic_stringIcNS_11char_traitsIcEENS0_IcEEEEiEEPvEEE8max_sizeB8ne200100Ev
FNA:1,0,_ZNKSt3__19allocatorINS_11__tree_nodeINS_12__value_typeINS_12basic_stringIcNS_11char_traitsIcEENS0_IcEEEEmEEPvEEE8max_sizeB8ne200100Ev
FNA:1,2,_ZNKSt3__19allocatorINS_11__tree_nodeINS_12__value_typeINS_12basic_stringIwNS_11char_traitsIwEENS0_IwEEEEiEEPvEEE8max_sizeB8ne200100Ev
FNA:1,67,_ZNKSt3__19allocatorINS_11__tree_nodeINS_12__value_typeIPKvN7testing12_GLOBAL__N_115MockObjectStateEEEPvEEE8max_sizeB8ne200100Ev
FNA:1,1,_ZNKSt3__19allocatorINS_11__tree_nodeINS_12__value_typeIi14test_map_valueEEPvEEE8max_sizeB8ne200100Ev
FNA:1,2,_ZNKSt3__19allocatorINS_11__tree_nodeINS_12basic_stringIcNS_11char_traitsIcEENS0_IcEEEEPvEEE8max_sizeB8ne200100Ev
FNA:1,71,_ZNKSt3__19allocatorINS_11__tree_nodeIPN7testing8internal25UntypedFunctionMockerBaseEPvEEE8max_sizeB8ne200100Ev
FNA:1,126,_ZNKSt3__19allocatorINS_12basic_stringIcNS_11char_traitsIcEENS0_IcEEEEE8max_sizeB8ne200100Ev
FNA:1,6,_ZNKSt3__19allocatorINS_12basic_stringIwNS_11char_traitsIwEENS0_IwEEEEE8max_sizeB8ne200100Ev
FNA:1,0,_ZNKSt3__19allocatorINS_4pairImmEEE8max_sizeB8ne200100Ev
FNA:1,0,_ZNKSt3__19allocatorINS_6vectorIN7testing8internal13edit_distance8EditTypeENS0_IS5_EEEEE8max_sizeB8ne200100Ev
FNA:1,4,_ZNKSt3__19allocatorINS_6vectorIcNS0_IcEEEEE8max_sizeB8ne200100Ev
FNA:1,0,_ZNKSt3__19allocatorINS_6vectorIdNS0_IdEEEEE8max_sizeB8ne200100Ev
FNA:1,4,_ZNKSt3__19allocatorINS_6vectorIiNS0_IiEEEEE8max_sizeB8ne200100Ev
FNA:1,160,_ZNKSt3__19allocatorIPKN7testing8internal15ExpectationBaseEE8max_sizeB8ne200100Ev
FNA:1,154,_ZNKSt3__19allocatorIPKvE8max_sizeB8ne200100Ev
FNA:1,0,_ZNKSt3__19allocatorIPN7testing11EnvironmentEE8max_sizeB8ne200100Ev
FNA:1,40,_ZNKSt3__19allocatorIPN7testing17TestEventListenerEE8max_sizeB8ne200100Ev
FNA:1,366,_ZNKSt3__19allocatorIPN7testing8TestInfoEE8max_sizeB8ne200100Ev
FNA:1,152,_ZNKSt3__19allocatorIPN7testing8internal15ExpectationBaseEE8max_sizeB8ne200100Ev
FNA:1,78,_ZNKSt3__19allocatorIPN7testing9TestSuiteEE8max_sizeB8ne200100Ev
FNA:1,3,_ZNKSt3__19allocatorIPNS_16__hash_node_baseIPNS_11__hash_nodeINS_17__hash_value_typeImN7testing8internal12CallReactionEEEPvEEEEE8max_sizeB8ne200100Ev
FNA:1,0,_ZNKSt3__19allocatorIPcE8max_sizeB8ne200100Ev
FNA:1,2,_ZNKSt3__19allocatorIPiE8max_sizeB8ne200100Ev
FNA:1,69667,_ZNKSt3__19allocatorIcE8max_sizeB8ne200100Ev
FNA:1,0,_ZNKSt3__19allocatorIdE8max_sizeB8ne200100Ev
FNA:1,4,_ZNKSt3__19allocatorIfE8max_sizeB8ne200100Ev
FNA:1,510,_ZNKSt3__19allocatorIiE8max_sizeB8ne200100Ev
FNA:1,4,_ZNKSt3__19allocatorImE8max_sizeB8ne200100Ev
FNA:1,18,_ZNKSt3__19allocatorIwE8max_sizeB8ne200100Ev
FNL:2,152
FNA:2,4,_ZNSt3__19allocatorI17basic_test_stringIcEE9constructB8ne200100IS2_JRKS2_EEEvPT_DpOT0_
FNA:2,7,_ZNSt3__19allocatorI2tmE9constructB8ne200100IS1_JRKS1_EEEvPT_DpOT0_
FNA:2,4,_ZNSt3__19allocatorI9test_enumE9constructB8ne200100IS1_JRKS1_EEEvPT_DpOT0_
FNA:2,2,_ZNSt3__19allocatorIN3fmt3v1216basic_format_argINS2_7contextEEEE9constructB8ne200100IS5_JRA11_KcEEEvPT_DpOT0_
FNA:2,1,_ZNSt3__19allocatorIN3fmt3v1216basic_format_argINS2_7contextEEEE9constructB8ne200100IS5_JRA15_KcEEEvPT_DpOT0_
FNA:2,6,_ZNSt3__19allocatorIN3fmt3v1216basic_format_argINS2_7contextEEEE9constructB8ne200100IS5_JRK11custom_typeEEEvPT_DpOT0_
FNA:2,2,_ZNSt3__19allocatorIN3fmt3v1216basic_format_argINS2_7contextEEEE9constructB8ne200100IS5_JRK13to_stringableEEEvPT_DpOT0_
FNA:2,0,_ZNSt3__19allocatorIN3fmt3v1216basic_format_argINS2_7contextEEEE9constructB8ne200100IS5_JRK14copy_throwableEEEvPT_DpOT0_
FNA:2,1,_ZNSt3__19allocatorIN3fmt3v1216basic_format_argINS2_7contextEEEE9constructB8ne200100IS5_JRKNS2_17basic_string_viewIcEEEEEvPT_DpOT0_
FNA:2,7,_ZNSt3__19allocatorIN3fmt3v1216basic_format_argINS2_7contextEEEE9constructB8ne200100IS5_JRKNS_12basic_stringIcNS_11char_traitsIcEENS0_IcEEEEEEEvPT_DpOT0_
FNA:2,2,_ZNSt3__19allocatorIN3fmt3v1216basic_format_argINS2_7contextEEEE9constructB8ne200100IS5_JRKfEEEvPT_DpOT0_
FNA:2,8,_ZNSt3__19allocatorIN3fmt3v1216basic_format_argINS2_7contextEEEE9constructB8ne200100IS5_JRKiEEEvPT_DpOT0_
FNA:2,6,_ZNSt3__19allocatorIN3fmt3v1216basic_format_argINS2_7contextEEEE9constructB8ne200100IS5_JS5_EEEvPT_DpOT0_
FNA:2,9,_ZNSt3__19allocatorIN3fmt3v126detail14named_arg_infoIcEEE9constructB8ne200100IS5_JS5_EEEvPT_DpOT0_
FNA:2,0,_ZNSt3__19allocatorIN7testing12TestPropertyEE9constructB8ne200100IS2_JRKS2_EEEvPT_DpOT0_
FNA:2,0,_ZNSt3__19allocatorIN7testing12TestPropertyEE9constructB8ne200100IS2_JS2_EEEvPT_DpOT0_
FNA:2,26,_ZNSt3__19allocatorIN7testing14TestPartResultEE9constructB8ne200100IS2_JRKS2_EEEvPT_DpOT0_
FNA:2,0,_ZNSt3__19allocatorIN7testing14TestPartResultEE9constructB8ne200100IS2_JS2_EEEvPT_DpOT0_
FNA:2,0,_ZNSt3__19allocatorIN7testing8internal13edit_distance8EditTypeEE9constructB8ne200100IS4_JEEEvPT_DpOT0_
FNA:2,0,_ZNSt3__19allocatorIN7testing8internal13edit_distance8EditTypeEE9constructB8ne200100IS4_JRKS4_EEEvPT_DpOT0_
FNA:2,0,_ZNSt3__19allocatorIN7testing8internal9TraceInfoEE9constructB8ne200100IS3_JRKS3_EEEvPT_DpOT0_
FNA:2,0,_ZNSt3__19allocatorIN7testing8internal9TraceInfoEE9constructB8ne200100IS3_JS3_EEEvPT_DpOT0_
FNA:2,76,_ZNSt3__19allocatorINS_10shared_ptrIN7testing8internal15ExpectationBaseEEEE9constructB8ne200100IS5_JRKS5_EEEvPT_DpOT0_
FNA:2,0,_ZNSt3__19allocatorINS_11__hash_nodeINS_17__hash_value_typeImN7testing8internal12CallReactionEEEPvEEE9constructB8ne200100INS_4pairIKmS5_EEJRKNS_21piecewise_construct_tENS_5tupleIJOmEEENSH_IJEEEEEEvPT_DpOT0_
FNA:2,55,_ZNSt3__19allocatorINS_11__hash_nodeINS_17__hash_value_typeImN7testing8internal12CallReactionEEEPvEEE9constructB8ne200100INS_4pairIKmS5_EEJRKNS_21piecewise_construct_tENS_5tupleIJRSC_EEENSH_IJEEEEEEvPT_DpOT0_
FNA:2,0,_ZNSt3__19allocatorINS_11__list_nodeINS_4pairIcPKcEEPvEEE9constructB8ne200100IS5_JS5_EEEvPT_DpOT0_
FNA:2,2,_ZNSt3__19allocatorINS_11__list_nodeIcPvEEE9constructB8ne200100IcJRKcEEEvPT_DpOT0_
FNA:2,3,_ZNSt3__19allocatorINS_11__tree_nodeIN7testing11ExpectationEPvEEE9constructB8ne200100IS3_JRKS3_EEEvPT_DpOT0_
FNA:2,1,_ZNSt3__19allocatorINS_11__tree_nodeINS_12__value_typeINS_10error_codeEiEEPvEEE9constructB8ne200100INS_4pairIKS3_iEEJRKSB_EEEvPT_DpOT0_
FNA:2,0,_ZNSt3__19allocatorINS_11__tree_nodeINS_12__value_typeINS_12basic_stringIcNS_11char_traitsIcEENS0_IcEEEEN7testing8internal34TypeParameterizedTestSuiteRegistry30TypeParameterizedTestSuiteInfoEEEPvEEE9constructB8ne200100INS_4pairIKS7_SB_EEJS7_SB_EEEvPT_DpOT0_
FNA:2,2,_ZNSt3__19allocatorINS_11__tree_nodeINS_12__value_typeINS_12basic_stringIcNS_11char_traitsIcEENS0_IcEEEEiEEPvEEE9constructB8ne200100INS_4pairIKS7_iEEJRKSF_EEEvPT_DpOT0_
FNA:2,0,_ZNSt3__19allocatorINS_11__tree_nodeINS_12__value_typeINS_12basic_stringIcNS_11char_traitsIcEENS0_IcEEEEmEEPvEEE9constructB8ne200100INS_4pairIKS7_mEEJRKNS_21piecewise_construct_tENS_5tupleIJRSE_EEENSJ_IJEEEEEEvPT_DpOT0_
FNA:2,2,_ZNSt3__19allocatorINS_11__tree_nodeINS_12__value_typeINS_12basic_stringIwNS_11char_traitsIwEENS0_IwEEEEiEEPvEEE9constructB8ne200100INS_4pairIKS7_iEEJRKSF_EEEvPT_DpOT0_
FNA:2,67,_ZNSt3__19allocatorINS_11__tree_nodeINS_12__value_typeIPKvN7testing12_GLOBAL__N_115MockObjectStateEEEPvEEE9constructB8ne200100INS_4pairIKS4_S7_EEJRKNS_21piecewise_construct_tENS_5tupleIJRSE_EEENSJ_IJEEEEEEvPT_DpOT0_
FNA:2,1,_ZNSt3__19allocatorINS_11__tree_nodeINS_12__value_typeIi14test_map_valueEEPvEEE9constructB8ne200100INS_4pairIKiS3_EEJRKSB_EEEvPT_DpOT0_
FNA:2,2,_ZNSt3__19allocatorINS_11__tree_nodeINS_12basic_stringIcNS_11char_traitsIcEENS0_IcEEEEPvEEE9constructB8ne200100IS6_JRKS6_EEEvPT_DpOT0_
FNA:2,0,_ZNSt3__19allocatorINS_11__tree_nodeINS_12basic_stringIcNS_11char_traitsIcEENS0_IcEEEEPvEEE9constructB8ne200100IS6_JS6_EEEvPT_DpOT0_
FNA:2,71,_ZNSt3__19allocatorINS_11__tree_nodeIPN7testing8internal25UntypedFunctionMockerBaseEPvEEE9constructB8ne200100IS5_JRKS5_EEEvPT_DpOT0_
FNA:2,0,_ZNSt3__19allocatorINS_12basic_stringIcNS_11char_traitsIcEENS0_IcEEEEE9constructB8ne200100IS5_JRKPKcEEEvPT_DpOT0_
FNA:2,21,_ZNSt3__19allocatorINS_12basic_stringIcNS_11char_traitsIcEENS0_IcEEEEE9constructB8ne200100IS5_JRKS5_EEEvPT_DpOT0_
FNA:2,20,_ZNSt3__19allocatorINS_12basic_stringIcNS_11char_traitsIcEENS0_IcEEEEE9constructB8ne200100IS5_JRS5_EEEvPT_DpOT0_
FNA:2,38,_ZNSt3__19allocatorINS_12basic_stringIcNS_11char_traitsIcEENS0_IcEEEEE9constructB8ne200100IS5_JS5_EEEvPT_DpOT0_
FNA:2,5,_ZNSt3__19allocatorINS_12basic_stringIwNS_11char_traitsIwEENS0_IwEEEEE9constructB8ne200100IS5_JRKS5_EEEvPT_DpOT0_
FNA:2,0,_ZNSt3__19allocatorINS_4pairImmEEE9constructB8ne200100IS2_JS2_EEEvPT_DpOT0_
FNA:2,0,_ZNSt3__19allocatorINS_6vectorIN7testing8internal13edit_distance8EditTypeENS0_IS5_EEEEE9constructB8ne200100IS7_JRKS7_EEEvPT_DpOT0_
FNA:2,3,_ZNSt3__19allocatorINS_6vectorIcNS0_IcEEEEE9constructB8ne200100IS3_JRKS3_EEEvPT_DpOT0_
FNA:2,0,_ZNSt3__19allocatorINS_6vectorIdNS0_IdEEEEE9constructB8ne200100IS3_JRKS3_EEEvPT_DpOT0_
FNA:2,5,_ZNSt3__19allocatorINS_6vectorIiNS0_IiEEEEE9constructB8ne200100IS3_JRKS3_EEEvPT_DpOT0_
FNA:2,84,_ZNSt3__19allocatorIPKN7testing8internal15ExpectationBaseEE9constructB8ne200100IS5_JRKS5_EEEvPT_DpOT0_
FNA:2,77,_ZNSt3__19allocatorIPKvE9constructB8ne200100IS2_JS2_EEEvPT_DpOT0_
FNA:2,0,_ZNSt3__19allocatorIPN7testing11EnvironmentEE9constructB8ne200100IS3_JRKS3_EEEvPT_DpOT0_
FNA:2,20,_ZNSt3__19allocatorIPN7testing17TestEventListenerEE9constructB8ne200100IS3_JRKS3_EEEvPT_DpOT0_
FNA:2,532,_ZNSt3__19allocatorIPN7testing8TestInfoEE9constructB8ne200100IS3_JRKS3_EEEvPT_DpOT0_
FNA:2,79,_ZNSt3__19allocatorIPN7testing8internal15ExpectationBaseEE9constructB8ne200100IS4_JRKS4_EEEvPT_DpOT0_
FNA:2,60,_ZNSt3__19allocatorIPN7testing9TestSuiteEE9constructB8ne200100IS3_JRKS3_EEEvPT_DpOT0_
FNA:2,0,_ZNSt3__19allocatorIPN7testing9TestSuiteEE9constructB8ne200100IS3_JS3_EEEvPT_DpOT0_
FNA:2,0,_ZNSt3__19allocatorIPcE9constructB8ne200100IS1_JS1_EEEvPT_DpOT0_
FNA:2,0,_ZNSt3__19allocatorIPiE9constructB8ne200100IS1_JRS1_EEEvPT_DpOT0_
FNA:2,2,_ZNSt3__19allocatorIPiE9constructB8ne200100IS1_JS1_EEEvPT_DpOT0_
FNA:2,3000,_ZNSt3__19allocatorIcE9constructB8ne200100IcJEEEvPT_DpOT0_
FNA:2,25,_ZNSt3__19allocatorIcE9constructB8ne200100IcJRKcEEEvPT_DpOT0_
FNA:2,0,_ZNSt3__19allocatorIdE9constructB8ne200100IdJEEEvPT_DpOT0_
FNA:2,2,_ZNSt3__19allocatorIfE9constructB8ne200100IfJfEEEvPT_DpOT0_
FNA:2,70,_ZNSt3__19allocatorIiE9constructB8ne200100IiJRKiEEEvPT_DpOT0_
FNA:2,600,_ZNSt3__19allocatorIiE9constructB8ne200100IiJiEEEvPT_DpOT0_
FNA:2,0,_ZNSt3__19allocatorImE9constructB8ne200100ImJRKmEEEvPT_DpOT0_
FNA:2,0,_ZNSt3__19allocatorImE9constructB8ne200100ImJmEEEvPT_DpOT0_
FNA:2,3,_ZNSt3__19allocatorIwE9constructB8ne200100IwJRKwEEEvPT_DpOT0_
FNL:3,156
FNA:3,4,_ZNSt3__19allocatorI17basic_test_stringIcEE7destroyB8ne200100EPS2_
FNA:3,7,_ZNSt3__19allocatorI2tmE7destroyB8ne200100EPS1_
FNA:3,4,_ZNSt3__19allocatorI9test_enumE7destroyB8ne200100EPS1_
FNA:3,35,_ZNSt3__19allocatorIN3fmt3v1216basic_format_argINS2_7contextEEEE7destroyB8ne200100EPS5_
FNA:3,9,_ZNSt3__19allocatorIN3fmt3v126detail14named_arg_infoIcEEE7destroyB8ne200100EPS5_
FNA:3,0,_ZNSt3__19allocatorIN7testing12TestPropertyEE7destroyB8ne200100EPS2_
FNA:3,26,_ZNSt3__19allocatorIN7testing14TestPartResultEE7destroyB8ne200100EPS2_
FNA:3,0,_ZNSt3__19allocatorIN7testing8internal13edit_distance8EditTypeEE7destroyB8ne200100EPS4_
FNA:3,0,_ZNSt3__19allocatorIN7testing8internal9TraceInfoEE7destroyB8ne200100EPS3_
FNA:3,76,_ZNSt3__19allocatorINS_10shared_ptrIN7testing8internal15ExpectationBaseEEEE7destroyB8ne200100EPS5_
FNA:3,59,_ZNSt3__19allocatorINS_12basic_stringIcNS_11char_traitsIcEENS0_IcEEEEE7destroyB8ne200100EPS5_
FNA:3,5,_ZNSt3__19allocatorINS_12basic_stringIwNS_11char_traitsIwEENS0_IwEEEEE7destroyB8ne200100EPS5_
FNA:3,0,_ZNSt3__19allocatorINS_4pairImmEEE7destroyB8ne200100EPS2_
FNA:3,0,_ZNSt3__19allocatorINS_6vectorIN7testing8internal13edit_distance8EditTypeENS0_IS5_EEEEE7destroyB8ne200100EPS7_
FNA:3,3,_ZNSt3__19allocatorINS_6vectorIcNS0_IcEEEEE7destroyB8ne200100EPS3_
FNA:3,0,_ZNSt3__19allocatorINS_6vectorIdNS0_IdEEEEE7destroyB8ne200100EPS3_
FNA:3,5,_ZNSt3__19allocatorINS_6vectorIiNS0_IiEEEEE7destroyB8ne200100EPS3_
FNA:3,84,_ZNSt3__19allocatorIPKN7testing8internal15ExpectationBaseEE7destroyB8ne200100EPS5_
FNA:3,77,_ZNSt3__19allocatorIPKvE7destroyB8ne200100EPS2_
FNA:3,0,_ZNSt3__19allocatorIPN7testing11EnvironmentEE7destroyB8ne200100EPS3_
FNA:3,1,_ZNSt3__19allocatorIPN7testing17TestEventListenerEE7destroyB8ne200100EPS3_
FNA:3,0,_ZNSt3__19allocatorIPN7testing8TestInfoEE7destroyB8ne200100EPS3_
FNA:3,79,_ZNSt3__19allocatorIPN7testing8internal15ExpectationBaseEE7destroyB8ne200100EPS4_
FNA:3,0,_ZNSt3__19allocatorIPN7testing8internal30ParameterizedTestSuiteInfoBaseEE7destroyB8ne200100EPS4_
FNA:3,0,_ZNSt3__19allocatorIPN7testing9TestSuiteEE7destroyB8ne200100EPS3_
FNA:3,0,_ZNSt3__19allocatorIPcE7destroyB8ne200100EPS1_
FNA:3,2,_ZNSt3__19allocatorIPiE7destroyB8ne200100EPS1_
FNA:3,3038,_ZNSt3__19allocatorIcE7destroyB8ne200100EPc
FNA:3,0,_ZNSt3__19allocatorIdE7destroyB8ne200100EPd
FNA:3,2,_ZNSt3__19allocatorIfE7destroyB8ne200100EPf
FNA:3,89,_ZNSt3__19allocatorIiE7destroyB8ne200100EPi
FNA:3,0,_ZNSt3__19allocatorImE7destroyB8ne200100EPm
FNA:3,3,_ZNSt3__19allocatorIwE7destroyB8ne200100EPw
FNL:4,162
FNA:4,0,_ZNSt3__1eqB8ne200100IccEEbRKNS_9allocatorIT_EERKNS1_IT0_EE
FNL:5,71
FNA:5,51,_ZNSt3__116__non_trivial_ifILb1ENS_9allocatorI11test_resultEEEC2B8ne200100Ev
FNA:5,2,_ZNSt3__116__non_trivial_ifILb1ENS_9allocatorI12check_customEEEC2B8ne200100Ev
FNA:5,2,_ZNSt3__116__non_trivial_ifILb1ENS_9allocatorI17basic_test_stringIcEEEEC2B8ne200100Ev
FNA:5,1,_ZNSt3__116__non_trivial_ifILb1ENS_9allocatorI2tmEEEC2B8ne200100Ev
FNA:5,2,_ZNSt3__116__non_trivial_ifILb1ENS_9allocatorI9test_enumEEEC2B8ne200100Ev
FNA:5,13,_ZNSt3__116__non_trivial_ifILb1ENS_9allocatorIN3fmt3v1216basic_format_argINS3_7contextEEEEEEC2B8ne200100Ev
FNA:5,13,_ZNSt3__116__non_trivial_ifILb1ENS_9allocatorIN3fmt3v126detail14named_arg_infoIcEEEEEC2B8ne200100Ev
FNA:5,2,_ZNSt3__116__non_trivial_ifILb1ENS_9allocatorIN7testing11ExpectationEEEEC2B8ne200100Ev
FNA:5,612,_ZNSt3__116__non_trivial_ifILb1ENS_9allocatorIN7testing12TestPropertyEEEEC2B8ne200100Ev
FNA:5,638,_ZNSt3__116__non_trivial_ifILb1ENS_9allocatorIN7testing14TestPartResultEEEEC2B8ne200100Ev
FNA:5,1,_ZNSt3__116__non_trivial_ifILb1ENS_9allocatorIN7testing15ActionInterfaceIF11test_resultN3fmt3v1216basic_format_argINS6_7contextEE6handleEEEEEEEC2B8ne200100Ev
FNA:5,1,_ZNSt3__116__non_trivial_ifILb1ENS_9allocatorIN7testing15ActionInterfaceIF11test_resultN3fmt3v1217basic_string_viewIcEEEEEEEEC2B8ne200100Ev
FNA:5,1,_ZNSt3__116__non_trivial_ifILb1ENS_9allocatorIN7testing15ActionInterfaceIF11test_resultN3fmt3v129monostateEEEEEEEC2B8ne200100Ev
FNA:5,1,_ZNSt3__116__non_trivial_ifILb1ENS_9allocatorIN7testing15ActionInterfaceIF11test_resultPKcEEEEEEC2B8ne200100Ev
FNA:5,4,_ZNSt3__116__non_trivial_ifILb1ENS_9allocatorIN7testing15ActionInterfaceIF11test_resultPKvEEEEEEC2B8ne200100Ev
FNA:5,3,_ZNSt3__116__non_trivial_ifILb1ENS_9allocatorIN7testing15ActionInterfaceIF11test_resultbEEEEEEC2B8ne200100Ev
FNA:5,1,_ZNSt3__116__non_trivial_ifILb1ENS_9allocatorIN7testing15ActionInterfaceIF11test_resultcEEEEEEC2B8ne200100Ev
FNA:5,3,_ZNSt3__116__non_trivial_ifILb1ENS_9allocatorIN7testing15ActionInterfaceIF11test_resultdEEEEEEC2B8ne200100Ev
FNA:5,3,_ZNSt3__116__non_trivial_ifILb1ENS_9allocatorIN7testing15ActionInterfaceIF11test_resulteEEEEEEC2B8ne200100Ev
FNA:5,3,_ZNSt3__116__non_trivial_ifILb1ENS_9allocatorIN7testing15ActionInterfaceIF11test_resultfEEEEEEC2B8ne200100Ev
FNA:5,9,_ZNSt3__116__non_trivial_ifILb1ENS_9allocatorIN7testing15ActionInterfaceIF11test_resultiEEEEEEC2B8ne200100Ev
FNA:5,9,_ZNSt3__116__non_trivial_ifILb1ENS_9allocatorIN7testing15ActionInterfaceIF11test_resultjEEEEEEC2B8ne200100Ev
FNA:5,6,_ZNSt3__116__non_trivial_ifILb1ENS_9allocatorIN7testing15ActionInterfaceIF11test_resultxEEEEEEC2B8ne200100Ev
FNA:5,6,_ZNSt3__116__non_trivial_ifILb1ENS_9allocatorIN7testing15ActionInterfaceIF11test_resultyEEEEEEC2B8ne200100Ev
FNA:5,3,_ZNSt3__116__non_trivial_ifILb1ENS_9allocatorIN7testing15ActionInterfaceIFPcmEEEEEEC2B8ne200100Ev
FNA:5,4,_ZNSt3__116__non_trivial_ifILb1ENS_9allocatorIN7testing15ActionInterfaceIFPimEEEEEEC2B8ne200100Ev
FNA:5,3,_ZNSt3__116__non_trivial_ifILb1ENS_9allocatorIN7testing15ActionInterfaceIFlPKvlEEEEEEC2B8ne200100Ev
FNA:5,2,_ZNSt3__116__non_trivial_ifILb1ENS_9allocatorIN7testing15ActionInterfaceIFmmEEEEEEC2B8ne200100Ev
FNA:5,91,_ZNSt3__116__non_trivial_ifILb1ENS_9allocatorIN7testing20CardinalityInterfaceEEEEC2B8ne200100Ev
FNA:5,2,_ZNSt3__116__non_trivial_ifILb1ENS_9allocatorIN7testing6ActionIF11test_resultN3fmt3v1216basic_format_argINS6_7contextEE6handleEEE13ActionAdapterEEEEC2B8ne200100Ev
FNA:5,2,_ZNSt3__116__non_trivial_ifILb1ENS_9allocatorIN7testing6ActionIF11test_resultN3fmt3v1217basic_string_viewIcEEEE13ActionAdapterEEEEC2B8ne200100Ev
FNA:5,2,_ZNSt3__116__non_trivial_ifILb1ENS_9allocatorIN7testing6ActionIF11test_resultN3fmt3v129monostateEEE13ActionAdapterEEEEC2B8ne200100Ev
FNA:5,2,_ZNSt3__116__non_trivial_ifILb1ENS_9allocatorIN7testing6ActionIF11test_resultPKcEE13ActionAdapterEEEEC2B8ne200100Ev
FNA:5,8,_ZNSt3__116__non_trivial_ifILb1ENS_9allocatorIN7testing6ActionIF11test_resultPKvEE13ActionAdapterEEEEC2B8ne200100Ev
FNA:5,6,_ZNSt3__116__non_trivial_ifILb1ENS_9allocatorIN7testing6ActionIF11test_resultbEE13ActionAdapterEEEEC2B8ne200100Ev
FNA:5,2,_ZNSt3__116__non_trivial_ifILb1ENS_9allocatorIN7testing6ActionIF11test_resultcEE13ActionAdapterEEEEC2B8ne200100Ev
FNA:5,6,_ZNSt3__116__non_trivial_ifILb1ENS_9allocatorIN7testing6ActionIF11test_resultdEE13ActionAdapterEEEEC2B8ne200100Ev
FNA:5,6,_ZNSt3__116__non_trivial_ifILb1ENS_9allocatorIN7testing6ActionIF11test_resulteEE13ActionAdapterEEEEC2B8ne200100Ev
FNA:5,6,_ZNSt3__116__non_trivial_ifILb1ENS_9allocatorIN7testing6ActionIF11test_resultfEE13ActionAdapterEEEEC2B8ne200100Ev
FNA:5,18,_ZNSt3__116__non_trivial_ifILb1ENS_9allocatorIN7testing6ActionIF11test_resultiEE13ActionAdapterEEEEC2B8ne200100Ev
FNA:5,18,_ZNSt3__116__non_trivial_ifILb1ENS_9allocatorIN7testing6ActionIF11test_resultjEE13ActionAdapterEEEEC2B8ne200100Ev
FNA:5,12,_ZNSt3__116__non_trivial_ifILb1ENS_9allocatorIN7testing6ActionIF11test_resultxEE13ActionAdapterEEEEC2B8ne200100Ev
FNA:5,12,_ZNSt3__116__non_trivial_ifILb1ENS_9allocatorIN7testing6ActionIF11test_resultyEE13ActionAdapterEEEEC2B8ne200100Ev
FNA:5,6,_ZNSt3__116__non_trivial_ifILb1ENS_9allocatorIN7testing6ActionIFPcmEE13ActionAdapterEEEEC2B8ne200100Ev
FNA:5,8,_ZNSt3__116__non_trivial_ifILb1ENS_9allocatorIN7testing6ActionIFPimEE13ActionAdapterEEEEC2B8ne200100Ev
FNA:5,6,_ZNSt3__116__non_trivial_ifILb1ENS_9allocatorIN7testing6ActionIFlPKvlEE13ActionAdapterEEEEC2B8ne200100Ev
FNA:5,4,_ZNSt3__116__non_trivial_ifILb1ENS_9allocatorIN7testing6ActionIFmmEE13ActionAdapterEEEEC2B8ne200100Ev
FNA:5,0,_ZNSt3__116__non_trivial_ifILb1ENS_9allocatorIN7testing8internal13edit_distance8EditTypeEEEEC2B8ne200100Ev
FNA:5,1,_ZNSt3__116__non_trivial_ifILb1ENS_9allocatorIN7testing8internal16TypedExpectationIF11test_resultN3fmt3v1216basic_format_argINS7_7contextEE6handleEEEEEEEC2B8ne200100Ev
FNA:5,1,_ZNSt3__116__non_trivial_ifILb1ENS_9allocatorIN7testing8internal16TypedExpectationIF11test_resultN3fmt3v1217basic_string_viewIcEEEEEEEEC2B8ne200100Ev
FNA:5,1,_ZNSt3__116__non_trivial_ifILb1ENS_9allocatorIN7testing8internal16TypedExpectationIF11test_resultN3fmt3v129monostateEEEEEEEC2B8ne200100Ev
FNA:5,1,_ZNSt3__116__non_trivial_ifILb1ENS_9allocatorIN7testing8internal16TypedExpectationIF11test_resultPKcEEEEEEC2B8ne200100Ev
FNA:5,4,_ZNSt3__116__non_trivial_ifILb1ENS_9allocatorIN7testing8internal16TypedExpectationIF11test_resultPKvEEEEEEC2B8ne200100Ev
FNA:5,3,_ZNSt3__116__non_trivial_ifILb1ENS_9allocatorIN7testing8internal16TypedExpectationIF11test_resultbEEEEEEC2B8ne200100Ev
FNA:5,1,_ZNSt3__116__non_trivial_ifILb1ENS_9allocatorIN7testing8internal16TypedExpectationIF11test_resultcEEEEEEC2B8ne200100Ev
FNA:5,3,_ZNSt3__116__non_trivial_ifILb1ENS_9allocatorIN7testing8internal16TypedExpectationIF11test_resultdEEEEEEC2B8ne200100Ev
FNA:5,3,_ZNSt3__116__non_trivial_ifILb1ENS_9allocatorIN7testing8internal16TypedExpectationIF11test_resulteEEEEEEC2B8ne200100Ev
FNA:5,3,_ZNSt3__116__non_trivial_ifILb1ENS_9allocatorIN7testing8internal16TypedExpectationIF11test_resultfEEEEEEC2B8ne200100Ev
FNA:5,9,_ZNSt3__116__non_trivial_ifILb1ENS_9allocatorIN7testing8internal16TypedExpectationIF11test_resultiEEEEEEC2B8ne200100Ev
FNA:5,9,_ZNSt3__116__non_trivial_ifILb1ENS_9allocatorIN7testing8internal16TypedExpectationIF11test_resultjEEEEEEC2B8ne200100Ev
FNA:5,6,_ZNSt3__116__non_trivial_ifILb1ENS_9allocatorIN7testing8internal16TypedExpectationIF11test_resultxEEEEEEC2B8ne200100Ev
FNA:5,6,_ZNSt3__116__non_trivial_ifILb1ENS_9allocatorIN7testing8internal16TypedExpectationIF11test_resultyEEEEEEC2B8ne200100Ev
FNA:5,3,_ZNSt3__116__non_trivial_ifILb1ENS_9allocatorIN7testing8internal16TypedExpectationIFPcmEEEEEEC2B8ne200100Ev
FNA:5,4,_ZNSt3__116__non_trivial_ifILb1ENS_9allocatorIN7testing8internal16TypedExpectationIFPimEEEEEEC2B8ne200100Ev
FNA:5,3,_ZNSt3__116__non_trivial_ifILb1ENS_9allocatorIN7testing8internal16TypedExpectationIFlPKvlEEEEEEC2B8ne200100Ev
FNA:5,8,_ZNSt3__116__non_trivial_ifILb1ENS_9allocatorIN7testing8internal16TypedExpectationIFmmEEEEEEC2B8ne200100Ev
FNA:5,3,_ZNSt3__116__non_trivial_ifILb1ENS_9allocatorIN7testing8internal16TypedExpectationIFvPcmEEEEEEC2B8ne200100Ev
FNA:5,4,_ZNSt3__116__non_trivial_ifILb1ENS_9allocatorIN7testing8internal16TypedExpectationIFvPimEEEEEEC2B8ne200100Ev
FNA:5,0,_ZNSt3__116__non_trivial_ifILb1ENS_9allocatorIN7testing8internal2REEEEEC2B8ne200100Ev
FNA:5,1,_ZNSt3__116__non_trivial_ifILb1ENS_9allocatorIN7testing8internal9TraceInfoEEEEC2B8ne200100Ev
FNA:5,1,_ZNSt3__116__non_trivial_ifILb1ENS_9allocatorINS_10__function6__funcI12check_customNS1_IS4_EEF11test_resultN3fmt3v1216basic_format_argINS8_7contextEE6handleEEEEEEEC2B8ne200100Ev
FNA:5,1,_ZNSt3__116__non_trivial_ifILb1ENS_9allocatorINS_10__function6__funcIN7testing6ActionIF11test_resultN3fmt3v1216basic_format_argINS8_7contextEE6handleEEE13ActionAdapterENS1_ISF_EESD_EEEEEC2B8ne200100Ev
FNA:5,1,_ZNSt3__116__non_trivial_ifILb1ENS_9allocatorINS_10__function6__funcIN7testing6ActionIF11test_resultN3fmt3v1217basic_string_viewIcEEEE13ActionAdapterENS1_ISD_EESB_EEEEEC2B8ne200100Ev
FNA:5,1,_ZNSt3__116__non_trivial_ifILb1ENS_9allocatorINS_10__function6__funcIN7testing6ActionIF11test_resultN3fmt3v129monostateEEE13ActionAdapterENS1_ISC_EESA_EEEEEC2B8ne200100Ev
FNA:5,1,_ZNSt3__116__non_trivial_ifILb1ENS_9allocatorINS_10__function6__funcIN7testing6ActionIF11test_resultPKcEE13ActionAdapterENS1_ISB_EES9_EEEEEC2B8ne200100Ev
FNA:5,4,_ZNSt3__116__non_trivial_ifILb1ENS_9allocatorINS_10__function6__funcIN7testing6ActionIF11test_resultPKvEE13ActionAdapterENS1_ISB_EES9_EEEEEC2B8ne200100Ev
FNA:5,3,_ZNSt3__116__non_trivial_ifILb1ENS_9allocatorINS_10__function6__funcIN7testing6ActionIF11test_resultbEE13ActionAdapterENS1_IS9_EES7_EEEEEC2B8ne200100Ev
FNA:5,1,_ZNSt3__116__non_trivial_ifILb1ENS_9allocatorINS_10__function6__funcIN7testing6ActionIF11test_resultcEE13ActionAdapterENS1_IS9_EES7_EEEEEC2B8ne200100Ev
FNA:5,3,_ZNSt3__116__non_trivial_ifILb1ENS_9allocatorINS_10__function6__funcIN7testing6ActionIF11test_resultdEE13ActionAdapterENS1_IS9_EES7_EEEEEC2B8ne200100Ev
FNA:5,3,_ZNSt3__116__non_trivial_ifILb1ENS_9allocatorINS_10__function6__funcIN7testing6ActionIF11test_resulteEE13ActionAdapterENS1_IS9_EES7_EEEEEC2B8ne200100Ev
FNA:5,3,_ZNSt3__116__non_trivial_ifILb1ENS_9allocatorINS_10__function6__funcIN7testing6ActionIF11test_resultfEE13ActionAdapterENS1_IS9_EES7_EEEEEC2B8ne200100Ev
FNA:5,9,_ZNSt3__116__non_trivial_ifILb1ENS_9allocatorINS_10__function6__funcIN7testing6ActionIF11test_resultiEE13ActionAdapterENS1_IS9_EES7_EEEEEC2B8ne200100Ev
FNA:5,9,_ZNSt3__116__non_trivial_ifILb1ENS_9allocatorINS_10__function6__funcIN7testing6ActionIF11test_resultjEE13ActionAdapterENS1_IS9_EES7_EEEEEC2B8ne200100Ev
FNA:5,6,_ZNSt3__116__non_trivial_ifILb1ENS_9allocatorINS_10__function6__funcIN7testing6ActionIF11test_resultxEE13ActionAdapterENS1_IS9_EES7_EEEEEC2B8ne200100Ev
FNA:5,6,_ZNSt3__116__non_trivial_ifILb1ENS_9allocatorINS_10__function6__funcIN7testing6ActionIF11test_resultyEE13ActionAdapterENS1_IS9_EES7_EEEEEC2B8ne200100Ev
FNA:5,3,_ZNSt3__116__non_trivial_ifILb1ENS_9allocatorINS_10__function6__funcIN7testing6ActionIFPcmEE13ActionAdapterENS1_IS9_EES7_EEEEEC2B8ne200100Ev
FNA:5,4,_ZNSt3__116__non_trivial_ifILb1ENS_9allocatorINS_10__function6__funcIN7testing6ActionIFPimEE13ActionAdapterENS1_IS9_EES7_EEEEEC2B8ne200100Ev
FNA:5,3,_ZNSt3__116__non_trivial_ifILb1ENS_9allocatorINS_10__function6__funcIN7testing6ActionIFlPKvlEE13ActionAdapterENS1_ISA_EES8_EEEEEC2B8ne200100Ev
FNA:5,2,_ZNSt3__116__non_trivial_ifILb1ENS_9allocatorINS_10__function6__funcIN7testing6ActionIFmmEE13ActionAdapterENS1_IS8_EES6_EEEEEC2B8ne200100Ev
FNA:5,8,_ZNSt3__116__non_trivial_ifILb1ENS_9allocatorINS_10__function6__funcIZN11mock_bufferIcEC1EPcmEUlmE_NS1_IS7_EEFmmEEEEEEC2B8ne200100Ev
FNA:5,3,_ZNSt3__116__non_trivial_ifILb1ENS_9allocatorINS_10__function6__funcIZN11mock_bufferIiEC1EPimEUlmE_NS1_IS7_EEFmmEEEEEEC2B8ne200100Ev
FNA:5,1,_ZNSt3__116__non_trivial_ifILb1ENS_9allocatorINS_10__function6__funcIZN31buffer_test_append_partial_Test8TestBodyEvE3$_0NS1_IS5_EEFmmEEEEEEC2B8ne200100Ev
FNA:5,1,_ZNSt3__116__non_trivial_ifILb1ENS_9allocatorINS_10__function6__funcIZNK7testing8internal11ThrowActionISt9exceptionEcvNS4_6ActionIFT_DpT0_EEEIvJPcmEEEvEUlSG_mE_NS1_ISH_EEFvSG_mEEEEEEC2B8ne200100Ev
FNA:5,244,_ZNSt3__116__non_trivial_ifILb1ENS_9allocatorINS_10shared_ptrIN7testing8internal15ExpectationBaseEEEEEEC2B8ne200100Ev
FNA:5,3,_ZNSt3__116__non_trivial_ifILb1ENS_9allocatorINS_11__hash_nodeINS_17__hash_value_typeImN7testing8internal12CallReactionEEEPvEEEEEC2B8ne200100Ev
FNA:5,0,_ZNSt3__116__non_trivial_ifILb1ENS_9allocatorINS_11__list_nodeINS_4pairIcPKcEEPvEEEEEC2B8ne200100Ev
FNA:5,1,_ZNSt3__116__non_trivial_ifILb1ENS_9allocatorINS_11__list_nodeIcPvEEEEEC2B8ne200100Ev
FNA:5,76,_ZNSt3__116__non_trivial_ifILb1ENS_9allocatorINS_11__tree_nodeIN7testing11ExpectationEPvEEEEEC2B8ne200100Ev
FNA:5,1,_ZNSt3__116__non_trivial_ifILb1ENS_9allocatorINS_11__tree_nodeINS_12__value_typeINS_10error_codeEiEEPvEEEEEC2B8ne200100Ev
FNA:5,20,_ZNSt3__116__non_trivial_ifILb1ENS_9allocatorINS_11__tree_nodeINS_12__value_typeINS_12basic_stringIcNS_11char_traitsIcEENS1_IcEEEEN7testing8internal34TypeParameterizedTestSuiteRegistry30TypeParameterizedTestSuiteInfoEEEPvEEEEEC2B8ne200100Ev
FNA:5,1,_ZNSt3__116__non_trivial_ifILb1ENS_9allocatorINS_11__tree_nodeINS_12__value_typeINS_12basic_stringIcNS_11char_traitsIcEENS1_IcEEEEiEEPvEEEEEC2B8ne200100Ev
FNA:5,0,_ZNSt3__116__non_trivial_ifILb1ENS_9allocatorINS_11__tree_nodeINS_12__value_typeINS_12basic_stringIcNS_11char_traitsIcEENS1_IcEEEEmEEPvEEEEEC2B8ne200100Ev
FNA:5,1,_ZNSt3__116__non_trivial_ifILb1ENS_9allocatorINS_11__tree_nodeINS_12__value_typeINS_12basic_stringIwNS_11char_traitsIwEENS1_IwEEEEiEEPvEEEEEC2B8ne200100Ev
FNA:5,20,_ZNSt3__116__non_trivial_ifILb1ENS_9allocatorINS_11__tree_nodeINS_12__value_typeIPKvN7testing12_GLOBAL__N_115MockObjectStateEEEPvEEEEEC2B8ne200100Ev
FNA:5,1,_ZNSt3__116__non_trivial_ifILb1ENS_9allocatorINS_11__tree_nodeINS_12__value_typeIi14test_map_valueEEPvEEEEEC2B8ne200100Ev
FNA:5,21,_ZNSt3__116__non_trivial_ifILb1ENS_9allocatorINS_11__tree_nodeINS_12basic_stringIcNS_11char_traitsIcEENS1_IcEEEEPvEEEEEC2B8ne200100Ev
FNA:5,67,_ZNSt3__116__non_trivial_ifILb1ENS_9allocatorINS_11__tree_nodeIPN7testing8internal25UntypedFunctionMockerBaseEPvEEEEEC2B8ne200100Ev
FNA:5,37,_ZNSt3__116__non_trivial_ifILb1ENS_9allocatorINS_12basic_stringIcNS_11char_traitsIcEENS1_IcEEEEEEEC2B8ne200100Ev
FNA:5,3,_ZNSt3__116__non_trivial_ifILb1ENS_9allocatorINS_12basic_stringIwNS_11char_traitsIwEENS1_IwEEEEEEEC2B8ne200100Ev
FNA:5,51,_ZNSt3__116__non_trivial_ifILb1ENS_9allocatorINS_20__shared_ptr_pointerIP11test_resultNS_10shared_ptrIS3_E27__shared_ptr_default_deleteIS3_S3_EENS1_IS3_EEEEEEEC2B8ne200100Ev
FNA:5,91,_ZNSt3__116__non_trivial_ifILb1ENS_9allocatorINS_20__shared_ptr_pointerIPKN7testing20CardinalityInterfaceENS_10shared_ptrIS5_E27__shared_ptr_default_deleteIS5_S5_EENS1_IS4_EEEEEEEC2B8ne200100Ev
FNA:5,0,_ZNSt3__116__non_trivial_ifILb1ENS_9allocatorINS_20__shared_ptr_pointerIPKN7testing8internal2REENS_10shared_ptrIS6_E27__shared_ptr_default_deleteIS6_S6_EENS1_IS5_EEEEEEEC2B8ne200100Ev
FNA:5,2,_ZNSt3__116__non_trivial_ifILb1ENS_9allocatorINS_20__shared_ptr_pointerIPN7testing11ExpectationENS_10shared_ptrIS4_E27__shared_ptr_default_deleteIS4_S4_EENS1_IS4_EEEEEEEC2B8ne200100Ev
FNA:5,1,_ZNSt3__116__non_trivial_ifILb1ENS_9allocatorINS_20__shared_ptr_pointerIPN7testing15ActionInterfaceIF11test_resultN3fmt3v1216basic_format_argINS7_7contextEE6handleEEEENS_10shared_ptrISD_E27__shared_ptr_default_deleteISD_SD_EENS1_ISD_EEEEEEEC2B8ne200100Ev
FNA:5,1,_ZNSt3__116__non_trivial_ifILb1ENS_9allocatorINS_20__shared_ptr_pointerIPN7testing15ActionInterfaceIF11test_resultN3fmt3v1217basic_string_viewIcEEEEENS_10shared_ptrISB_E27__shared_ptr_default_deleteISB_SB_EENS1_ISB_EEEEEEEC2B8ne200100Ev
FNA:5,1,_ZNSt3__116__non_trivial_ifILb1ENS_9allocatorINS_20__shared_ptr_pointerIPN7testing15ActionInterfaceIF11test_resultN3fmt3v129monostateEEEENS_10shared_ptrISA_E27__shared_ptr_default_deleteISA_SA_EENS1_ISA_EEEEEEEC2B8ne200100Ev
FNA:5,1,_ZNSt3__116__non_trivial_ifILb1ENS_9allocatorINS_20__shared_ptr_pointerIPN7testing15ActionInterfaceIF11test_resultPKcEEENS_10shared_ptrIS9_E27__shared_ptr_default_deleteIS9_S9_EENS1_IS9_EEEEEEEC2B8ne200100Ev
FNA:5,4,_ZNSt3__116__non_trivial_ifILb1ENS_9allocatorINS_20__shared_ptr_pointerIPN7testing15ActionInterfaceIF11test_resultPKvEEENS_10shared_ptrIS9_E27__shared_ptr_default_deleteIS9_S9_EENS1_IS9_EEEEEEEC2B8ne200100Ev
FNA:5,3,_ZNSt3__116__non_trivial_ifILb1ENS_9allocatorINS_20__shared_ptr_pointerIPN7testing15ActionInterfaceIF11test_resultbEEENS_10shared_ptrIS7_E27__shared_ptr_default_deleteIS7_S7_EENS1_IS7_EEEEEEEC2B8ne200100Ev
FNA:5,1,_ZNSt3__116__non_trivial_ifILb1ENS_9allocatorINS_20__shared_ptr_pointerIPN7testing15ActionInterfaceIF11test_resultcEEENS_10shared_ptrIS7_E27__shared_ptr_default_deleteIS7_S7_EENS1_IS7_EEEEEEEC2B8ne200100Ev
FNA:5,3,_ZNSt3__116__non_trivial_ifILb1ENS_9allocatorINS_20__shared_ptr_pointerIPN7testing15ActionInterfaceIF11test_resultdEEENS_10shared_ptrIS7_E27__shared_ptr_default_deleteIS7_S7_EENS1_IS7_EEEEEEEC2B8ne200100Ev
FNA:5,3,_ZNSt3__116__non_trivial_ifILb1ENS_9allocatorINS_20__shared_ptr_pointerIPN7testing15ActionInterfaceIF11test_resulteEEENS_10shared_ptrIS7_E27__shared_ptr_default_deleteIS7_S7_EENS1_IS7_EEEEEEEC2B8ne200100Ev
FNA:5,3,_ZNSt3__116__non_trivial_ifILb1ENS_9allocatorINS_20__shared_ptr_pointerIPN7testing15ActionInterfaceIF11test_resultfEEENS_10shared_ptrIS7_E27__shared_ptr_default_deleteIS7_S7_EENS1_IS7_EEEEEEEC2B8ne200100Ev
FNA:5,9,_ZNSt3__116__non_trivial_ifILb1ENS_9allocatorINS_20__shared_ptr_pointerIPN7testing15ActionInterfaceIF11test_resultiEEENS_10shared_ptrIS7_E27__shared_ptr_default_deleteIS7_S7_EENS1_IS7_EEEEEEEC2B8ne200100Ev
FNA:5,9,_ZNSt3__116__non_trivial_ifILb1ENS_9allocatorINS_20__shared_ptr_pointerIPN7testing15ActionInterfaceIF11test_resultjEEENS_10shared_ptrIS7_E27__shared_ptr_default_deleteIS7_S7_EENS1_IS7_EEEEEEEC2B8ne200100Ev
FNA:5,6,_ZNSt3__116__non_trivial_ifILb1ENS_9allocatorINS_20__shared_ptr_pointerIPN7testing15ActionInterfaceIF11test_resultxEEENS_10shared_ptrIS7_E27__shared_ptr_default_deleteIS7_S7_EENS1_IS7_EEEEEEEC2B8ne200100Ev
FNA:5,6,_ZNSt3__116__non_trivial_ifILb1ENS_9allocatorINS_20__shared_ptr_pointerIPN7testing15ActionInterfaceIF11test_resultyEEENS_10shared_ptrIS7_E27__shared_ptr_default_deleteIS7_S7_EENS1_IS7_EEEEEEEC2B8ne200100Ev
FNA:5,3,_ZNSt3__116__non_trivial_ifILb1ENS_9allocatorINS_20__shared_ptr_pointerIPN7testing15ActionInterfaceIFPcmEEENS_10shared_ptrIS7_E27__shared_ptr_default_deleteIS7_S7_EENS1_IS7_EEEEEEEC2B8ne200100Ev
FNA:5,4,_ZNSt3__116__non_trivial_ifILb1ENS_9allocatorINS_20__shared_ptr_pointerIPN7testing15ActionInterfaceIFPimEEENS_10shared_ptrIS7_E27__shared_ptr_default_deleteIS7_S7_EENS1_IS7_EEEEEEEC2B8ne200100Ev
FNA:5,3,_ZNSt3__116__non_trivial_ifILb1ENS_9allocatorINS_20__shared_ptr_pointerIPN7testing15ActionInterfaceIFlPKvlEEENS_10shared_ptrIS8_E27__shared_ptr_default_deleteIS8_S8_EENS1_IS8_EEEEEEEC2B8ne200100Ev
FNA:5,2,_ZNSt3__116__non_trivial_ifILb1ENS_9allocatorINS_20__shared_ptr_pointerIPN7testing15ActionInterfaceIFmmEEENS_10shared_ptrIS6_E27__shared_ptr_default_deleteIS6_S6_EENS1_IS6_EEEEEEEC2B8ne200100Ev
FNA:5,1,_ZNSt3__116__non_trivial_ifILb1ENS_9allocatorINS_20__shared_ptr_pointerIPN7testing8internal16TypedExpectationIF11test_resultN3fmt3v1216basic_format_argINS8_7contextEE6handleEEEENS_10shared_ptrINS4_15ExpectationBaseEE27__shared_ptr_default_deleteISH_SE_EENS1_ISE_EEEEEEEC2B8ne200100Ev
FNA:5,1,_ZNSt3__116__non_trivial_ifILb1ENS_9allocatorINS_20__shared_ptr_pointerIPN7testing8internal16TypedExpectationIF11test_resultN3fmt3v1217basic_string_viewIcEEEEENS_10shared_ptrINS4_15ExpectationBaseEE27__shared_ptr_default_deleteISF_SC_EENS1_ISC_EEEEEEEC2B8ne200100Ev
FNA:5,1,_ZNSt3__116__non_trivial_ifILb1ENS_9allocatorINS_20__shared_ptr_pointerIPN7testing8internal16TypedExpectationIF11test_resultN3fmt3v129monostateEEEENS_10shared_ptrINS4_15ExpectationBaseEE27__shared_ptr_default_deleteISE_SB_EENS1_ISB_EEEEEEEC2B8ne200100Ev
FNA:5,1,_ZNSt3__116__non_trivial_ifILb1ENS_9allocatorINS_20__shared_ptr_pointerIPN7testing8internal16TypedExpectationIF11test_resultPKcEEENS_10shared_ptrINS4_15ExpectationBaseEE27__shared_ptr_default_deleteISD_SA_EENS1_ISA_EEEEEEEC2B8ne200100Ev
FNA:5,4,_ZNSt3__116__non_trivial_ifILb1ENS_9allocatorINS_20__shared_ptr_pointerIPN7testing8internal16TypedExpectationIF11test_resultPKvEEENS_10shared_ptrINS4_15ExpectationBaseEE27__shared_ptr_default_deleteISD_SA_EENS1_ISA_EEEEEEEC2B8ne200100Ev
FNA:5,3,_ZNSt3__116__non_trivial_ifILb1ENS_9allocatorINS_20__shared_ptr_pointerIPN7testing8internal16TypedExpectationIF11test_resultbEEENS_10shared_ptrINS4_15ExpectationBaseEE27__shared_ptr_default_deleteISB_S8_EENS1_IS8_EEEEEEEC2B8ne200100Ev
FNA:5,1,_ZNSt3__116__non_trivial_ifILb1ENS_9allocatorINS_20__shared_ptr_pointerIPN7testing8internal16TypedExpectationIF11test_resultcEEENS_10shared_ptrINS4_15ExpectationBaseEE27__shared_ptr_default_deleteISB_S8_EENS1_IS8_EEEEEEEC2B8ne200100Ev
FNA:5,3,_ZNSt3__116__non_trivial_ifILb1ENS_9allocatorINS_20__shared_ptr_pointerIPN7testing8internal16TypedExpectationIF11test_resultdEEENS_10shared_ptrINS4_15ExpectationBaseEE27__shared_ptr_default_deleteISB_S8_EENS1_IS8_EEEEEEEC2B8ne200100Ev
FNA:5,3,_ZNSt3__116__non_trivial_ifILb1ENS_9allocatorINS_20__shared_ptr_pointerIPN7testing8internal16TypedExpectationIF11test_resulteEEENS_10shared_ptrINS4_15ExpectationBaseEE27__shared_ptr_default_deleteISB_S8_EENS1_IS8_EEEEEEEC2B8ne200100Ev
FNA:5,3,_ZNSt3__116__non_trivial_ifILb1ENS_9allocatorINS_20__shared_ptr_pointerIPN7testing8internal16TypedExpectationIF11test_resultfEEENS_10shared_ptrINS4_15ExpectationBaseEE27__shared_ptr_default_deleteISB_S8_EENS1_IS8_EEEEEEEC2B8ne200100Ev
FNA:5,9,_ZNSt3__116__non_trivial_ifILb1ENS_9allocatorINS_20__shared_ptr_pointerIPN7testing8internal16TypedExpectationIF11test_resultiEEENS_10shared_ptrINS4_15ExpectationBaseEE27__shared_ptr_default_deleteISB_S8_EENS1_IS8_EEEEEEEC2B8ne200100Ev
FNA:5,9,_ZNSt3__116__non_trivial_ifILb1ENS_9allocatorINS_20__shared_ptr_pointerIPN7testing8internal16TypedExpectationIF11test_resultjEEENS_10shared_ptrINS4_15ExpectationBaseEE27__shared_ptr_default_deleteISB_S8_EENS1_IS8_EEEEEEEC2B8ne200100Ev
FNA:5,6,_ZNSt3__116__non_trivial_ifILb1ENS_9allocatorINS_20__shared_ptr_pointerIPN7testing8internal16TypedExpectationIF11test_resultxEEENS_10shared_ptrINS4_15ExpectationBaseEE27__shared_ptr_default_deleteISB_S8_EENS1_IS8_EEEEEEEC2B8ne200100Ev
FNA:5,6,_ZNSt3__116__non_trivial_ifILb1ENS_9allocatorINS_20__shared_ptr_pointerIPN7testing8internal16TypedExpectationIF11test_resultyEEENS_10shared_ptrINS4_15ExpectationBaseEE27__shared_ptr_default_deleteISB_S8_EENS1_IS8_EEEEEEEC2B8ne200100Ev
FNA:5,3,_ZNSt3__116__non_trivial_ifILb1ENS_9allocatorINS_20__shared_ptr_pointerIPN7testing8internal16TypedExpectationIFPcmEEENS_10shared_ptrINS4_15ExpectationBaseEE27__shared_ptr_default_deleteISB_S8_EENS1_IS8_EEEEEEEC2B8ne200100Ev
FNA:5,4,_ZNSt3__116__non_trivial_ifILb1ENS_9allocatorINS_20__shared_ptr_pointerIPN7testing8internal16TypedExpectationIFPimEEENS_10shared_ptrINS4_15ExpectationBaseEE27__shared_ptr_default_deleteISB_S8_EENS1_IS8_EEEEEEEC2B8ne200100Ev
FNA:5,3,_ZNSt3__116__non_trivial_ifILb1ENS_9allocatorINS_20__shared_ptr_pointerIPN7testing8internal16TypedExpectationIFlPKvlEEENS_10shared_ptrINS4_15ExpectationBaseEE27__shared_ptr_default_deleteISC_S9_EENS1_IS9_EEEEEEEC2B8ne200100Ev
FNA:5,8,_ZNSt3__116__non_trivial_ifILb1ENS_9allocatorINS_20__shared_ptr_pointerIPN7testing8internal16TypedExpectationIFmmEEENS_10shared_ptrINS4_15ExpectationBaseEE27__shared_ptr_default_deleteISA_S7_EENS1_IS7_EEEEEEEC2B8ne200100Ev
FNA:5,3,_ZNSt3__116__non_trivial_ifILb1ENS_9allocatorINS_20__shared_ptr_pointerIPN7testing8internal16TypedExpectationIFvPcmEEENS_10shared_ptrINS4_15ExpectationBaseEE27__shared_ptr_default_deleteISB_S8_EENS1_IS8_EEEEEEEC2B8ne200100Ev
FNA:5,4,_ZNSt3__116__non_trivial_ifILb1ENS_9allocatorINS_20__shared_ptr_pointerIPN7testing8internal16TypedExpectationIFvPimEEENS_10shared_ptrINS4_15ExpectationBaseEE27__shared_ptr_default_deleteISB_S8_EENS1_IS8_EEEEEEEC2B8ne200100Ev
FNA:5,3,_ZNSt3__116__non_trivial_ifILb1ENS_9allocatorINS_20__shared_ptr_pointerIPPcNS_10shared_ptrIS3_E27__shared_ptr_default_deleteIS3_S3_EENS1_IS3_EEEEEEEC2B8ne200100Ev
FNA:5,4,_ZNSt3__116__non_trivial_ifILb1ENS_9allocatorINS_20__shared_ptr_pointerIPPiNS_10shared_ptrIS3_E27__shared_ptr_default_deleteIS3_S3_EENS1_IS3_EEEEEEEC2B8ne200100Ev
FNA:5,3,_ZNSt3__116__non_trivial_ifILb1ENS_9allocatorINS_20__shared_ptr_pointerIPiNS_10shared_ptrIiE27__shared_ptr_default_deleteIiiEENS1_IiEEEEEEEC2B8ne200100Ev
FNA:5,3,_ZNSt3__116__non_trivial_ifILb1ENS_9allocatorINS_20__shared_ptr_pointerIPlNS_10shared_ptrIlE27__shared_ptr_default_deleteIllEENS1_IlEEEEEEEC2B8ne200100Ev
FNA:5,0,_ZNSt3__116__non_trivial_ifILb1ENS_9allocatorINS_4pairImmEEEEEC2B8ne200100Ev
FNA:5,0,_ZNSt3__116__non_trivial_ifILb1ENS_9allocatorINS_6vectorIN7testing8internal13edit_distance8EditTypeENS1_IS6_EEEEEEEC2B8ne200100Ev
FNA:5,2,_ZNSt3__116__non_trivial_ifILb1ENS_9allocatorINS_6vectorIcNS1_IcEEEEEEEC2B8ne200100Ev
FNA:5,0,_ZNSt3__116__non_trivial_ifILb1ENS_9allocatorINS_6vectorIdNS1_IdEEEEEEEC2B8ne200100Ev
FNA:5,2,_ZNSt3__116__non_trivial_ifILb1ENS_9allocatorINS_6vectorIiNS1_IiEEEEEEEC2B8ne200100Ev
FNA:5,80,_ZNSt3__116__non_trivial_ifILb1ENS_9allocatorIPKN7testing8internal15ExpectationBaseEEEEC2B8ne200100Ev
FNA:5,320,_ZNSt3__116__non_trivial_ifILb1ENS_9allocatorIPKvEEEC2B8ne200100Ev
FNA:5,20,_ZNSt3__116__non_trivial_ifILb1ENS_9allocatorIPN7testing11EnvironmentEEEEC2B8ne200100Ev
FNA:5,20,_ZNSt3__116__non_trivial_ifILb1ENS_9allocatorIPN7testing17TestEventListenerEEEEC2B8ne200100Ev
FNA:5,60,_ZNSt3__116__non_trivial_ifILb1ENS_9allocatorIPN7testing8TestInfoEEEEC2B8ne200100Ev
FNA:5,76,_ZNSt3__116__non_trivial_ifILb1ENS_9allocatorIPN7testing8internal15ExpectationBaseEEEEC2B8ne200100Ev
FNA:5,20,_ZNSt3__116__non_trivial_ifILb1ENS_9allocatorIPN7testing8internal30ParameterizedTestSuiteInfoBaseEEEEC2B8ne200100Ev
FNA:5,20,_ZNSt3__116__non_trivial_ifILb1ENS_9allocatorIPN7testing9TestSuiteEEEEC2B8ne200100Ev
FNA:5,3,_ZNSt3__116__non_trivial_ifILb1ENS_9allocatorIPNS_16__hash_node_baseIPNS_11__hash_nodeINS_17__hash_value_typeImN7testing8internal12CallReactionEEEPvEEEEEEEC2B8ne200100Ev
FNA:5,3,_ZNSt3__116__non_trivial_ifILb1ENS_9allocatorIPcEEEC2B8ne200100Ev
FNA:5,6,_ZNSt3__116__non_trivial_ifILb1ENS_9allocatorIPiEEEC2B8ne200100Ev
FNA:5,16,_ZNSt3__116__non_trivial_ifILb1ENS_9allocatorIZN11mock_bufferIcEC1EPcmEUlmE_EEEC2B8ne200100Ev
FNA:5,6,_ZNSt3__116__non_trivial_ifILb1ENS_9allocatorIZN11mock_bufferIiEC1EPimEUlmE_EEEC2B8ne200100Ev
FNA:5,2,_ZNSt3__116__non_trivial_ifILb1ENS_9allocatorIZN31buffer_test_append_partial_Test8TestBodyEvE3$_0EEEC2B8ne200100Ev
FNA:5,2,_ZNSt3__116__non_trivial_ifILb1ENS_9allocatorIZNK7testing8internal11ThrowActionISt9exceptionEcvNS2_6ActionIFT_DpT0_EEEIvJPcmEEEvEUlSE_mE_EEEC2B8ne200100Ev
FNA:5,173260,_ZNSt3__116__non_trivial_ifILb1ENS_9allocatorIcEEEC2B8ne200100Ev
FNA:5,0,_ZNSt3__116__non_trivial_ifILb1ENS_9allocatorIdEEEC2B8ne200100Ev
FNA:5,1,_ZNSt3__116__non_trivial_ifILb1ENS_9allocatorIfEEEC2B8ne200100Ev
FNA:5,109,_ZNSt3__116__non_trivial_ifILb1ENS_9allocatorIiEEEC2B8ne200100Ev
FNA:5,3,_ZNSt3__116__non_trivial_ifILb1ENS_9allocatorIlEEEC2B8ne200100Ev
FNA:5,2,_ZNSt3__116__non_trivial_ifILb1ENS_9allocatorImEEEC2B8ne200100Ev
FNA:5,94,_ZNSt3__116__non_trivial_ifILb1ENS_9allocatorIwEEEC2B8ne200100Ev
FNL:6,93
FNA:6,51,_ZNSt3__19allocatorI11test_resultEC1B8ne200100Ev
FNA:6,51,_ZNSt3__19allocatorI11test_resultEC2B8ne200100Ev
FNA:6,1,_ZNSt3__19allocatorI12check_customEC1B8ne200100Ev
FNA:6,1,_ZNSt3__19allocatorI12check_customEC2B8ne200100Ev
FNA:6,2,_ZNSt3__19allocatorI17basic_test_stringIcEEC1B8ne200100Ev
FNA:6,2,_ZNSt3__19allocatorI17basic_test_stringIcEEC2B8ne200100Ev
FNA:6,1,_ZNSt3__19allocatorI2tmEC1B8ne200100Ev
FNA:6,1,_ZNSt3__19allocatorI2tmEC2B8ne200100Ev
FNA:6,2,_ZNSt3__19allocatorI9test_enumEC1B8ne200100Ev
FNA:6,2,_ZNSt3__19allocatorI9test_enumEC2B8ne200100Ev
FNA:6,13,_ZNSt3__19allocatorIN3fmt3v1216basic_format_argINS2_7contextEEEEC1B8ne200100Ev
FNA:6,13,_ZNSt3__19allocatorIN3fmt3v1216basic_format_argINS2_7contextEEEEC2B8ne200100Ev
FNA:6,13,_ZNSt3__19allocatorIN3fmt3v126detail14named_arg_infoIcEEEC1B8ne200100Ev
FNA:6,13,_ZNSt3__19allocatorIN3fmt3v126detail14named_arg_infoIcEEEC2B8ne200100Ev
FNA:6,2,_ZNSt3__19allocatorIN7testing11ExpectationEEC1B8ne200100Ev
FNA:6,2,_ZNSt3__19allocatorIN7testing11ExpectationEEC2B8ne200100Ev
FNA:6,612,_ZNSt3__19allocatorIN7testing12TestPropertyEEC1B8ne200100Ev
FNA:6,612,_ZNSt3__19allocatorIN7testing12TestPropertyEEC2B8ne200100Ev
FNA:6,638,_ZNSt3__19allocatorIN7testing14TestPartResultEEC1B8ne200100Ev
FNA:6,638,_ZNSt3__19allocatorIN7testing14TestPartResultEEC2B8ne200100Ev
FNA:6,1,_ZNSt3__19allocatorIN7testing15ActionInterfaceIF11test_resultN3fmt3v1216basic_format_argINS5_7contextEE6handleEEEEEC1B8ne200100Ev
FNA:6,1,_ZNSt3__19allocatorIN7testing15ActionInterfaceIF11test_resultN3fmt3v1216basic_format_argINS5_7contextEE6handleEEEEEC2B8ne200100Ev
FNA:6,1,_ZNSt3__19allocatorIN7testing15ActionInterfaceIF11test_resultN3fmt3v1217basic_string_viewIcEEEEEEC1B8ne200100Ev
FNA:6,1,_ZNSt3__19allocatorIN7testing15ActionInterfaceIF11test_resultN3fmt3v1217basic_string_viewIcEEEEEEC2B8ne200100Ev
FNA:6,1,_ZNSt3__19allocatorIN7testing15ActionInterfaceIF11test_resultN3fmt3v129monostateEEEEEC1B8ne200100Ev
FNA:6,1,_ZNSt3__19allocatorIN7testing15ActionInterfaceIF11test_resultN3fmt3v129monostateEEEEEC2B8ne200100Ev
FNA:6,1,_ZNSt3__19allocatorIN7testing15ActionInterfaceIF11test_resultPKcEEEEC1B8ne200100Ev
FNA:6,1,_ZNSt3__19allocatorIN7testing15ActionInterfaceIF11test_resultPKcEEEEC2B8ne200100Ev
FNA:6,4,_ZNSt3__19allocatorIN7testing15ActionInterfaceIF11test_resultPKvEEEEC1B8ne200100Ev
FNA:6,4,_ZNSt3__19allocatorIN7testing15ActionInterfaceIF11test_resultPKvEEEEC2B8ne200100Ev
FNA:6,3,_ZNSt3__19allocatorIN7testing15ActionInterfaceIF11test_resultbEEEEC1B8ne200100Ev
FNA:6,3,_ZNSt3__19allocatorIN7testing15ActionInterfaceIF11test_resultbEEEEC2B8ne200100Ev
FNA:6,1,_ZNSt3__19allocatorIN7testing15ActionInterfaceIF11test_resultcEEEEC1B8ne200100Ev
FNA:6,1,_ZNSt3__19allocatorIN7testing15ActionInterfaceIF11test_resultcEEEEC2B8ne200100Ev
FNA:6,3,_ZNSt3__19allocatorIN7testing15ActionInterfaceIF11test_resultdEEEEC1B8ne200100Ev
FNA:6,3,_ZNSt3__19allocatorIN7testing15ActionInterfaceIF11test_resultdEEEEC2B8ne200100Ev
FNA:6,3,_ZNSt3__19allocatorIN7testing15ActionInterfaceIF11test_resulteEEEEC1B8ne200100Ev
FNA:6,3,_ZNSt3__19allocatorIN7testing15ActionInterfaceIF11test_resulteEEEEC2B8ne200100Ev
FNA:6,3,_ZNSt3__19allocatorIN7testing15ActionInterfaceIF11test_resultfEEEEC1B8ne200100Ev
FNA:6,3,_ZNSt3__19allocatorIN7testing15ActionInterfaceIF11test_resultfEEEEC2B8ne200100Ev
FNA:6,9,_ZNSt3__19allocatorIN7testing15ActionInterfaceIF11test_resultiEEEEC1B8ne200100Ev
FNA:6,9,_ZNSt3__19allocatorIN7testing15ActionInterfaceIF11test_resultiEEEEC2B8ne200100Ev
FNA:6,9,_ZNSt3__19allocatorIN7testing15ActionInterfaceIF11test_resultjEEEEC1B8ne200100Ev
FNA:6,9,_ZNSt3__19allocatorIN7testing15ActionInterfaceIF11test_resultjEEEEC2B8ne200100Ev
FNA:6,6,_ZNSt3__19allocatorIN7testing15ActionInterfaceIF11test_resultxEEEEC1B8ne200100Ev
FNA:6,6,_ZNSt3__19allocatorIN7testing15ActionInterfaceIF11test_resultxEEEEC2B8ne200100Ev
FNA:6,6,_ZNSt3__19allocatorIN7testing15ActionInterfaceIF11test_resultyEEEEC1B8ne200100Ev
FNA:6,6,_ZNSt3__19allocatorIN7testing15ActionInterfaceIF11test_resultyEEEEC2B8ne200100Ev
FNA:6,3,_ZNSt3__19allocatorIN7testing15ActionInterfaceIFPcmEEEEC1B8ne200100Ev
FNA:6,3,_ZNSt3__19allocatorIN7testing15ActionInterfaceIFPcmEEEEC2B8ne200100Ev
FNA:6,4,_ZNSt3__19allocatorIN7testing15ActionInterfaceIFPimEEEEC1B8ne200100Ev
FNA:6,4,_ZNSt3__19allocatorIN7testing15ActionInterfaceIFPimEEEEC2B8ne200100Ev
FNA:6,3,_ZNSt3__19allocatorIN7testing15ActionInterfaceIFlPKvlEEEEC1B8ne200100Ev
FNA:6,3,_ZNSt3__19allocatorIN7testing15ActionInterfaceIFlPKvlEEEEC2B8ne200100Ev
FNA:6,2,_ZNSt3__19allocatorIN7testing15ActionInterfaceIFmmEEEEC1B8ne200100Ev
FNA:6,2,_ZNSt3__19allocatorIN7testing15ActionInterfaceIFmmEEEEC2B8ne200100Ev
FNA:6,91,_ZNSt3__19allocatorIN7testing20CardinalityInterfaceEEC1B8ne200100Ev
FNA:6,91,_ZNSt3__19allocatorIN7testing20CardinalityInterfaceEEC2B8ne200100Ev
FNA:6,1,_ZNSt3__19allocatorIN7testing6ActionIF11test_resultN3fmt3v1216basic_format_argINS5_7contextEE6handleEEE13ActionAdapterEEC1B8ne200100Ev
FNA:6,1,_ZNSt3__19allocatorIN7testing6ActionIF11test_resultN3fmt3v1216basic_format_argINS5_7contextEE6handleEEE13ActionAdapterEEC2B8ne200100Ev
FNA:6,1,_ZNSt3__19allocatorIN7testing6ActionIF11test_resultN3fmt3v1217basic_string_viewIcEEEE13ActionAdapterEEC1B8ne200100Ev
FNA:6,1,_ZNSt3__19allocatorIN7testing6ActionIF11test_resultN3fmt3v1217basic_string_viewIcEEEE13ActionAdapterEEC2B8ne200100Ev
FNA:6,1,_ZNSt3__19allocatorIN7testing6ActionIF11test_resultN3fmt3v129monostateEEE13ActionAdapterEEC1B8ne200100Ev
FNA:6,1,_ZNSt3__19allocatorIN7testing6ActionIF11test_resultN3fmt3v129monostateEEE13ActionAdapterEEC2B8ne200100Ev
FNA:6,1,_ZNSt3__19allocatorIN7testing6ActionIF11test_resultPKcEE13ActionAdapterEEC1B8ne200100Ev
FNA:6,1,_ZNSt3__19allocatorIN7testing6ActionIF11test_resultPKcEE13ActionAdapterEEC2B8ne200100Ev
FNA:6,4,_ZNSt3__19allocatorIN7testing6ActionIF11test_resultPKvEE13ActionAdapterEEC1B8ne200100Ev
FNA:6,4,_ZNSt3__19allocatorIN7testing6ActionIF11test_resultPKvEE13ActionAdapterEEC2B8ne200100Ev
FNA:6,3,_ZNSt3__19allocatorIN7testing6ActionIF11test_resultbEE13ActionAdapterEEC1B8ne200100Ev
FNA:6,3,_ZNSt3__19allocatorIN7testing6ActionIF11test_resultbEE13ActionAdapterEEC2B8ne200100Ev
FNA:6,1,_ZNSt3__19allocatorIN7testing6ActionIF11test_resultcEE13ActionAdapterEEC1B8ne200100Ev
FNA:6,1,_ZNSt3__19allocatorIN7testing6ActionIF11test_resultcEE13ActionAdapterEEC2B8ne200100Ev
FNA:6,3,_ZNSt3__19allocatorIN7testing6ActionIF11test_resultdEE13ActionAdapterEEC1B8ne200100Ev
FNA:6,3,_ZNSt3__19allocatorIN7testing6ActionIF11test_resultdEE13ActionAdapterEEC2B8ne200100Ev
FNA:6,3,_ZNSt3__19allocatorIN7testing6ActionIF11test_resulteEE13ActionAdapterEEC1B8ne200100Ev
FNA:6,3,_ZNSt3__19allocatorIN7testing6ActionIF11test_resulteEE13ActionAdapterEEC2B8ne200100Ev
FNA:6,3,_ZNSt3__19allocatorIN7testing6ActionIF11test_resultfEE13ActionAdapterEEC1B8ne200100Ev
FNA:6,3,_ZNSt3__19allocatorIN7testing6ActionIF11test_resultfEE13ActionAdapterEEC2B8ne200100Ev
FNA:6,9,_ZNSt3__19allocatorIN7testing6ActionIF11test_resultiEE13ActionAdapterEEC1B8ne200100Ev
FNA:6,9,_ZNSt3__19allocatorIN7testing6ActionIF11test_resultiEE13ActionAdapterEEC2B8ne200100Ev
FNA:6,9,_ZNSt3__19allocatorIN7testing6ActionIF11test_resultjEE13ActionAdapterEEC1B8ne200100Ev
FNA:6,9,_ZNSt3__19allocatorIN7testing6ActionIF11test_resultjEE13ActionAdapterEEC2B8ne200100Ev
FNA:6,6,_ZNSt3__19allocatorIN7testing6ActionIF11test_resultxEE13ActionAdapterEEC1B8ne200100Ev
FNA:6,6,_ZNSt3__19allocatorIN7testing6ActionIF11test_resultxEE13ActionAdapterEEC2B8ne200100Ev
FNA:6,6,_ZNSt3__19allocatorIN7testing6ActionIF11test_resultyEE13ActionAdapterEEC1B8ne200100Ev
FNA:6,6,_ZNSt3__19allocatorIN7testing6ActionIF11test_resultyEE13ActionAdapterEEC2B8ne200100Ev
FNA:6,3,_ZNSt3__19allocatorIN7testing6ActionIFPcmEE13ActionAdapterEEC1B8ne200100Ev
FNA:6,3,_ZNSt3__19allocatorIN7testing6ActionIFPcmEE13ActionAdapterEEC2B8ne200100Ev
FNA:6,4,_ZNSt3__19allocatorIN7testing6ActionIFPimEE13ActionAdapterEEC1B8ne200100Ev
FNA:6,4,_ZNSt3__19allocatorIN7testing6ActionIFPimEE13ActionAdapterEEC2B8ne200100Ev
FNA:6,3,_ZNSt3__19allocatorIN7testing6ActionIFlPKvlEE13ActionAdapterEEC1B8ne200100Ev
FNA:6,3,_ZNSt3__19allocatorIN7testing6ActionIFlPKvlEE13ActionAdapterEEC2B8ne200100Ev
FNA:6,2,_ZNSt3__19allocatorIN7testing6ActionIFmmEE13ActionAdapterEEC1B8ne200100Ev
FNA:6,2,_ZNSt3__19allocatorIN7testing6ActionIFmmEE13ActionAdapterEEC2B8ne200100Ev
FNA:6,0,_ZNSt3__19allocatorIN7testing8internal13edit_distance8EditTypeEEC1B8ne200100Ev
FNA:6,0,_ZNSt3__19allocatorIN7testing8internal13edit_distance8EditTypeEEC2B8ne200100Ev
FNA:6,1,_ZNSt3__19allocatorIN7testing8internal16TypedExpectationIF11test_resultN3fmt3v1216basic_format_argINS6_7contextEE6handleEEEEEC1B8ne200100Ev
FNA:6,1,_ZNSt3__19allocatorIN7testing8internal16TypedExpectationIF11test_resultN3fmt3v1216basic_format_argINS6_7contextEE6handleEEEEEC2B8ne200100Ev
FNA:6,1,_ZNSt3__19allocatorIN7testing8internal16TypedExpectationIF11test_resultN3fmt3v1217basic_string_viewIcEEEEEEC1B8ne200100Ev
FNA:6,1,_ZNSt3__19allocatorIN7testing8internal16TypedExpectationIF11test_resultN3fmt3v1217basic_string_viewIcEEEEEEC2B8ne200100Ev
FNA:6,1,_ZNSt3__19allocatorIN7testing8internal16TypedExpectationIF11test_resultN3fmt3v129monostateEEEEEC1B8ne200100Ev
FNA:6,1,_ZNSt3__19allocatorIN7testing8internal16TypedExpectationIF11test_resultN3fmt3v129monostateEEEEEC2B8ne200100Ev
FNA:6,1,_ZNSt3__19allocatorIN7testing8internal16TypedExpectationIF11test_resultPKcEEEEC1B8ne200100Ev
FNA:6,1,_ZNSt3__19allocatorIN7testing8internal16TypedExpectationIF11test_resultPKcEEEEC2B8ne200100Ev
FNA:6,4,_ZNSt3__19allocatorIN7testing8internal16TypedExpectationIF11test_resultPKvEEEEC1B8ne200100Ev
FNA:6,4,_ZNSt3__19allocatorIN7testing8internal16TypedExpectationIF11test_resultPKvEEEEC2B8ne200100Ev
FNA:6,3,_ZNSt3__19allocatorIN7testing8internal16TypedExpectationIF11test_resultbEEEEC1B8ne200100Ev
FNA:6,3,_ZNSt3__19allocatorIN7testing8internal16TypedExpectationIF11test_resultbEEEEC2B8ne200100Ev
FNA:6,1,_ZNSt3__19allocatorIN7testing8internal16TypedExpectationIF11test_resultcEEEEC1B8ne200100Ev
FNA:6,1,_ZNSt3__19allocatorIN7testing8internal16TypedExpectationIF11test_resultcEEEEC2B8ne200100Ev
FNA:6,3,_ZNSt3__19allocatorIN7testing8internal16TypedExpectationIF11test_resultdEEEEC1B8ne200100Ev
FNA:6,3,_ZNSt3__19allocatorIN7testing8internal16TypedExpectationIF11test_resultdEEEEC2B8ne200100Ev
FNA:6,3,_ZNSt3__19allocatorIN7testing8internal16TypedExpectationIF11test_resulteEEEEC1B8ne200100Ev
FNA:6,3,_ZNSt3__19allocatorIN7testing8internal16TypedExpectationIF11test_resulteEEEEC2B8ne200100Ev
FNA:6,3,_ZNSt3__19allocatorIN7testing8internal16TypedExpectationIF11test_resultfEEEEC1B8ne200100Ev
FNA:6,3,_ZNSt3__19allocatorIN7testing8internal16TypedExpectationIF11test_resultfEEEEC2B8ne200100Ev
FNA:6,9,_ZNSt3__19allocatorIN7testing8internal16TypedExpectationIF11test_resultiEEEEC1B8ne200100Ev
FNA:6,9,_ZNSt3__19allocatorIN7testing8internal16TypedExpectationIF11test_resultiEEEEC2B8ne200100Ev
FNA:6,9,_ZNSt3__19allocatorIN7testing8internal16TypedExpectationIF11test_resultjEEEEC1B8ne200100Ev
FNA:6,9,_ZNSt3__19allocatorIN7testing8internal16TypedExpectationIF11test_resultjEEEEC2B8ne200100Ev
FNA:6,6,_ZNSt3__19allocatorIN7testing8internal16TypedExpectationIF11test_resultxEEEEC1B8ne200100Ev
FNA:6,6,_ZNSt3__19allocatorIN7testing8internal16TypedExpectationIF11test_resultxEEEEC2B8ne200100Ev
FNA:6,6,_ZNSt3__19allocatorIN7testing8internal16TypedExpectationIF11test_resultyEEEEC1B8ne200100Ev
FNA:6,6,_ZNSt3__19allocatorIN7testing8internal16TypedExpectationIF11test_resultyEEEEC2B8ne200100Ev
FNA:6,3,_ZNSt3__19allocatorIN7testing8internal16TypedExpectationIFPcmEEEEC1B8ne200100Ev
FNA:6,3,_ZNSt3__19allocatorIN7testing8internal16TypedExpectationIFPcmEEEEC2B8ne200100Ev
FNA:6,4,_ZNSt3__19allocatorIN7testing8internal16TypedExpectationIFPimEEEEC1B8ne200100Ev
FNA:6,4,_ZNSt3__19allocatorIN7testing8internal16TypedExpectationIFPimEEEEC2B8ne200100Ev
FNA:6,3,_ZNSt3__19allocatorIN7testing8internal16TypedExpectationIFlPKvlEEEEC1B8ne200100Ev
FNA:6,3,_ZNSt3__19allocatorIN7testing8internal16TypedExpectationIFlPKvlEEEEC2B8ne200100Ev
FNA:6,8,_ZNSt3__19allocatorIN7testing8internal16TypedExpectationIFmmEEEEC1B8ne200100Ev
FNA:6,8,_ZNSt3__19allocatorIN7testing8internal16TypedExpectationIFmmEEEEC2B8ne200100Ev
FNA:6,3,_ZNSt3__19allocatorIN7testing8internal16TypedExpectationIFvPcmEEEEC1B8ne200100Ev
FNA:6,3,_ZNSt3__19allocatorIN7testing8internal16TypedExpectationIFvPcmEEEEC2B8ne200100Ev
FNA:6,4,_ZNSt3__19allocatorIN7testing8internal16TypedExpectationIFvPimEEEEC1B8ne200100Ev
FNA:6,4,_ZNSt3__19allocatorIN7testing8internal16TypedExpectationIFvPimEEEEC2B8ne200100Ev
FNA:6,0,_ZNSt3__19allocatorIN7testing8internal2REEEC1B8ne200100Ev
FNA:6,0,_ZNSt3__19allocatorIN7testing8internal2REEEC2B8ne200100Ev
FNA:6,1,_ZNSt3__19allocatorIN7testing8internal9TraceInfoEEC1B8ne200100Ev
FNA:6,1,_ZNSt3__19allocatorIN7testing8internal9TraceInfoEEC2B8ne200100Ev
FNA:6,244,_ZNSt3__19allocatorINS_10shared_ptrIN7testing8internal15ExpectationBaseEEEEC1B8ne200100Ev
FNA:6,244,_ZNSt3__19allocatorINS_10shared_ptrIN7testing8internal15ExpectationBaseEEEEC2B8ne200100Ev
FNA:6,3,_ZNSt3__19allocatorINS_11__hash_nodeINS_17__hash_value_typeImN7testing8internal12CallReactionEEEPvEEEC1B8ne200100Ev
FNA:6,3,_ZNSt3__19allocatorINS_11__hash_nodeINS_17__hash_value_typeImN7testing8internal12CallReactionEEEPvEEEC2B8ne200100Ev
FNA:6,0,_ZNSt3__19allocatorINS_11__list_nodeINS_4pairIcPKcEEPvEEEC1B8ne200100Ev
FNA:6,0,_ZNSt3__19allocatorINS_11__list_nodeINS_4pairIcPKcEEPvEEEC2B8ne200100Ev
FNA:6,1,_ZNSt3__19allocatorINS_11__list_nodeIcPvEEEC1B8ne200100Ev
FNA:6,1,_ZNSt3__19allocatorINS_11__list_nodeIcPvEEEC2B8ne200100Ev
FNA:6,76,_ZNSt3__19allocatorINS_11__tree_nodeIN7testing11ExpectationEPvEEEC1B8ne200100Ev
FNA:6,76,_ZNSt3__19allocatorINS_11__tree_nodeIN7testing11ExpectationEPvEEEC2B8ne200100Ev
FNA:6,1,_ZNSt3__19allocatorINS_11__tree_nodeINS_12__value_typeINS_10error_codeEiEEPvEEEC1B8ne200100Ev
FNA:6,1,_ZNSt3__19allocatorINS_11__tree_nodeINS_12__value_typeINS_10error_codeEiEEPvEEEC2B8ne200100Ev
FNA:6,20,_ZNSt3__19allocatorINS_11__tree_nodeINS_12__value_typeINS_12basic_stringIcNS_11char_traitsIcEENS0_IcEEEEN7testing8internal34TypeParameterizedTestSuiteRegistry30TypeParameterizedTestSuiteInfoEEEPvEEEC1B8ne200100Ev
FNA:6,20,_ZNSt3__19allocatorINS_11__tree_nodeINS_12__value_typeINS_12basic_stringIcNS_11char_traitsIcEENS0_IcEEEEN7testing8internal34TypeParameterizedTestSuiteRegistry30TypeParameterizedTestSuiteInfoEEEPvEEEC2B8ne200100Ev
FNA:6,1,_ZNSt3__19allocatorINS_11__tree_nodeINS_12__value_typeINS_12basic_stringIcNS_11char_traitsIcEENS0_IcEEEEiEEPvEEEC1B8ne200100Ev
FNA:6,1,_ZNSt3__19allocatorINS_11__tree_nodeINS_12__value_typeINS_12basic_stringIcNS_11char_traitsIcEENS0_IcEEEEiEEPvEEEC2B8ne200100Ev
FNA:6,0,_ZNSt3__19allocatorINS_11__tree_nodeINS_12__value_typeINS_12basic_stringIcNS_11char_traitsIcEENS0_IcEEEEmEEPvEEEC1B8ne200100Ev
FNA:6,0,_ZNSt3__19allocatorINS_11__tree_nodeINS_12__value_typeINS_12basic_stringIcNS_11char_traitsIcEENS0_IcEEEEmEEPvEEEC2B8ne200100Ev
FNA:6,1,_ZNSt3__19allocatorINS_11__tree_nodeINS_12__value_typeINS_12basic_stringIwNS_11char_traitsIwEENS0_IwEEEEiEEPvEEEC1B8ne200100Ev
FNA:6,1,_ZNSt3__19allocatorINS_11__tree_nodeINS_12__value_typeINS_12basic_stringIwNS_11char_traitsIwEENS0_IwEEEEiEEPvEEEC2B8ne200100Ev
FNA:6,20,_ZNSt3__19allocatorINS_11__tree_nodeINS_12__value_typeIPKvN7testing12_GLOBAL__N_115MockObjectStateEEEPvEEEC1B8ne200100Ev
FNA:6,20,_ZNSt3__19allocatorINS_11__tree_nodeINS_12__value_typeIPKvN7testing12_GLOBAL__N_115MockObjectStateEEEPvEEEC2B8ne200100Ev
FNA:6,1,_ZNSt3__19allocatorINS_11__tree_nodeINS_12__value_typeIi14test_map_valueEEPvEEEC1B8ne200100Ev
FNA:6,1,_ZNSt3__19allocatorINS_11__tree_nodeINS_12__value_typeIi14test_map_valueEEPvEEEC2B8ne200100Ev
FNA:6,21,_ZNSt3__19allocatorINS_11__tree_nodeINS_12basic_stringIcNS_11char_traitsIcEENS0_IcEEEEPvEEEC1B8ne200100Ev
FNA:6,21,_ZNSt3__19allocatorINS_11__tree_nodeINS_12basic_stringIcNS_11char_traitsIcEENS0_IcEEEEPvEEEC2B8ne200100Ev
FNA:6,67,_ZNSt3__19allocatorINS_11__tree_nodeIPN7testing8internal25UntypedFunctionMockerBaseEPvEEEC1B8ne200100Ev
FNA:6,67,_ZNSt3__19allocatorINS_11__tree_nodeIPN7testing8internal25UntypedFunctionMockerBaseEPvEEEC2B8ne200100Ev
FNA:6,37,_ZNSt3__19allocatorINS_12basic_stringIcNS_11char_traitsIcEENS0_IcEEEEEC1B8ne200100Ev
FNA:6,37,_ZNSt3__19allocatorINS_12basic_stringIcNS_11char_traitsIcEENS0_IcEEEEEC2B8ne200100Ev
FNA:6,3,_ZNSt3__19allocatorINS_12basic_stringIwNS_11char_traitsIwEENS0_IwEEEEEC1B8ne200100Ev
FNA:6,3,_ZNSt3__19allocatorINS_12basic_stringIwNS_11char_traitsIwEENS0_IwEEEEEC2B8ne200100Ev
FNA:6,0,_ZNSt3__19allocatorINS_4pairImmEEEC1B8ne200100Ev
FNA:6,0,_ZNSt3__19allocatorINS_4pairImmEEEC2B8ne200100Ev
FNA:6,0,_ZNSt3__19allocatorINS_6vectorIN7testing8internal13edit_distance8EditTypeENS0_IS5_EEEEEC1B8ne200100Ev
FNA:6,0,_ZNSt3__19allocatorINS_6vectorIN7testing8internal13edit_distance8EditTypeENS0_IS5_EEEEEC2B8ne200100Ev
FNA:6,2,_ZNSt3__19allocatorINS_6vectorIcNS0_IcEEEEEC1B8ne200100Ev
FNA:6,2,_ZNSt3__19allocatorINS_6vectorIcNS0_IcEEEEEC2B8ne200100Ev
FNA:6,0,_ZNSt3__19allocatorINS_6vectorIdNS0_IdEEEEEC1B8ne200100Ev
FNA:6,0,_ZNSt3__19allocatorINS_6vectorIdNS0_IdEEEEEC2B8ne200100Ev
FNA:6,2,_ZNSt3__19allocatorINS_6vectorIiNS0_IiEEEEEC1B8ne200100Ev
FNA:6,2,_ZNSt3__19allocatorINS_6vectorIiNS0_IiEEEEEC2B8ne200100Ev
FNA:6,80,_ZNSt3__19allocatorIPKN7testing8internal15ExpectationBaseEEC1B8ne200100Ev
FNA:6,80,_ZNSt3__19allocatorIPKN7testing8internal15ExpectationBaseEEC2B8ne200100Ev
FNA:6,320,_ZNSt3__19allocatorIPKvEC1B8ne200100Ev
FNA:6,320,_ZNSt3__19allocatorIPKvEC2B8ne200100Ev
FNA:6,20,_ZNSt3__19allocatorIPN7testing11EnvironmentEEC1B8ne200100Ev
FNA:6,20,_ZNSt3__19allocatorIPN7testing11EnvironmentEEC2B8ne200100Ev
FNA:6,20,_ZNSt3__19allocatorIPN7testing17TestEventListenerEEC1B8ne200100Ev
FNA:6,20,_ZNSt3__19allocatorIPN7testing17TestEventListenerEEC2B8ne200100Ev
FNA:6,60,_ZNSt3__19allocatorIPN7testing8TestInfoEEC1B8ne200100Ev
FNA:6,60,_ZNSt3__19allocatorIPN7testing8TestInfoEEC2B8ne200100Ev
FNA:6,76,_ZNSt3__19allocatorIPN7testing8internal15ExpectationBaseEEC1B8ne200100Ev
FNA:6,76,_ZNSt3__19allocatorIPN7testing8internal15ExpectationBaseEEC2B8ne200100Ev
FNA:6,20,_ZNSt3__19allocatorIPN7testing8internal30ParameterizedTestSuiteInfoBaseEEC1B8ne200100Ev
FNA:6,20,_ZNSt3__19allocatorIPN7testing8internal30ParameterizedTestSuiteInfoBaseEEC2B8ne200100Ev
FNA:6,20,_ZNSt3__19allocatorIPN7testing9TestSuiteEEC1B8ne200100Ev
FNA:6,20,_ZNSt3__19allocatorIPN7testing9TestSuiteEEC2B8ne200100Ev
FNA:6,3,_ZNSt3__19allocatorIPNS_16__hash_node_baseIPNS_11__hash_nodeINS_17__hash_value_typeImN7testing8internal12CallReactionEEEPvEEEEEC1B8ne200100Ev
FNA:6,3,_ZNSt3__19allocatorIPNS_16__hash_node_baseIPNS_11__hash_nodeINS_17__hash_value_typeImN7testing8internal12CallReactionEEEPvEEEEEC2B8ne200100Ev
FNA:6,3,_ZNSt3__19allocatorIPcEC1B8ne200100Ev
FNA:6,3,_ZNSt3__19allocatorIPcEC2B8ne200100Ev
FNA:6,6,_ZNSt3__19allocatorIPiEC1B8ne200100Ev
FNA:6,6,_ZNSt3__19allocatorIPiEC2B8ne200100Ev
FNA:6,8,_ZNSt3__19allocatorIZN11mock_bufferIcEC1EPcmEUlmE_EC1B8ne200100Ev
FNA:6,8,_ZNSt3__19allocatorIZN11mock_bufferIcEC1EPcmEUlmE_EC2B8ne200100Ev
FNA:6,3,_ZNSt3__19allocatorIZN11mock_bufferIiEC1EPimEUlmE_EC1B8ne200100Ev
FNA:6,3,_ZNSt3__19allocatorIZN11mock_bufferIiEC1EPimEUlmE_EC2B8ne200100Ev
FNA:6,1,_ZNSt3__19allocatorIZN31buffer_test_append_partial_Test8TestBodyEvE3$_0EC1B8ne200100Ev
FNA:6,1,_ZNSt3__19allocatorIZN31buffer_test_append_partial_Test8TestBodyEvE3$_0EC2B8ne200100Ev
FNA:6,1,_ZNSt3__19allocatorIZNK7testing8internal11ThrowActionISt9exceptionEcvNS1_6ActionIFT_DpT0_EEEIvJPcmEEEvEUlSD_mE_EC1B8ne200100Ev
FNA:6,1,_ZNSt3__19allocatorIZNK7testing8internal11ThrowActionISt9exceptionEcvNS1_6ActionIFT_DpT0_EEEIvJPcmEEEvEUlSD_mE_EC2B8ne200100Ev
FNA:6,173258,_ZNSt3__19allocatorIcEC1B8ne200100Ev
FNA:6,173260,_ZNSt3__19allocatorIcEC2B8ne200100Ev
FNA:6,0,_ZNSt3__19allocatorIdEC1B8ne200100Ev
FNA:6,0,_ZNSt3__19allocatorIdEC2B8ne200100Ev
FNA:6,1,_ZNSt3__19allocatorIfEC1B8ne200100Ev
FNA:6,1,_ZNSt3__19allocatorIfEC2B8ne200100Ev
FNA:6,109,_ZNSt3__19allocatorIiEC1B8ne200100Ev
FNA:6,109,_ZNSt3__19allocatorIiEC2B8ne200100Ev
FNA:6,3,_ZNSt3__19allocatorIlEC1B8ne200100Ev
FNA:6,3,_ZNSt3__19allocatorIlEC2B8ne200100Ev
FNA:6,2,_ZNSt3__19allocatorImEC1B8ne200100Ev
FNA:6,2,_ZNSt3__19allocatorImEC2B8ne200100Ev
FNA:6,94,_ZNSt3__19allocatorIwEC1B8ne200100Ev
FNA:6,94,_ZNSt3__19allocatorIwEC2B8ne200100Ev
FNL:7,96
FNA:7,1,_ZNSt3__19allocatorI12check_customEC1B8ne200100INS_10__function6__funcIS1_S2_F11test_resultN3fmt3v1216basic_format_argINS8_7contextEE6handleEEEEEERKNS0_IT_EE
FNA:7,1,_ZNSt3__19allocatorI12check_customEC2B8ne200100INS_10__function6__funcIS1_S2_F11test_resultN3fmt3v1216basic_format_argINS8_7contextEE6handleEEEEEERKNS0_IT_EE
FNA:7,1,_ZNSt3__19allocatorIN7testing6ActionIF11test_resultN3fmt3v1216basic_format_argINS5_7contextEE6handleEEE13ActionAdapterEEC1B8ne200100INS_10__function6__funcISC_SD_SA_EEEERKNS0_IT_EE
FNA:7,1,_ZNSt3__19allocatorIN7testing6ActionIF11test_resultN3fmt3v1216basic_format_argINS5_7contextEE6handleEEE13ActionAdapterEEC2B8ne200100INS_10__function6__funcISC_SD_SA_EEEERKNS0_IT_EE
FNA:7,1,_ZNSt3__19allocatorIN7testing6ActionIF11test_resultN3fmt3v1217basic_string_viewIcEEEE13ActionAdapterEEC1B8ne200100INS_10__function6__funcISA_SB_S8_EEEERKNS0_IT_EE
FNA:7,1,_ZNSt3__19allocatorIN7testing6ActionIF11test_resultN3fmt3v1217basic_string_viewIcEEEE13ActionAdapterEEC2B8ne200100INS_10__function6__funcISA_SB_S8_EEEERKNS0_IT_EE
FNA:7,1,_ZNSt3__19allocatorIN7testing6ActionIF11test_resultN3fmt3v129monostateEEE13ActionAdapterEEC1B8ne200100INS_10__function6__funcIS9_SA_S7_EEEERKNS0_IT_EE
FNA:7,1,_ZNSt3__19allocatorIN7testing6ActionIF11test_resultN3fmt3v129monostateEEE13ActionAdapterEEC2B8ne200100INS_10__function6__funcIS9_SA_S7_EEEERKNS0_IT_EE
FNA:7,1,_ZNSt3__19allocatorIN7testing6ActionIF11test_resultPKcEE13ActionAdapterEEC1B8ne200100INS_10__function6__funcIS8_S9_S6_EEEERKNS0_IT_EE
FNA:7,1,_ZNSt3__19allocatorIN7testing6ActionIF11test_resultPKcEE13ActionAdapterEEC2B8ne200100INS_10__function6__funcIS8_S9_S6_EEEERKNS0_IT_EE
FNA:7,4,_ZNSt3__19allocatorIN7testing6ActionIF11test_resultPKvEE13ActionAdapterEEC1B8ne200100INS_10__function6__funcIS8_S9_S6_EEEERKNS0_IT_EE
FNA:7,4,_ZNSt3__19allocatorIN7testing6ActionIF11test_resultPKvEE13ActionAdapterEEC2B8ne200100INS_10__function6__funcIS8_S9_S6_EEEERKNS0_IT_EE
FNA:7,3,_ZNSt3__19allocatorIN7testing6ActionIF11test_resultbEE13ActionAdapterEEC1B8ne200100INS_10__function6__funcIS6_S7_S4_EEEERKNS0_IT_EE
FNA:7,3,_ZNSt3__19allocatorIN7testing6ActionIF11test_resultbEE13ActionAdapterEEC2B8ne200100INS_10__function6__funcIS6_S7_S4_EEEERKNS0_IT_EE
FNA:7,1,_ZNSt3__19allocatorIN7testing6ActionIF11test_resultcEE13ActionAdapterEEC1B8ne200100INS_10__function6__funcIS6_S7_S4_EEEERKNS0_IT_EE
FNA:7,1,_ZNSt3__19allocatorIN7testing6ActionIF11test_resultcEE13ActionAdapterEEC2B8ne200100INS_10__function6__funcIS6_S7_S4_EEEERKNS0_IT_EE
FNA:7,3,_ZNSt3__19allocatorIN7testing6ActionIF11test_resultdEE13ActionAdapterEEC1B8ne200100INS_10__function6__funcIS6_S7_S4_EEEERKNS0_IT_EE
FNA:7,3,_ZNSt3__19allocatorIN7testing6ActionIF11test_resultdEE13ActionAdapterEEC2B8ne200100INS_10__function6__funcIS6_S7_S4_EEEERKNS0_IT_EE
FNA:7,3,_ZNSt3__19allocatorIN7testing6ActionIF11test_resulteEE13ActionAdapterEEC1B8ne200100INS_10__function6__funcIS6_S7_S4_EEEERKNS0_IT_EE
FNA:7,3,_ZNSt3__19allocatorIN7testing6ActionIF11test_resulteEE13ActionAdapterEEC2B8ne200100INS_10__function6__funcIS6_S7_S4_EEEERKNS0_IT_EE
FNA:7,3,_ZNSt3__19allocatorIN7testing6ActionIF11test_resultfEE13ActionAdapterEEC1B8ne200100INS_10__function6__funcIS6_S7_S4_EEEERKNS0_IT_EE
FNA:7,3,_ZNSt3__19allocatorIN7testing6ActionIF11test_resultfEE13ActionAdapterEEC2B8ne200100INS_10__function6__funcIS6_S7_S4_EEEERKNS0_IT_EE
FNA:7,9,_ZNSt3__19allocatorIN7testing6ActionIF11test_resultiEE13ActionAdapterEEC1B8ne200100INS_10__function6__funcIS6_S7_S4_EEEERKNS0_IT_EE
FNA:7,9,_ZNSt3__19allocatorIN7testing6ActionIF11test_resultiEE13ActionAdapterEEC2B8ne200100INS_10__function6__funcIS6_S7_S4_EEEERKNS0_IT_EE
FNA:7,9,_ZNSt3__19allocatorIN7testing6ActionIF11test_resultjEE13ActionAdapterEEC1B8ne200100INS_10__function6__funcIS6_S7_S4_EEEERKNS0_IT_EE
FNA:7,9,_ZNSt3__19allocatorIN7testing6ActionIF11test_resultjEE13ActionAdapterEEC2B8ne200100INS_10__function6__funcIS6_S7_S4_EEEERKNS0_IT_EE
FNA:7,6,_ZNSt3__19allocatorIN7testing6ActionIF11test_resultxEE13ActionAdapterEEC1B8ne200100INS_10__function6__funcIS6_S7_S4_EEEERKNS0_IT_EE
FNA:7,6,_ZNSt3__19allocatorIN7testing6ActionIF11test_resultxEE13ActionAdapterEEC2B8ne200100INS_10__function6__funcIS6_S7_S4_EEEERKNS0_IT_EE
FNA:7,6,_ZNSt3__19allocatorIN7testing6ActionIF11test_resultyEE13ActionAdapterEEC1B8ne200100INS_10__function6__funcIS6_S7_S4_EEEERKNS0_IT_EE
FNA:7,6,_ZNSt3__19allocatorIN7testing6ActionIF11test_resultyEE13ActionAdapterEEC2B8ne200100INS_10__function6__funcIS6_S7_S4_EEEERKNS0_IT_EE
FNA:7,3,_ZNSt3__19allocatorIN7testing6ActionIFPcmEE13ActionAdapterEEC1B8ne200100INS_10__function6__funcIS6_S7_S4_EEEERKNS0_IT_EE
FNA:7,3,_ZNSt3__19allocatorIN7testing6ActionIFPcmEE13ActionAdapterEEC2B8ne200100INS_10__function6__funcIS6_S7_S4_EEEERKNS0_IT_EE
FNA:7,4,_ZNSt3__19allocatorIN7testing6ActionIFPimEE13ActionAdapterEEC1B8ne200100INS_10__function6__funcIS6_S7_S4_EEEERKNS0_IT_EE
FNA:7,4,_ZNSt3__19allocatorIN7testing6ActionIFPimEE13ActionAdapterEEC2B8ne200100INS_10__function6__funcIS6_S7_S4_EEEERKNS0_IT_EE
FNA:7,3,_ZNSt3__19allocatorIN7testing6ActionIFlPKvlEE13ActionAdapterEEC1B8ne200100INS_10__function6__funcIS7_S8_S5_EEEERKNS0_IT_EE
FNA:7,3,_ZNSt3__19allocatorIN7testing6ActionIFlPKvlEE13ActionAdapterEEC2B8ne200100INS_10__function6__funcIS7_S8_S5_EEEERKNS0_IT_EE
FNA:7,2,_ZNSt3__19allocatorIN7testing6ActionIFmmEE13ActionAdapterEEC1B8ne200100INS_10__function6__funcIS5_S6_S3_EEEERKNS0_IT_EE
FNA:7,2,_ZNSt3__19allocatorIN7testing6ActionIFmmEE13ActionAdapterEEC2B8ne200100INS_10__function6__funcIS5_S6_S3_EEEERKNS0_IT_EE
FNA:7,1,_ZNSt3__19allocatorINS_10__function6__funcI12check_customNS0_IS3_EEF11test_resultN3fmt3v1216basic_format_argINS7_7contextEE6handleEEEEEC1B8ne200100IS3_EERKNS0_IT_EE
FNA:7,1,_ZNSt3__19allocatorINS_10__function6__funcI12check_customNS0_IS3_EEF11test_resultN3fmt3v1216basic_format_argINS7_7contextEE6handleEEEEEC2B8ne200100IS3_EERKNS0_IT_EE
FNA:7,1,_ZNSt3__19allocatorINS_10__function6__funcIN7testing6ActionIF11test_resultN3fmt3v1216basic_format_argINS7_7contextEE6handleEEE13ActionAdapterENS0_ISE_EESC_EEEC1B8ne200100ISE_EERKNS0_IT_EE
FNA:7,1,_ZNSt3__19allocatorINS_10__function6__funcIN7testing6ActionIF11test_resultN3fmt3v1216basic_format_argINS7_7contextEE6handleEEE13ActionAdapterENS0_ISE_EESC_EEEC2B8ne200100ISE_EERKNS0_IT_EE
FNA:7,1,_ZNSt3__19allocatorINS_10__function6__funcIN7testing6ActionIF11test_resultN3fmt3v1217basic_string_viewIcEEEE13ActionAdapterENS0_ISC_EESA_EEEC1B8ne200100ISC_EERKNS0_IT_EE
FNA:7,1,_ZNSt3__19allocatorINS_10__function6__funcIN7testing6ActionIF11test_resultN3fmt3v1217basic_string_viewIcEEEE13ActionAdapterENS0_ISC_EESA_EEEC2B8ne200100ISC_EERKNS0_IT_EE
FNA:7,1,_ZNSt3__19allocatorINS_10__function6__funcIN7testing6ActionIF11test_resultN3fmt3v129monostateEEE13ActionAdapterENS0_ISB_EES9_EEEC1B8ne200100ISB_EERKNS0_IT_EE
FNA:7,1,_ZNSt3__19allocatorINS_10__function6__funcIN7testing6ActionIF11test_resultN3fmt3v129monostateEEE13ActionAdapterENS0_ISB_EES9_EEEC2B8ne200100ISB_EERKNS0_IT_EE
FNA:7,1,_ZNSt3__19allocatorINS_10__function6__funcIN7testing6ActionIF11test_resultPKcEE13ActionAdapterENS0_ISA_EES8_EEEC1B8ne200100ISA_EERKNS0_IT_EE
FNA:7,1,_ZNSt3__19allocatorINS_10__function6__funcIN7testing6ActionIF11test_resultPKcEE13ActionAdapterENS0_ISA_EES8_EEEC2B8ne200100ISA_EERKNS0_IT_EE
FNA:7,4,_ZNSt3__19allocatorINS_10__function6__funcIN7testing6ActionIF11test_resultPKvEE13ActionAdapterENS0_ISA_EES8_EEEC1B8ne200100ISA_EERKNS0_IT_EE
FNA:7,4,_ZNSt3__19allocatorINS_10__function6__funcIN7testing6ActionIF11test_resultPKvEE13ActionAdapterENS0_ISA_EES8_EEEC2B8ne200100ISA_EERKNS0_IT_EE
FNA:7,3,_ZNSt3__19allocatorINS_10__function6__funcIN7testing6ActionIF11test_resultbEE13ActionAdapterENS0_IS8_EES6_EEEC1B8ne200100IS8_EERKNS0_IT_EE
FNA:7,3,_ZNSt3__19allocatorINS_10__function6__funcIN7testing6ActionIF11test_resultbEE13ActionAdapterENS0_IS8_EES6_EEEC2B8ne200100IS8_EERKNS0_IT_EE
FNA:7,1,_ZNSt3__19allocatorINS_10__function6__funcIN7testing6ActionIF11test_resultcEE13ActionAdapterENS0_IS8_EES6_EEEC1B8ne200100IS8_EERKNS0_IT_EE
FNA:7,1,_ZNSt3__19allocatorINS_10__function6__funcIN7testing6ActionIF11test_resultcEE13ActionAdapterENS0_IS8_EES6_EEEC2B8ne200100IS8_EERKNS0_IT_EE
FNA:7,3,_ZNSt3__19allocatorINS_10__function6__funcIN7testing6ActionIF11test_resultdEE13ActionAdapterENS0_IS8_EES6_EEEC1B8ne200100IS8_EERKNS0_IT_EE
FNA:7,3,_ZNSt3__19allocatorINS_10__function6__funcIN7testing6ActionIF11test_resultdEE13ActionAdapterENS0_IS8_EES6_EEEC2B8ne200100IS8_EERKNS0_IT_EE
FNA:7,3,_ZNSt3__19allocatorINS_10__function6__funcIN7testing6ActionIF11test_resulteEE13ActionAdapterENS0_IS8_EES6_EEEC1B8ne200100IS8_EERKNS0_IT_EE
FNA:7,3,_ZNSt3__19allocatorINS_10__function6__funcIN7testing6ActionIF11test_resulteEE13ActionAdapterENS0_IS8_EES6_EEEC2B8ne200100IS8_EERKNS0_IT_EE
FNA:7,3,_ZNSt3__19allocatorINS_10__function6__funcIN7testing6ActionIF11test_resultfEE13ActionAdapterENS0_IS8_EES6_EEEC1B8ne200100IS8_EERKNS0_IT_EE
FNA:7,3,_ZNSt3__19allocatorINS_10__function6__funcIN7testing6ActionIF11test_resultfEE13ActionAdapterENS0_IS8_EES6_EEEC2B8ne200100IS8_EERKNS0_IT_EE
FNA:7,9,_ZNSt3__19allocatorINS_10__function6__funcIN7testing6ActionIF11test_resultiEE13ActionAdapterENS0_IS8_EES6_EEEC1B8ne200100IS8_EERKNS0_IT_EE
FNA:7,9,_ZNSt3__19allocatorINS_10__function6__funcIN7testing6ActionIF11test_resultiEE13ActionAdapterENS0_IS8_EES6_EEEC2B8ne200100IS8_EERKNS0_IT_EE
FNA:7,9,_ZNSt3__19allocatorINS_10__function6__funcIN7testing6ActionIF11test_resultjEE13ActionAdapterENS0_IS8_EES6_EEEC1B8ne200100IS8_EERKNS0_IT_EE
FNA:7,9,_ZNSt3__19allocatorINS_10__function6__funcIN7testing6ActionIF11test_resultjEE13ActionAdapterENS0_IS8_EES6_EEEC2B8ne200100IS8_EERKNS0_IT_EE
FNA:7,6,_ZNSt3__19allocatorINS_10__function6__funcIN7testing6ActionIF11test_resultxEE13ActionAdapterENS0_IS8_EES6_EEEC1B8ne200100IS8_EERKNS0_IT_EE
FNA:7,6,_ZNSt3__19allocatorINS_10__function6__funcIN7testing6ActionIF11test_resultxEE13ActionAdapterENS0_IS8_EES6_EEEC2B8ne200100IS8_EERKNS0_IT_EE
FNA:7,6,_ZNSt3__19allocatorINS_10__function6__funcIN7testing6ActionIF11test_resultyEE13ActionAdapterENS0_IS8_EES6_EEEC1B8ne200100IS8_EERKNS0_IT_EE
FNA:7,6,_ZNSt3__19allocatorINS_10__function6__funcIN7testing6ActionIF11test_resultyEE13ActionAdapterENS0_IS8_EES6_EEEC2B8ne200100IS8_EERKNS0_IT_EE
FNA:7,3,_ZNSt3__19allocatorINS_10__function6__funcIN7testing6ActionIFPcmEE13ActionAdapterENS0_IS8_EES6_EEEC1B8ne200100IS8_EERKNS0_IT_EE
FNA:7,3,_ZNSt3__19allocatorINS_10__function6__funcIN7testing6ActionIFPcmEE13ActionAdapterENS0_IS8_EES6_EEEC2B8ne200100IS8_EERKNS0_IT_EE
FNA:7,4,_ZNSt3__19allocatorINS_10__function6__funcIN7testing6ActionIFPimEE13ActionAdapterENS0_IS8_EES6_EEEC1B8ne200100IS8_EERKNS0_IT_EE
FNA:7,4,_ZNSt3__19allocatorINS_10__function6__funcIN7testing6ActionIFPimEE13ActionAdapterENS0_IS8_EES6_EEEC2B8ne200100IS8_EERKNS0_IT_EE
FNA:7,3,_ZNSt3__19allocatorINS_10__function6__funcIN7testing6ActionIFlPKvlEE13ActionAdapterENS0_IS9_EES7_EEEC1B8ne200100IS9_EERKNS0_IT_EE
FNA:7,3,_ZNSt3__19allocatorINS_10__function6__funcIN7testing6ActionIFlPKvlEE13ActionAdapterENS0_IS9_EES7_EEEC2B8ne200100IS9_EERKNS0_IT_EE
FNA:7,2,_ZNSt3__19allocatorINS_10__function6__funcIN7testing6ActionIFmmEE13ActionAdapterENS0_IS7_EES5_EEEC1B8ne200100IS7_EERKNS0_IT_EE
FNA:7,2,_ZNSt3__19allocatorINS_10__function6__funcIN7testing6ActionIFmmEE13ActionAdapterENS0_IS7_EES5_EEEC2B8ne200100IS7_EERKNS0_IT_EE
FNA:7,8,_ZNSt3__19allocatorINS_10__function6__funcIZN11mock_bufferIcEC1EPcmEUlmE_NS0_IS6_EEFmmEEEEC1B8ne200100IS6_EERKNS0_IT_EE
FNA:7,8,_ZNSt3__19allocatorINS_10__function6__funcIZN11mock_bufferIcEC1EPcmEUlmE_NS0_IS6_EEFmmEEEEC2B8ne200100IS6_EERKNS0_IT_EE
FNA:7,3,_ZNSt3__19allocatorINS_10__function6__funcIZN11mock_bufferIiEC1EPimEUlmE_NS0_IS6_EEFmmEEEEC1B8ne200100IS6_EERKNS0_IT_EE
FNA:7,3,_ZNSt3__19allocatorINS_10__function6__funcIZN11mock_bufferIiEC1EPimEUlmE_NS0_IS6_EEFmmEEEEC2B8ne200100IS6_EERKNS0_IT_EE
FNA:7,1,_ZNSt3__19allocatorINS_10__function6__funcIZN31buffer_test_append_partial_Test8TestBodyEvE3$_0NS0_IS4_EEFmmEEEEC1B8ne200100IS4_EERKNS0_IT_EE
FNA:7,1,_ZNSt3__19allocatorINS_10__function6__funcIZN31buffer_test_append_partial_Test8TestBodyEvE3$_0NS0_IS4_EEFmmEEEEC2B8ne200100IS4_EERKNS0_IT_EE
FNA:7,1,_ZNSt3__19allocatorINS_10__function6__funcIZNK7testing8internal11ThrowActionISt9exceptionEcvNS3_6ActionIFT_DpT0_EEEIvJPcmEEEvEUlSF_mE_NS0_ISG_EEFvSF_mEEEEC1B8ne200100ISG_EERKNS0_IS9_EE
FNA:7,1,_ZNSt3__19allocatorINS_10__function6__funcIZNK7testing8internal11ThrowActionISt9exceptionEcvNS3_6ActionIFT_DpT0_EEEIvJPcmEEEvEUlSF_mE_NS0_ISG_EEFvSF_mEEEEC2B8ne200100ISG_EERKNS0_IS9_EE
FNA:7,51,_ZNSt3__19allocatorINS_20__shared_ptr_pointerIP11test_resultNS_10shared_ptrIS2_E27__shared_ptr_default_deleteIS2_S2_EENS0_IS2_EEEEEC1B8ne200100IS2_EERKNS0_IT_EE
FNA:7,51,_ZNSt3__19allocatorINS_20__shared_ptr_pointerIP11test_resultNS_10shared_ptrIS2_E27__shared_ptr_default_deleteIS2_S2_EENS0_IS2_EEEEEC2B8ne200100IS2_EERKNS0_IT_EE
FNA:7,91,_ZNSt3__19allocatorINS_20__shared_ptr_pointerIPKN7testing20CardinalityInterfaceENS_10shared_ptrIS4_E27__shared_ptr_default_deleteIS4_S4_EENS0_IS3_EEEEEC1B8ne200100IS3_EERKNS0_IT_EE
FNA:7,91,_ZNSt3__19allocatorINS_20__shared_ptr_pointerIPKN7testing20CardinalityInterfaceENS_10shared_ptrIS4_E27__shared_ptr_default_deleteIS4_S4_EENS0_IS3_EEEEEC2B8ne200100IS3_EERKNS0_IT_EE
FNA:7,0,_ZNSt3__19allocatorINS_20__shared_ptr_pointerIPKN7testing8internal2REENS_10shared_ptrIS5_E27__shared_ptr_default_deleteIS5_S5_EENS0_IS4_EEEEEC1B8ne200100IS4_EERKNS0_IT_EE
FNA:7,0,_ZNSt3__19allocatorINS_20__shared_ptr_pointerIPKN7testing8internal2REENS_10shared_ptrIS5_E27__shared_ptr_default_deleteIS5_S5_EENS0_IS4_EEEEEC2B8ne200100IS4_EERKNS0_IT_EE
FNA:7,2,_ZNSt3__19allocatorINS_20__shared_ptr_pointerIPN7testing11ExpectationENS_10shared_ptrIS3_E27__shared_ptr_default_deleteIS3_S3_EENS0_IS3_EEEEEC1B8ne200100IS3_EERKNS0_IT_EE
FNA:7,2,_ZNSt3__19allocatorINS_20__shared_ptr_pointerIPN7testing11ExpectationENS_10shared_ptrIS3_E27__shared_ptr_default_deleteIS3_S3_EENS0_IS3_EEEEEC2B8ne200100IS3_EERKNS0_IT_EE
FNA:7,1,_ZNSt3__19allocatorINS_20__shared_ptr_pointerIPN7testing15ActionInterfaceIF11test_resultN3fmt3v1216basic_format_argINS6_7contextEE6handleEEEENS_10shared_ptrISC_E27__shared_ptr_default_deleteISC_SC_EENS0_ISC_EEEEEC1B8ne200100ISC_EERKNS0_IT_EE
FNA:7,1,_ZNSt3__19allocatorINS_20__shared_ptr_pointerIPN7testing15ActionInterfaceIF11test_resultN3fmt3v1216basic_format_argINS6_7contextEE6handleEEEENS_10shared_ptrISC_E27__shared_ptr_default_deleteISC_SC_EENS0_ISC_EEEEEC2B8ne200100ISC_EERKNS0_IT_EE
FNA:7,1,_ZNSt3__19allocatorINS_20__shared_ptr_pointerIPN7testing15ActionInterfaceIF11test_resultN3fmt3v1217basic_string_viewIcEEEEENS_10shared_ptrISA_E27__shared_ptr_default_deleteISA_SA_EENS0_ISA_EEEEEC1B8ne200100ISA_EERKNS0_IT_EE
FNA:7,1,_ZNSt3__19allocatorINS_20__shared_ptr_pointerIPN7testing15ActionInterfaceIF11test_resultN3fmt3v1217basic_string_viewIcEEEEENS_10shared_ptrISA_E27__shared_ptr_default_deleteISA_SA_EENS0_ISA_EEEEEC2B8ne200100ISA_EERKNS0_IT_EE
FNA:7,1,_ZNSt3__19allocatorINS_20__shared_ptr_pointerIPN7testing15ActionInterfaceIF11test_resultN3fmt3v129monostateEEEENS_10shared_ptrIS9_E27__shared_ptr_default_deleteIS9_S9_EENS0_IS9_EEEEEC1B8ne200100IS9_EERKNS0_IT_EE
FNA:7,1,_ZNSt3__19allocatorINS_20__shared_ptr_pointerIPN7testing15ActionInterfaceIF11test_resultN3fmt3v129monostateEEEENS_10shared_ptrIS9_E27__shared_ptr_default_deleteIS9_S9_EENS0_IS9_EEEEEC2B8ne200100IS9_EERKNS0_IT_EE
FNA:7,1,_ZNSt3__19allocatorINS_20__shared_ptr_pointerIPN7testing15ActionInterfaceIF11test_resultPKcEEENS_10shared_ptrIS8_E27__shared_ptr_default_deleteIS8_S8_EENS0_IS8_EEEEEC1B8ne200100IS8_EERKNS0_IT_EE
FNA:7,1,_ZNSt3__19allocatorINS_20__shared_ptr_pointerIPN7testing15ActionInterfaceIF11test_resultPKcEEENS_10shared_ptrIS8_E27__shared_ptr_default_deleteIS8_S8_EENS0_IS8_EEEEEC2B8ne200100IS8_EERKNS0_IT_EE
FNA:7,4,_ZNSt3__19allocatorINS_20__shared_ptr_pointerIPN7testing15ActionInterfaceIF11test_resultPKvEEENS_10shared_ptrIS8_E27__shared_ptr_default_deleteIS8_S8_EENS0_IS8_EEEEEC1B8ne200100IS8_EERKNS0_IT_EE
FNA:7,4,_ZNSt3__19allocatorINS_20__shared_ptr_pointerIPN7testing15ActionInterfaceIF11test_resultPKvEEENS_10shared_ptrIS8_E27__shared_ptr_default_deleteIS8_S8_EENS0_IS8_EEEEEC2B8ne200100IS8_EERKNS0_IT_EE
FNA:7,3,_ZNSt3__19allocatorINS_20__shared_ptr_pointerIPN7testing15ActionInterfaceIF11test_resultbEEENS_10shared_ptrIS6_E27__shared_ptr_default_deleteIS6_S6_EENS0_IS6_EEEEEC1B8ne200100IS6_EERKNS0_IT_EE
FNA:7,3,_ZNSt3__19allocatorINS_20__shared_ptr_pointerIPN7testing15ActionInterfaceIF11test_resultbEEENS_10shared_ptrIS6_E27__shared_ptr_default_deleteIS6_S6_EENS0_IS6_EEEEEC2B8ne200100IS6_EERKNS0_IT_EE
FNA:7,1,_ZNSt3__19allocatorINS_20__shared_ptr_pointerIPN7testing15ActionInterfaceIF11test_resultcEEENS_10shared_ptrIS6_E27__shared_ptr_default_deleteIS6_S6_EENS0_IS6_EEEEEC1B8ne200100IS6_EERKNS0_IT_EE
FNA:7,1,_ZNSt3__19allocatorINS_20__shared_ptr_pointerIPN7testing15ActionInterfaceIF11test_resultcEEENS_10shared_ptrIS6_E27__shared_ptr_default_deleteIS6_S6_EENS0_IS6_EEEEEC2B8ne200100IS6_EERKNS0_IT_EE
FNA:7,3,_ZNSt3__19allocatorINS_20__shared_ptr_pointerIPN7testing15ActionInterfaceIF11test_resultdEEENS_10shared_ptrIS6_E27__shared_ptr_default_deleteIS6_S6_EENS0_IS6_EEEEEC1B8ne200100IS6_EERKNS0_IT_EE
FNA:7,3,_ZNSt3__19allocatorINS_20__shared_ptr_pointerIPN7testing15ActionInterfaceIF11test_resultdEEENS_10shared_ptrIS6_E27__shared_ptr_default_deleteIS6_S6_EENS0_IS6_EEEEEC2B8ne200100IS6_EERKNS0_IT_EE
FNA:7,3,_ZNSt3__19allocatorINS_20__shared_ptr_pointerIPN7testing15ActionInterfaceIF11test_resulteEEENS_10shared_ptrIS6_E27__shared_ptr_default_deleteIS6_S6_EENS0_IS6_EEEEEC1B8ne200100IS6_EERKNS0_IT_EE
FNA:7,3,_ZNSt3__19allocatorINS_20__shared_ptr_pointerIPN7testing15ActionInterfaceIF11test_resulteEEENS_10shared_ptrIS6_E27__shared_ptr_default_deleteIS6_S6_EENS0_IS6_EEEEEC2B8ne200100IS6_EERKNS0_IT_EE
FNA:7,3,_ZNSt3__19allocatorINS_20__shared_ptr_pointerIPN7testing15ActionInterfaceIF11test_resultfEEENS_10shared_ptrIS6_E27__shared_ptr_default_deleteIS6_S6_EENS0_IS6_EEEEEC1B8ne200100IS6_EERKNS0_IT_EE
FNA:7,3,_ZNSt3__19allocatorINS_20__shared_ptr_pointerIPN7testing15ActionInterfaceIF11test_resultfEEENS_10shared_ptrIS6_E27__shared_ptr_default_deleteIS6_S6_EENS0_IS6_EEEEEC2B8ne200100IS6_EERKNS0_IT_EE
FNA:7,9,_ZNSt3__19allocatorINS_20__shared_ptr_pointerIPN7testing15ActionInterfaceIF11test_resultiEEENS_10shared_ptrIS6_E27__shared_ptr_default_deleteIS6_S6_EENS0_IS6_EEEEEC1B8ne200100IS6_EERKNS0_IT_EE
FNA:7,9,_ZNSt3__19allocatorINS_20__shared_ptr_pointerIPN7testing15ActionInterfaceIF11test_resultiEEENS_10shared_ptrIS6_E27__shared_ptr_default_deleteIS6_S6_EENS0_IS6_EEEEEC2B8ne200100IS6_EERKNS0_IT_EE
FNA:7,9,_ZNSt3__19allocatorINS_20__shared_ptr_pointerIPN7testing15ActionInterfaceIF11test_resultjEEENS_10shared_ptrIS6_E27__shared_ptr_default_deleteIS6_S6_EENS0_IS6_EEEEEC1B8ne200100IS6_EERKNS0_IT_EE
FNA:7,9,_ZNSt3__19allocatorINS_20__shared_ptr_pointerIPN7testing15ActionInterfaceIF11test_resultjEEENS_10shared_ptrIS6_E27__shared_ptr_default_deleteIS6_S6_EENS0_IS6_EEEEEC2B8ne200100IS6_EERKNS0_IT_EE
FNA:7,6,_ZNSt3__19allocatorINS_20__shared_ptr_pointerIPN7testing15ActionInterfaceIF11test_resultxEEENS_10shared_ptrIS6_E27__shared_ptr_default_deleteIS6_S6_EENS0_IS6_EEEEEC1B8ne200100IS6_EERKNS0_IT_EE
FNA:7,6,_ZNSt3__19allocatorINS_20__shared_ptr_pointerIPN7testing15ActionInterfaceIF11test_resultxEEENS_10shared_ptrIS6_E27__shared_ptr_default_deleteIS6_S6_EENS0_IS6_EEEEEC2B8ne200100IS6_EERKNS0_IT_EE
FNA:7,6,_ZNSt3__19allocatorINS_20__shared_ptr_pointerIPN7testing15ActionInterfaceIF11test_resultyEEENS_10shared_ptrIS6_E27__shared_ptr_default_deleteIS6_S6_EENS0_IS6_EEEEEC1B8ne200100IS6_EERKNS0_IT_EE
FNA:7,6,_ZNSt3__19allocatorINS_20__shared_ptr_pointerIPN7testing15ActionInterfaceIF11test_resultyEEENS_10shared_ptrIS6_E27__shared_ptr_default_deleteIS6_S6_EENS0_IS6_EEEEEC2B8ne200100IS6_EERKNS0_IT_EE
FNA:7,3,_ZNSt3__19allocatorINS_20__shared_ptr_pointerIPN7testing15ActionInterfaceIFPcmEEENS_10shared_ptrIS6_E27__shared_ptr_default_deleteIS6_S6_EENS0_IS6_EEEEEC1B8ne200100IS6_EERKNS0_IT_EE
FNA:7,3,_ZNSt3__19allocatorINS_20__shared_ptr_pointerIPN7testing15ActionInterfaceIFPcmEEENS_10shared_ptrIS6_E27__shared_ptr_default_deleteIS6_S6_EENS0_IS6_EEEEEC2B8ne200100IS6_EERKNS0_IT_EE
FNA:7,4,_ZNSt3__19allocatorINS_20__shared_ptr_pointerIPN7testing15ActionInterfaceIFPimEEENS_10shared_ptrIS6_E27__shared_ptr_default_deleteIS6_S6_EENS0_IS6_EEEEEC1B8ne200100IS6_EERKNS0_IT_EE
FNA:7,4,_ZNSt3__19allocatorINS_20__shared_ptr_pointerIPN7testing15ActionInterfaceIFPimEEENS_10shared_ptrIS6_E27__shared_ptr_default_deleteIS6_S6_EENS0_IS6_EEEEEC2B8ne200100IS6_EERKNS0_IT_EE
FNA:7,3,_ZNSt3__19allocatorINS_20__shared_ptr_pointerIPN7testing15ActionInterfaceIFlPKvlEEENS_10shared_ptrIS7_E27__shared_ptr_default_deleteIS7_S7_EENS0_IS7_EEEEEC1B8ne200100IS7_EERKNS0_IT_EE
FNA:7,3,_ZNSt3__19allocatorINS_20__shared_ptr_pointerIPN7testing15ActionInterfaceIFlPKvlEEENS_10shared_ptrIS7_E27__shared_ptr_default_deleteIS7_S7_EENS0_IS7_EEEEEC2B8ne200100IS7_EERKNS0_IT_EE
FNA:7,2,_ZNSt3__19allocatorINS_20__shared_ptr_pointerIPN7testing15ActionInterfaceIFmmEEENS_10shared_ptrIS5_E27__shared_ptr_default_deleteIS5_S5_EENS0_IS5_EEEEEC1B8ne200100IS5_EERKNS0_IT_EE
FNA:7,2,_ZNSt3__19allocatorINS_20__shared_ptr_pointerIPN7testing15ActionInterfaceIFmmEEENS_10shared_ptrIS5_E27__shared_ptr_default_deleteIS5_S5_EENS0_IS5_EEEEEC2B8ne200100IS5_EERKNS0_IT_EE
FNA:7,1,_ZNSt3__19allocatorINS_20__shared_ptr_pointerIPN7testing8internal16TypedExpectationIF11test_resultN3fmt3v1216basic_format_argINS7_7contextEE6handleEEEENS_10shared_ptrINS3_15ExpectationBaseEE27__shared_ptr_default_deleteISG_SD_EENS0_ISD_EEEEEC1B8ne200100ISD_EERKNS0_IT_EE
FNA:7,1,_ZNSt3__19allocatorINS_20__shared_ptr_pointerIPN7testing8internal16TypedExpectationIF11test_resultN3fmt3v1216basic_format_argINS7_7contextEE6handleEEEENS_10shared_ptrINS3_15ExpectationBaseEE27__shared_ptr_default_deleteISG_SD_EENS0_ISD_EEEEEC2B8ne200100ISD_EERKNS0_IT_EE
FNA:7,1,_ZNSt3__19allocatorINS_20__shared_ptr_pointerIPN7testing8internal16TypedExpectationIF11test_resultN3fmt3v1217basic_string_viewIcEEEEENS_10shared_ptrINS3_15ExpectationBaseEE27__shared_ptr_default_deleteISE_SB_EENS0_ISB_EEEEEC1B8ne200100ISB_EERKNS0_IT_EE
FNA:7,1,_ZNSt3__19allocatorINS_20__shared_ptr_pointerIPN7testing8internal16TypedExpectationIF11test_resultN3fmt3v1217basic_string_viewIcEEEEENS_10shared_ptrINS3_15ExpectationBaseEE27__shared_ptr_default_deleteISE_SB_EENS0_ISB_EEEEEC2B8ne200100ISB_EERKNS0_IT_EE
FNA:7,1,_ZNSt3__19allocatorINS_20__shared_ptr_pointerIPN7testing8internal16TypedExpectationIF11test_resultN3fmt3v129monostateEEEENS_10shared_ptrINS3_15ExpectationBaseEE27__shared_ptr_default_deleteISD_SA_EENS0_ISA_EEEEEC1B8ne200100ISA_EERKNS0_IT_EE
FNA:7,1,_ZNSt3__19allocatorINS_20__shared_ptr_pointerIPN7testing8internal16TypedExpectationIF11test_resultN3fmt3v129monostateEEEENS_10shared_ptrINS3_15ExpectationBaseEE27__shared_ptr_default_deleteISD_SA_EENS0_ISA_EEEEEC2B8ne200100ISA_EERKNS0_IT_EE
FNA:7,1,_ZNSt3__19allocatorINS_20__shared_ptr_pointerIPN7testing8internal16TypedExpectationIF11test_resultPKcEEENS_10shared_ptrINS3_15ExpectationBaseEE27__shared_ptr_default_deleteISC_S9_EENS0_IS9_EEEEEC1B8ne200100IS9_EERKNS0_IT_EE
FNA:7,1,_ZNSt3__19allocatorINS_20__shared_ptr_pointerIPN7testing8internal16TypedExpectationIF11test_resultPKcEEENS_10shared_ptrINS3_15ExpectationBaseEE27__shared_ptr_default_deleteISC_S9_EENS0_IS9_EEEEEC2B8ne200100IS9_EERKNS0_IT_EE
FNA:7,4,_ZNSt3__19allocatorINS_20__shared_ptr_pointerIPN7testing8internal16TypedExpectationIF11test_resultPKvEEENS_10shared_ptrINS3_15ExpectationBaseEE27__shared_ptr_default_deleteISC_S9_EENS0_IS9_EEEEEC1B8ne200100IS9_EERKNS0_IT_EE
FNA:7,4,_ZNSt3__19allocatorINS_20__shared_ptr_pointerIPN7testing8internal16TypedExpectationIF11test_resultPKvEEENS_10shared_ptrINS3_15ExpectationBaseEE27__shared_ptr_default_deleteISC_S9_EENS0_IS9_EEEEEC2B8ne200100IS9_EERKNS0_IT_EE
FNA:7,3,_ZNSt3__19allocatorINS_20__shared_ptr_pointerIPN7testing8internal16TypedExpectationIF11test_resultbEEENS_10shared_ptrINS3_15ExpectationBaseEE27__shared_ptr_default_deleteISA_S7_EENS0_IS7_EEEEEC1B8ne200100IS7_EERKNS0_IT_EE
FNA:7,3,_ZNSt3__19allocatorINS_20__shared_ptr_pointerIPN7testing8internal16TypedExpectationIF11test_resultbEEENS_10shared_ptrINS3_15ExpectationBaseEE27__shared_ptr_default_deleteISA_S7_EENS0_IS7_EEEEEC2B8ne200100IS7_EERKNS0_IT_EE
FNA:7,1,_ZNSt3__19allocatorINS_20__shared_ptr_pointerIPN7testing8internal16TypedExpectationIF11test_resultcEEENS_10shared_ptrINS3_15ExpectationBaseEE27__shared_ptr_default_deleteISA_S7_EENS0_IS7_EEEEEC1B8ne200100IS7_EERKNS0_IT_EE
FNA:7,1,_ZNSt3__19allocatorINS_20__shared_ptr_pointerIPN7testing8internal16TypedExpectationIF11test_resultcEEENS_10shared_ptrINS3_15ExpectationBaseEE27__shared_ptr_default_deleteISA_S7_EENS0_IS7_EEEEEC2B8ne200100IS7_EERKNS0_IT_EE
FNA:7,3,_ZNSt3__19allocatorINS_20__shared_ptr_pointerIPN7testing8internal16TypedExpectationIF11test_resultdEEENS_10shared_ptrINS3_15ExpectationBaseEE27__shared_ptr_default_deleteISA_S7_EENS0_IS7_EEEEEC1B8ne200100IS7_EERKNS0_IT_EE
FNA:7,3,_ZNSt3__19allocatorINS_20__shared_ptr_pointerIPN7testing8internal16TypedExpectationIF11test_resultdEEENS_10shared_ptrINS3_15ExpectationBaseEE27__shared_ptr_default_deleteISA_S7_EENS0_IS7_EEEEEC2B8ne200100IS7_EERKNS0_IT_EE
FNA:7,3,_ZNSt3__19allocatorINS_20__shared_ptr_pointerIPN7testing8internal16TypedExpectationIF11test_resulteEEENS_10shared_ptrINS3_15ExpectationBaseEE27__shared_ptr_default_deleteISA_S7_EENS0_IS7_EEEEEC1B8ne200100IS7_EERKNS0_IT_EE
FNA:7,3,_ZNSt3__19allocatorINS_20__shared_ptr_pointerIPN7testing8internal16TypedExpectationIF11test_resulteEEENS_10shared_ptrINS3_15ExpectationBaseEE27__shared_ptr_default_deleteISA_S7_EENS0_IS7_EEEEEC2B8ne200100IS7_EERKNS0_IT_EE
FNA:7,3,_ZNSt3__19allocatorINS_20__shared_ptr_pointerIPN7testing8internal16TypedExpectationIF11test_resultfEEENS_10shared_ptrINS3_15ExpectationBaseEE27__shared_ptr_default_deleteISA_S7_EENS0_IS7_EEEEEC1B8ne200100IS7_EERKNS0_IT_EE
FNA:7,3,_ZNSt3__19allocatorINS_20__shared_ptr_pointerIPN7testing8internal16TypedExpectationIF11test_resultfEEENS_10shared_ptrINS3_15ExpectationBaseEE27__shared_ptr_default_deleteISA_S7_EENS0_IS7_EEEEEC2B8ne200100IS7_EERKNS0_IT_EE
FNA:7,9,_ZNSt3__19allocatorINS_20__shared_ptr_pointerIPN7testing8internal16TypedExpectationIF11test_resultiEEENS_10shared_ptrINS3_15ExpectationBaseEE27__shared_ptr_default_deleteISA_S7_EENS0_IS7_EEEEEC1B8ne200100IS7_EERKNS0_IT_EE
FNA:7,9,_ZNSt3__19allocatorINS_20__shared_ptr_pointerIPN7testing8internal16TypedExpectationIF11test_resultiEEENS_10shared_ptrINS3_15ExpectationBaseEE27__shared_ptr_default_deleteISA_S7_EENS0_IS7_EEEEEC2B8ne200100IS7_EERKNS0_IT_EE
FNA:7,9,_ZNSt3__19allocatorINS_20__shared_ptr_pointerIPN7testing8internal16TypedExpectationIF11test_resultjEEENS_10shared_ptrINS3_15ExpectationBaseEE27__shared_ptr_default_deleteISA_S7_EENS0_IS7_EEEEEC1B8ne200100IS7_EERKNS0_IT_EE
FNA:7,9,_ZNSt3__19allocatorINS_20__shared_ptr_pointerIPN7testing8internal16TypedExpectationIF11test_resultjEEENS_10shared_ptrINS3_15ExpectationBaseEE27__shared_ptr_default_deleteISA_S7_EENS0_IS7_EEEEEC2B8ne200100IS7_EERKNS0_IT_EE
FNA:7,6,_ZNSt3__19allocatorINS_20__shared_ptr_pointerIPN7testing8internal16TypedExpectationIF11test_resultxEEENS_10shared_ptrINS3_15ExpectationBaseEE27__shared_ptr_default_deleteISA_S7_EENS0_IS7_EEEEEC1B8ne200100IS7_EERKNS0_IT_EE
FNA:7,6,_ZNSt3__19allocatorINS_20__shared_ptr_pointerIPN7testing8internal16TypedExpectationIF11test_resultxEEENS_10shared_ptrINS3_15ExpectationBaseEE27__shared_ptr_default_deleteISA_S7_EENS0_IS7_EEEEEC2B8ne200100IS7_EERKNS0_IT_EE
FNA:7,6,_ZNSt3__19allocatorINS_20__shared_ptr_pointerIPN7testing8internal16TypedExpectationIF11test_resultyEEENS_10shared_ptrINS3_15ExpectationBaseEE27__shared_ptr_default_deleteISA_S7_EENS0_IS7_EEEEEC1B8ne200100IS7_EERKNS0_IT_EE
FNA:7,6,_ZNSt3__19allocatorINS_20__shared_ptr_pointerIPN7testing8internal16TypedExpectationIF11test_resultyEEENS_10shared_ptrINS3_15ExpectationBaseEE27__shared_ptr_default_deleteISA_S7_EENS0_IS7_EEEEEC2B8ne200100IS7_EERKNS0_IT_EE
FNA:7,3,_ZNSt3__19allocatorINS_20__shared_ptr_pointerIPN7testing8internal16TypedExpectationIFPcmEEENS_10shared_ptrINS3_15ExpectationBaseEE27__shared_ptr_default_deleteISA_S7_EENS0_IS7_EEEEEC1B8ne200100IS7_EERKNS0_IT_EE
FNA:7,3,_ZNSt3__19allocatorINS_20__shared_ptr_pointerIPN7testing8internal16TypedExpectationIFPcmEEENS_10shared_ptrINS3_15ExpectationBaseEE27__shared_ptr_default_deleteISA_S7_EENS0_IS7_EEEEEC2B8ne200100IS7_EERKNS0_IT_EE
FNA:7,4,_ZNSt3__19allocatorINS_20__shared_ptr_pointerIPN7testing8internal16TypedExpectationIFPimEEENS_10shared_ptrINS3_15ExpectationBaseEE27__shared_ptr_default_deleteISA_S7_EENS0_IS7_EEEEEC1B8ne200100IS7_EERKNS0_IT_EE
FNA:7,4,_ZNSt3__19allocatorINS_20__shared_ptr_pointerIPN7testing8internal16TypedExpectationIFPimEEENS_10shared_ptrINS3_15ExpectationBaseEE27__shared_ptr_default_deleteISA_S7_EENS0_IS7_EEEEEC2B8ne200100IS7_EERKNS0_IT_EE
FNA:7,3,_ZNSt3__19allocatorINS_20__shared_ptr_pointerIPN7testing8internal16TypedExpectationIFlPKvlEEENS_10shared_ptrINS3_15ExpectationBaseEE27__shared_ptr_default_deleteISB_S8_EENS0_IS8_EEEEEC1B8ne200100IS8_EERKNS0_IT_EE
FNA:7,3,_ZNSt3__19allocatorINS_20__shared_ptr_pointerIPN7testing8internal16TypedExpectationIFlPKvlEEENS_10shared_ptrINS3_15ExpectationBaseEE27__shared_ptr_default_deleteISB_S8_EENS0_IS8_EEEEEC2B8ne200100IS8_EERKNS0_IT_EE
FNA:7,8,_ZNSt3__19allocatorINS_20__shared_ptr_pointerIPN7testing8internal16TypedExpectationIFmmEEENS_10shared_ptrINS3_15ExpectationBaseEE27__shared_ptr_default_deleteIS9_S6_EENS0_IS6_EEEEEC1B8ne200100IS6_EERKNS0_IT_EE
FNA:7,8,_ZNSt3__19allocatorINS_20__shared_ptr_pointerIPN7testing8internal16TypedExpectationIFmmEEENS_10shared_ptrINS3_15ExpectationBaseEE27__shared_ptr_default_deleteIS9_S6_EENS0_IS6_EEEEEC2B8ne200100IS6_EERKNS0_IT_EE
FNA:7,3,_ZNSt3__19allocatorINS_20__shared_ptr_pointerIPN7testing8internal16TypedExpectationIFvPcmEEENS_10shared_ptrINS3_15ExpectationBaseEE27__shared_ptr_default_deleteISA_S7_EENS0_IS7_EEEEEC1B8ne200100IS7_EERKNS0_IT_EE
FNA:7,3,_ZNSt3__19allocatorINS_20__shared_ptr_pointerIPN7testing8internal16TypedExpectationIFvPcmEEENS_10shared_ptrINS3_15ExpectationBaseEE27__shared_ptr_default_deleteISA_S7_EENS0_IS7_EEEEEC2B8ne200100IS7_EERKNS0_IT_EE
FNA:7,4,_ZNSt3__19allocatorINS_20__shared_ptr_pointerIPN7testing8internal16TypedExpectationIFvPimEEENS_10shared_ptrINS3_15ExpectationBaseEE27__shared_ptr_default_deleteISA_S7_EENS0_IS7_EEEEEC1B8ne200100IS7_EERKNS0_IT_EE
FNA:7,4,_ZNSt3__19allocatorINS_20__shared_ptr_pointerIPN7testing8internal16TypedExpectationIFvPimEEENS_10shared_ptrINS3_15ExpectationBaseEE27__shared_ptr_default_deleteISA_S7_EENS0_IS7_EEEEEC2B8ne200100IS7_EERKNS0_IT_EE
FNA:7,3,_ZNSt3__19allocatorINS_20__shared_ptr_pointerIPPcNS_10shared_ptrIS2_E27__shared_ptr_default_deleteIS2_S2_EENS0_IS2_EEEEEC1B8ne200100IS2_EERKNS0_IT_EE
FNA:7,3,_ZNSt3__19allocatorINS_20__shared_ptr_pointerIPPcNS_10shared_ptrIS2_E27__shared_ptr_default_deleteIS2_S2_EENS0_IS2_EEEEEC2B8ne200100IS2_EERKNS0_IT_EE
FNA:7,4,_ZNSt3__19allocatorINS_20__shared_ptr_pointerIPPiNS_10shared_ptrIS2_E27__shared_ptr_default_deleteIS2_S2_EENS0_IS2_EEEEEC1B8ne200100IS2_EERKNS0_IT_EE
FNA:7,4,_ZNSt3__19allocatorINS_20__shared_ptr_pointerIPPiNS_10shared_ptrIS2_E27__shared_ptr_default_deleteIS2_S2_EENS0_IS2_EEEEEC2B8ne200100IS2_EERKNS0_IT_EE
FNA:7,3,_ZNSt3__19allocatorINS_20__shared_ptr_pointerIPiNS_10shared_ptrIiE27__shared_ptr_default_deleteIiiEENS0_IiEEEEEC1B8ne200100IiEERKNS0_IT_EE
FNA:7,3,_ZNSt3__19allocatorINS_20__shared_ptr_pointerIPiNS_10shared_ptrIiE27__shared_ptr_default_deleteIiiEENS0_IiEEEEEC2B8ne200100IiEERKNS0_IT_EE
FNA:7,3,_ZNSt3__19allocatorINS_20__shared_ptr_pointerIPlNS_10shared_ptrIlE27__shared_ptr_default_deleteIllEENS0_IlEEEEEC1B8ne200100IlEERKNS0_IT_EE
FNA:7,3,_ZNSt3__19allocatorINS_20__shared_ptr_pointerIPlNS_10shared_ptrIlE27__shared_ptr_default_deleteIllEENS0_IlEEEEEC2B8ne200100IlEERKNS0_IT_EE
FNA:7,8,_ZNSt3__19allocatorIZN11mock_bufferIcEC1EPcmEUlmE_EC1B8ne200100INS_10__function6__funcIS4_S5_FmmEEEEERKNS0_IT_EE
FNA:7,8,_ZNSt3__19allocatorIZN11mock_bufferIcEC1EPcmEUlmE_EC2B8ne200100INS_10__function6__funcIS4_S5_FmmEEEEERKNS0_IT_EE
FNA:7,3,_ZNSt3__19allocatorIZN11mock_bufferIiEC1EPimEUlmE_EC1B8ne200100INS_10__function6__funcIS4_S5_FmmEEEEERKNS0_IT_EE
FNA:7,3,_ZNSt3__19allocatorIZN11mock_bufferIiEC1EPimEUlmE_EC2B8ne200100INS_10__function6__funcIS4_S5_FmmEEEEERKNS0_IT_EE
FNA:7,1,_ZNSt3__19allocatorIZN31buffer_test_append_partial_Test8TestBodyEvE3$_0EC1B8ne200100INS_10__function6__funcIS2_S3_FmmEEEEERKNS0_IT_EE
FNA:7,1,_ZNSt3__19allocatorIZN31buffer_test_append_partial_Test8TestBodyEvE3$_0EC2B8ne200100INS_10__function6__funcIS2_S3_FmmEEEEERKNS0_IT_EE
FNA:7,1,_ZNSt3__19allocatorIZNK7testing8internal11ThrowActionISt9exceptionEcvNS1_6ActionIFT_DpT0_EEEIvJPcmEEEvEUlSD_mE_EC1B8ne200100INS_10__function6__funcISE_SF_FvSD_mEEEEERKNS0_IS7_EE
FNA:7,1,_ZNSt3__19allocatorIZNK7testing8internal11ThrowActionISt9exceptionEcvNS1_6ActionIFT_DpT0_EEEIvJPcmEEEvEUlSD_mE_EC2B8ne200100INS_10__function6__funcISE_SF_FvSD_mEEEEERKNS0_IS7_EE
FNL:8,98
FNA:8,2,_ZNSt3__19allocatorI17basic_test_stringIcEE8allocateB8ne200100Em
FNA:8,1,_ZNSt3__19allocatorI2tmE8allocateB8ne200100Em
FNA:8,2,_ZNSt3__19allocatorI9test_enumE8allocateB8ne200100Em
FNA:8,31,_ZNSt3__19allocatorIN3fmt3v1216basic_format_argINS2_7contextEEEE8allocateB8ne200100Em
FNA:8,9,_ZNSt3__19allocatorIN3fmt3v126detail14named_arg_infoIcEEE8allocateB8ne200100Em
FNA:8,0,_ZNSt3__19allocatorIN7testing12TestPropertyEE8allocateB8ne200100Em
FNA:8,26,_ZNSt3__19allocatorIN7testing14TestPartResultEE8allocateB8ne200100Em
FNA:8,0,_ZNSt3__19allocatorIN7testing8internal13edit_distance8EditTypeEE8allocateB8ne200100Em
FNA:8,0,_ZNSt3__19allocatorIN7testing8internal9TraceInfoEE8allocateB8ne200100Em
FNA:8,0,_ZNSt3__19allocatorINS_10__function6__funcI12check_customNS0_IS3_EEF11test_resultN3fmt3v1216basic_format_argINS7_7contextEE6handleEEEEE8allocateB8ne200100Em
FNA:8,0,_ZNSt3__19allocatorINS_10__function6__funcIN7testing6ActionIF11test_resultN3fmt3v1216basic_format_argINS7_7contextEE6handleEEE13ActionAdapterENS0_ISE_EESC_EEE8allocateB8ne200100Em
FNA:8,0,_ZNSt3__19allocatorINS_10__function6__funcIN7testing6ActionIF11test_resultN3fmt3v1217basic_string_viewIcEEEE13ActionAdapterENS0_ISC_EESA_EEE8allocateB8ne200100Em
FNA:8,0,_ZNSt3__19allocatorINS_10__function6__funcIN7testing6ActionIF11test_resultN3fmt3v129monostateEEE13ActionAdapterENS0_ISB_EES9_EEE8allocateB8ne200100Em
FNA:8,0,_ZNSt3__19allocatorINS_10__function6__funcIN7testing6ActionIF11test_resultPKcEE13ActionAdapterENS0_ISA_EES8_EEE8allocateB8ne200100Em
FNA:8,0,_ZNSt3__19allocatorINS_10__function6__funcIN7testing6ActionIF11test_resultPKvEE13ActionAdapterENS0_ISA_EES8_EEE8allocateB8ne200100Em
FNA:8,0,_ZNSt3__19allocatorINS_10__function6__funcIN7testing6ActionIF11test_resultbEE13ActionAdapterENS0_IS8_EES6_EEE8allocateB8ne200100Em
FNA:8,0,_ZNSt3__19allocatorINS_10__function6__funcIN7testing6ActionIF11test_resultcEE13ActionAdapterENS0_IS8_EES6_EEE8allocateB8ne200100Em
FNA:8,0,_ZNSt3__19allocatorINS_10__function6__funcIN7testing6ActionIF11test_resultdEE13ActionAdapterENS0_IS8_EES6_EEE8allocateB8ne200100Em
FNA:8,0,_ZNSt3__19allocatorINS_10__function6__funcIN7testing6ActionIF11test_resulteEE13ActionAdapterENS0_IS8_EES6_EEE8allocateB8ne200100Em
FNA:8,0,_ZNSt3__19allocatorINS_10__function6__funcIN7testing6ActionIF11test_resultfEE13ActionAdapterENS0_IS8_EES6_EEE8allocateB8ne200100Em
FNA:8,0,_ZNSt3__19allocatorINS_10__function6__funcIN7testing6ActionIF11test_resultiEE13ActionAdapterENS0_IS8_EES6_EEE8allocateB8ne200100Em
FNA:8,0,_ZNSt3__19allocatorINS_10__function6__funcIN7testing6ActionIF11test_resultjEE13ActionAdapterENS0_IS8_EES6_EEE8allocateB8ne200100Em
FNA:8,0,_ZNSt3__19allocatorINS_10__function6__funcIN7testing6ActionIF11test_resultxEE13ActionAdapterENS0_IS8_EES6_EEE8allocateB8ne200100Em
FNA:8,0,_ZNSt3__19allocatorINS_10__function6__funcIN7testing6ActionIF11test_resultyEE13ActionAdapterENS0_IS8_EES6_EEE8allocateB8ne200100Em
FNA:8,0,_ZNSt3__19allocatorINS_10__function6__funcIN7testing6ActionIFPcmEE13ActionAdapterENS0_IS8_EES6_EEE8allocateB8ne200100Em
FNA:8,0,_ZNSt3__19allocatorINS_10__function6__funcIN7testing6ActionIFPimEE13ActionAdapterENS0_IS8_EES6_EEE8allocateB8ne200100Em
FNA:8,0,_ZNSt3__19allocatorINS_10__function6__funcIN7testing6ActionIFlPKvlEE13ActionAdapterENS0_IS9_EES7_EEE8allocateB8ne200100Em
FNA:8,0,_ZNSt3__19allocatorINS_10__function6__funcIN7testing6ActionIFmmEE13ActionAdapterENS0_IS7_EES5_EEE8allocateB8ne200100Em
FNA:8,0,_ZNSt3__19allocatorINS_10__function6__funcIZN11mock_bufferIcEC1EPcmEUlmE_NS0_IS6_EEFmmEEEE8allocateB8ne200100Em
FNA:8,0,_ZNSt3__19allocatorINS_10__function6__funcIZN11mock_bufferIiEC1EPimEUlmE_NS0_IS6_EEFmmEEEE8allocateB8ne200100Em
FNA:8,0,_ZNSt3__19allocatorINS_10__function6__funcIZN31buffer_test_append_partial_Test8TestBodyEvE3$_0NS0_IS4_EEFmmEEEE8allocateB8ne200100Em
FNA:8,0,_ZNSt3__19allocatorINS_10__function6__funcIZNK7testing8internal11ThrowActionISt9exceptionEcvNS3_6ActionIFT_DpT0_EEEIvJPcmEEEvEUlSF_mE_NS0_ISG_EEFvSF_mEEEE8allocateB8ne200100Em
FNA:8,76,_ZNSt3__19allocatorINS_10shared_ptrIN7testing8internal15ExpectationBaseEEEE8allocateB8ne200100Em
FNA:8,55,_ZNSt3__19allocatorINS_11__hash_nodeINS_17__hash_value_typeImN7testing8internal12CallReactionEEEPvEEE8allocateB8ne200100Em
FNA:8,0,_ZNSt3__19allocatorINS_11__list_nodeINS_4pairIcPKcEEPvEEE8allocateB8ne200100Em
FNA:8,2,_ZNSt3__19allocatorINS_11__list_nodeIcPvEEE8allocateB8ne200100Em
FNA:8,3,_ZNSt3__19allocatorINS_11__tree_nodeIN7testing11ExpectationEPvEEE8allocateB8ne200100Em
FNA:8,1,_ZNSt3__19allocatorINS_11__tree_nodeINS_12__value_typeINS_10error_codeEiEEPvEEE8allocateB8ne200100Em
FNA:8,0,_ZNSt3__19allocatorINS_11__tree_nodeINS_12__value_typeINS_12basic_stringIcNS_11char_traitsIcEENS0_IcEEEEN7testing8internal34TypeParameterizedTestSuiteRegistry30TypeParameterizedTestSuiteInfoEEEPvEEE8allocateB8ne200100Em
FNA:8,2,_ZNSt3__19allocatorINS_11__tree_nodeINS_12__value_typeINS_12basic_stringIcNS_11char_traitsIcEENS0_IcEEEEiEEPvEEE8allocateB8ne200100Em
FNA:8,0,_ZNSt3__19allocatorINS_11__tree_nodeINS_12__value_typeINS_12basic_stringIcNS_11char_traitsIcEENS0_IcEEEEmEEPvEEE8allocateB8ne200100Em
FNA:8,2,_ZNSt3__19allocatorINS_11__tree_nodeINS_12__value_typeINS_12basic_stringIwNS_11char_traitsIwEENS0_IwEEEEiEEPvEEE8allocateB8ne200100Em
FNA:8,67,_ZNSt3__19allocatorINS_11__tree_nodeINS_12__value_typeIPKvN7testing12_GLOBAL__N_115MockObjectStateEEEPvEEE8allocateB8ne200100Em
FNA:8,1,_ZNSt3__19allocatorINS_11__tree_nodeINS_12__value_typeIi14test_map_valueEEPvEEE8allocateB8ne200100Em
FNA:8,2,_ZNSt3__19allocatorINS_11__tree_nodeINS_12basic_stringIcNS_11char_traitsIcEENS0_IcEEEEPvEEE8allocateB8ne200100Em
FNA:8,71,_ZNSt3__19allocatorINS_11__tree_nodeIPN7testing8internal25UntypedFunctionMockerBaseEPvEEE8allocateB8ne200100Em
FNA:8,63,_ZNSt3__19allocatorINS_12basic_stringIcNS_11char_traitsIcEENS0_IcEEEEE8allocateB8ne200100Em
FNA:8,3,_ZNSt3__19allocatorINS_12basic_stringIwNS_11char_traitsIwEENS0_IwEEEEE8allocateB8ne200100Em
FNA:8,0,_ZNSt3__19allocatorINS_4pairImmEEE8allocateB8ne200100Em
FNA:8,0,_ZNSt3__19allocatorINS_6vectorIN7testing8internal13edit_distance8EditTypeENS0_IS5_EEEEE8allocateB8ne200100Em
FNA:8,2,_ZNSt3__19allocatorINS_6vectorIcNS0_IcEEEEE8allocateB8ne200100Em
FNA:8,0,_ZNSt3__19allocatorINS_6vectorIdNS0_IdEEEEE8allocateB8ne200100Em
FNA:8,2,_ZNSt3__19allocatorINS_6vectorIiNS0_IiEEEEE8allocateB8ne200100Em
FNA:8,80,_ZNSt3__19allocatorIPKN7testing8internal15ExpectationBaseEE8allocateB8ne200100Em
FNA:8,77,_ZNSt3__19allocatorIPKvE8allocateB8ne200100Em
FNA:8,0,_ZNSt3__19allocatorIPN7testing11EnvironmentEE8allocateB8ne200100Em
FNA:8,20,_ZNSt3__19allocatorIPN7testing17TestEventListenerEE8allocateB8ne200100Em
FNA:8,183,_ZNSt3__19allocatorIPN7testing8TestInfoEE8allocateB8ne200100Em
FNA:8,76,_ZNSt3__19allocatorIPN7testing8internal15ExpectationBaseEE8allocateB8ne200100Em
FNA:8,39,_ZNSt3__19allocatorIPN7testing9TestSuiteEE8allocateB8ne200100Em
FNA:8,3,_ZNSt3__19allocatorIPNS_16__hash_node_baseIPNS_11__hash_nodeINS_17__hash_value_typeImN7testing8internal12CallReactionEEEPvEEEEE8allocateB8ne200100Em
FNA:8,0,_ZNSt3__19allocatorIPcE8allocateB8ne200100Em
FNA:8,2,_ZNSt3__19allocatorIPiE8allocateB8ne200100Em
FNA:8,1319,_ZNSt3__19allocatorIcE8allocateB8ne200100Em
FNA:8,0,_ZNSt3__19allocatorIdE8allocateB8ne200100Em
FNA:8,2,_ZNSt3__19allocatorIfE8allocateB8ne200100Em
FNA:8,256,_ZNSt3__19allocatorIiE8allocateB8ne200100Em
FNA:8,2,_ZNSt3__19allocatorImE8allocateB8ne200100Em
FNA:8,7,_ZNSt3__19allocatorIwE8allocateB8ne200100Em
FNF:9
FNH:8
DA:71,176689
DA:93,352476
DA:96,900
DA:98,2489
DA:100,2489
DA:101,0
DA:105,2489
DA:116,5152
DA:120,5152
DA:122,5152
DA:147,71798
DA:148,71798
DA:152,5013
DA:153,5013
DA:154,5013
DA:156,3608
DA:162,0
DA:163,0
LF:18
LH:15
end_of_record
TN:
SF:/Applications/Xcode.app/Contents/Developer/Platforms/MacOSX.platform/Developer/SDKs/MacOSX.sdk/usr/include/c++/v1/__memory/allocator_destructor.h
FNL:0,34
FNA:0,0,_ZNSt3__122__allocator_destructorINS_9allocatorINS_10__function6__funcI12check_customNS1_IS4_EEF11test_resultN3fmt3v1216basic_format_argINS8_7contextEE6handleEEEEEEEC1B8ne200100ERSF_m
FNA:0,0,_ZNSt3__122__allocator_destructorINS_9allocatorINS_10__function6__funcI12check_customNS1_IS4_EEF11test_resultN3fmt3v1216basic_format_argINS8_7contextEE6handleEEEEEEEC2B8ne200100ERSF_m
FNA:0,0,_ZNSt3__122__allocator_destructorINS_9allocatorINS_10__function6__funcIN7testing6ActionIF11test_resultN3fmt3v1216basic_format_argINS8_7contextEE6handleEEE13ActionAdapterENS1_ISF_EESD_EEEEEC1B8ne200100ERSI_m
FNA:0,0,_ZNSt3__122__allocator_destructorINS_9allocatorINS_10__function6__funcIN7testing6ActionIF11test_resultN3fmt3v1216basic_format_argINS8_7contextEE6handleEEE13ActionAdapterENS1_ISF_EESD_EEEEEC2B8ne200100ERSI_m
FNA:0,0,_ZNSt3__122__allocator_destructorINS_9allocatorINS_10__function6__funcIN7testing6ActionIF11test_resultN3fmt3v1217basic_string_viewIcEEEE13ActionAdapterENS1_ISD_EESB_EEEEEC1B8ne200100ERSG_m
FNA:0,0,_ZNSt3__122__allocator_destructorINS_9allocatorINS_10__function6__funcIN7testing6ActionIF11test_resultN3fmt3v1217basic_string_viewIcEEEE13ActionAdapterENS1_ISD_EESB_EEEEEC2B8ne200100ERSG_m
FNA:0,0,_ZNSt3__122__allocator_destructorINS_9allocatorINS_10__function6__funcIN7testing6ActionIF11test_resultN3fmt3v129monostateEEE13ActionAdapterENS1_ISC_EESA_EEEEEC1B8ne200100ERSF_m
FNA:0,0,_ZNSt3__122__allocator_destructorINS_9allocatorINS_10__function6__funcIN7testing6ActionIF11test_resultN3fmt3v129monostateEEE13ActionAdapterENS1_ISC_EESA_EEEEEC2B8ne200100ERSF_m
FNA:0,0,_ZNSt3__122__allocator_destructorINS_9allocatorINS_10__function6__funcIN7testing6ActionIF11test_resultPKcEE13ActionAdapterENS1_ISB_EES9_EEEEEC1B8ne200100ERSE_m
FNA:0,0,_ZNSt3__122__allocator_destructorINS_9allocatorINS_10__function6__funcIN7testing6ActionIF11test_resultPKcEE13ActionAdapterENS1_ISB_EES9_EEEEEC2B8ne200100ERSE_m
FNA:0,0,_ZNSt3__122__allocator_destructorINS_9allocatorINS_10__function6__funcIN7testing6ActionIF11test_resultPKvEE13ActionAdapterENS1_ISB_EES9_EEEEEC1B8ne200100ERSE_m
FNA:0,0,_ZNSt3__122__allocator_destructorINS_9allocatorINS_10__function6__funcIN7testing6ActionIF11test_resultPKvEE13ActionAdapterENS1_ISB_EES9_EEEEEC2B8ne200100ERSE_m
FNA:0,0,_ZNSt3__122__allocator_destructorINS_9allocatorINS_10__function6__funcIN7testing6ActionIF11test_resultbEE13ActionAdapterENS1_IS9_EES7_EEEEEC1B8ne200100ERSC_m
FNA:0,0,_ZNSt3__122__allocator_destructorINS_9allocatorINS_10__function6__funcIN7testing6ActionIF11test_resultbEE13ActionAdapterENS1_IS9_EES7_EEEEEC2B8ne200100ERSC_m
FNA:0,0,_ZNSt3__122__allocator_destructorINS_9allocatorINS_10__function6__funcIN7testing6ActionIF11test_resultcEE13ActionAdapterENS1_IS9_EES7_EEEEEC1B8ne200100ERSC_m
FNA:0,0,_ZNSt3__122__allocator_destructorINS_9allocatorINS_10__function6__funcIN7testing6ActionIF11test_resultcEE13ActionAdapterENS1_IS9_EES7_EEEEEC2B8ne200100ERSC_m
FNA:0,0,_ZNSt3__122__allocator_destructorINS_9allocatorINS_10__function6__funcIN7testing6ActionIF11test_resultdEE13ActionAdapterENS1_IS9_EES7_EEEEEC1B8ne200100ERSC_m
FNA:0,0,_ZNSt3__122__allocator_destructorINS_9allocatorINS_10__function6__funcIN7testing6ActionIF11test_resultdEE13ActionAdapterENS1_IS9_EES7_EEEEEC2B8ne200100ERSC_m
FNA:0,0,_ZNSt3__122__allocator_destructorINS_9allocatorINS_10__function6__funcIN7testing6ActionIF11test_resulteEE13ActionAdapterENS1_IS9_EES7_EEEEEC1B8ne200100ERSC_m
FNA:0,0,_ZNSt3__122__allocator_destructorINS_9allocatorINS_10__function6__funcIN7testing6ActionIF11test_resulteEE13ActionAdapterENS1_IS9_EES7_EEEEEC2B8ne200100ERSC_m
FNA:0,0,_ZNSt3__122__allocator_destructorINS_9allocatorINS_10__function6__funcIN7testing6ActionIF11test_resultfEE13ActionAdapterENS1_IS9_EES7_EEEEEC1B8ne200100ERSC_m
FNA:0,0,_ZNSt3__122__allocator_destructorINS_9allocatorINS_10__function6__funcIN7testing6ActionIF11test_resultfEE13ActionAdapterENS1_IS9_EES7_EEEEEC2B8ne200100ERSC_m
FNA:0,0,_ZNSt3__122__allocator_destructorINS_9allocatorINS_10__function6__funcIN7testing6ActionIF11test_resultiEE13ActionAdapterENS1_IS9_EES7_EEEEEC1B8ne200100ERSC_m
FNA:0,0,_ZNSt3__122__allocator_destructorINS_9allocatorINS_10__function6__funcIN7testing6ActionIF11test_resultiEE13ActionAdapterENS1_IS9_EES7_EEEEEC2B8ne200100ERSC_m
FNA:0,0,_ZNSt3__122__allocator_destructorINS_9allocatorINS_10__function6__funcIN7testing6ActionIF11test_resultjEE13ActionAdapterENS1_IS9_EES7_EEEEEC1B8ne200100ERSC_m
FNA:0,0,_ZNSt3__122__allocator_destructorINS_9allocatorINS_10__function6__funcIN7testing6ActionIF11test_resultjEE13ActionAdapterENS1_IS9_EES7_EEEEEC2B8ne200100ERSC_m
FNA:0,0,_ZNSt3__122__allocator_destructorINS_9allocatorINS_10__function6__funcIN7testing6ActionIF11test_resultxEE13ActionAdapterENS1_IS9_EES7_EEEEEC1B8ne200100ERSC_m
FNA:0,0,_ZNSt3__122__allocator_destructorINS_9allocatorINS_10__function6__funcIN7testing6ActionIF11test_resultxEE13ActionAdapterENS1_IS9_EES7_EEEEEC2B8ne200100ERSC_m
FNA:0,0,_ZNSt3__122__allocator_destructorINS_9allocatorINS_10__function6__funcIN7testing6ActionIF11test_resultyEE13ActionAdapterENS1_IS9_EES7_EEEEEC1B8ne200100ERSC_m
FNA:0,0,_ZNSt3__122__allocator_destructorINS_9allocatorINS_10__function6__funcIN7testing6ActionIF11test_resultyEE13ActionAdapterENS1_IS9_EES7_EEEEEC2B8ne200100ERSC_m
FNA:0,0,_ZNSt3__122__allocator_destructorINS_9allocatorINS_10__function6__funcIN7testing6ActionIFPcmEE13ActionAdapterENS1_IS9_EES7_EEEEEC1B8ne200100ERSC_m
FNA:0,0,_ZNSt3__122__allocator_destructorINS_9allocatorINS_10__function6__funcIN7testing6ActionIFPcmEE13ActionAdapterENS1_IS9_EES7_EEEEEC2B8ne200100ERSC_m
FNA:0,0,_ZNSt3__122__allocator_destructorINS_9allocatorINS_10__function6__funcIN7testing6ActionIFPimEE13ActionAdapterENS1_IS9_EES7_EEEEEC1B8ne200100ERSC_m
FNA:0,0,_ZNSt3__122__allocator_destructorINS_9allocatorINS_10__function6__funcIN7testing6ActionIFPimEE13ActionAdapterENS1_IS9_EES7_EEEEEC2B8ne200100ERSC_m
FNA:0,0,_ZNSt3__122__allocator_destructorINS_9allocatorINS_10__function6__funcIN7testing6ActionIFlPKvlEE13ActionAdapterENS1_ISA_EES8_EEEEEC1B8ne200100ERSD_m
FNA:0,0,_ZNSt3__122__allocator_destructorINS_9allocatorINS_10__function6__funcIN7testing6ActionIFlPKvlEE13ActionAdapterENS1_ISA_EES8_EEEEEC2B8ne200100ERSD_m
FNA:0,0,_ZNSt3__122__allocator_destructorINS_9allocatorINS_10__function6__funcIN7testing6ActionIFmmEE13ActionAdapterENS1_IS8_EES6_EEEEEC1B8ne200100ERSB_m
FNA:0,0,_ZNSt3__122__allocator_destructorINS_9allocatorINS_10__function6__funcIN7testing6ActionIFmmEE13ActionAdapterENS1_IS8_EES6_EEEEEC2B8ne200100ERSB_m
FNA:0,0,_ZNSt3__122__allocator_destructorINS_9allocatorINS_10__function6__funcIZN11mock_bufferIcEC1EPcmEUlmE_NS1_IS7_EEFmmEEEEEEC1B8ne200100ERSB_m
FNA:0,0,_ZNSt3__122__allocator_destructorINS_9allocatorINS_10__function6__funcIZN11mock_bufferIcEC1EPcmEUlmE_NS1_IS7_EEFmmEEEEEEC2B8ne200100ERSB_m
FNA:0,0,_ZNSt3__122__allocator_destructorINS_9allocatorINS_10__function6__funcIZN11mock_bufferIiEC1EPimEUlmE_NS1_IS7_EEFmmEEEEEEC1B8ne200100ERSB_m
FNA:0,0,_ZNSt3__122__allocator_destructorINS_9allocatorINS_10__function6__funcIZN11mock_bufferIiEC1EPimEUlmE_NS1_IS7_EEFmmEEEEEEC2B8ne200100ERSB_m
FNA:0,0,_ZNSt3__122__allocator_destructorINS_9allocatorINS_10__function6__funcIZN31buffer_test_append_partial_Test8TestBodyEvE3$_0NS1_IS5_EEFmmEEEEEEC1B8ne200100ERS9_m
FNA:0,0,_ZNSt3__122__allocator_destructorINS_9allocatorINS_10__function6__funcIZN31buffer_test_append_partial_Test8TestBodyEvE3$_0NS1_IS5_EEFmmEEEEEEC2B8ne200100ERS9_m
FNA:0,0,_ZNSt3__122__allocator_destructorINS_9allocatorINS_10__function6__funcIZNK7testing8internal11ThrowActionISt9exceptionEcvNS4_6ActionIFT_DpT0_EEEIvJPcmEEEvEUlSG_mE_NS1_ISH_EEFvSG_mEEEEEEC1B8ne200100ERSL_m
FNA:0,0,_ZNSt3__122__allocator_destructorINS_9allocatorINS_10__function6__funcIZNK7testing8internal11ThrowActionISt9exceptionEcvNS4_6ActionIFT_DpT0_EEEIvJPcmEEEvEUlSG_mE_NS1_ISH_EEFvSG_mEEEEEEC2B8ne200100ERSL_m
FNA:0,2,_ZNSt3__122__allocator_destructorINS_9allocatorIiEEEC1B8ne200100ERS2_m
FNA:0,2,_ZNSt3__122__allocator_destructorINS_9allocatorIiEEEC2B8ne200100ERS2_m
FNL:1,35
FNA:1,0,_ZNSt3__122__allocator_destructorINS_9allocatorINS_10__function6__funcI12check_customNS1_IS4_EEF11test_resultN3fmt3v1216basic_format_argINS8_7contextEE6handleEEEEEEEclB8ne200100EPSE_
FNA:1,0,_ZNSt3__122__allocator_destructorINS_9allocatorINS_10__function6__funcIN7testing6ActionIF11test_resultN3fmt3v1216basic_format_argINS8_7contextEE6handleEEE13ActionAdapterENS1_ISF_EESD_EEEEEclB8ne200100EPSH_
FNA:1,0,_ZNSt3__122__allocator_destructorINS_9allocatorINS_10__function6__funcIN7testing6ActionIF11test_resultN3fmt3v1217basic_string_viewIcEEEE13ActionAdapterENS1_ISD_EESB_EEEEEclB8ne200100EPSF_
FNA:1,0,_ZNSt3__122__allocator_destructorINS_9allocatorINS_10__function6__funcIN7testing6ActionIF11test_resultN3fmt3v129monostateEEE13ActionAdapterENS1_ISC_EESA_EEEEEclB8ne200100EPSE_
FNA:1,0,_ZNSt3__122__allocator_destructorINS_9allocatorINS_10__function6__funcIN7testing6ActionIF11test_resultPKcEE13ActionAdapterENS1_ISB_EES9_EEEEEclB8ne200100EPSD_
FNA:1,0,_ZNSt3__122__allocator_destructorINS_9allocatorINS_10__function6__funcIN7testing6ActionIF11test_resultPKvEE13ActionAdapterENS1_ISB_EES9_EEEEEclB8ne200100EPSD_
FNA:1,0,_ZNSt3__122__allocator_destructorINS_9allocatorINS_10__function6__funcIN7testing6ActionIF11test_resultbEE13ActionAdapterENS1_IS9_EES7_EEEEEclB8ne200100EPSB_
FNA:1,0,_ZNSt3__122__allocator_destructorINS_9allocatorINS_10__function6__funcIN7testing6ActionIF11test_resultcEE13ActionAdapterENS1_IS9_EES7_EEEEEclB8ne200100EPSB_
FNA:1,0,_ZNSt3__122__allocator_destructorINS_9allocatorINS_10__function6__funcIN7testing6ActionIF11test_resultdEE13ActionAdapterENS1_IS9_EES7_EEEEEclB8ne200100EPSB_
FNA:1,0,_ZNSt3__122__allocator_destructorINS_9allocatorINS_10__function6__funcIN7testing6ActionIF11test_resulteEE13ActionAdapterENS1_IS9_EES7_EEEEEclB8ne200100EPSB_
FNA:1,0,_ZNSt3__122__allocator_destructorINS_9allocatorINS_10__function6__funcIN7testing6ActionIF11test_resultfEE13ActionAdapterENS1_IS9_EES7_EEEEEclB8ne200100EPSB_
FNA:1,0,_ZNSt3__122__allocator_destructorINS_9allocatorINS_10__function6__funcIN7testing6ActionIF11test_resultiEE13ActionAdapterENS1_IS9_EES7_EEEEEclB8ne200100EPSB_
FNA:1,0,_ZNSt3__122__allocator_destructorINS_9allocatorINS_10__function6__funcIN7testing6ActionIF11test_resultjEE13ActionAdapterENS1_IS9_EES7_EEEEEclB8ne200100EPSB_
FNA:1,0,_ZNSt3__122__allocator_destructorINS_9allocatorINS_10__function6__funcIN7testing6ActionIF11test_resultxEE13ActionAdapterENS1_IS9_EES7_EEEEEclB8ne200100EPSB_
FNA:1,0,_ZNSt3__122__allocator_destructorINS_9allocatorINS_10__function6__funcIN7testing6ActionIF11test_resultyEE13ActionAdapterENS1_IS9_EES7_EEEEEclB8ne200100EPSB_
FNA:1,0,_ZNSt3__122__allocator_destructorINS_9allocatorINS_10__function6__funcIN7testing6ActionIFPcmEE13ActionAdapterENS1_IS9_EES7_EEEEEclB8ne200100EPSB_
FNA:1,0,_ZNSt3__122__allocator_destructorINS_9allocatorINS_10__function6__funcIN7testing6ActionIFPimEE13ActionAdapterENS1_IS9_EES7_EEEEEclB8ne200100EPSB_
FNA:1,0,_ZNSt3__122__allocator_destructorINS_9allocatorINS_10__function6__funcIN7testing6ActionIFlPKvlEE13ActionAdapterENS1_ISA_EES8_EEEEEclB8ne200100EPSC_
FNA:1,0,_ZNSt3__122__allocator_destructorINS_9allocatorINS_10__function6__funcIN7testing6ActionIFmmEE13ActionAdapterENS1_IS8_EES6_EEEEEclB8ne200100EPSA_
FNA:1,0,_ZNSt3__122__allocator_destructorINS_9allocatorINS_10__function6__funcIZN11mock_bufferIcEC1EPcmEUlmE_NS1_IS7_EEFmmEEEEEEclB8ne200100EPSA_
FNA:1,0,_ZNSt3__122__allocator_destructorINS_9allocatorINS_10__function6__funcIZN11mock_bufferIiEC1EPimEUlmE_NS1_IS7_EEFmmEEEEEEclB8ne200100EPSA_
FNA:1,0,_ZNSt3__122__allocator_destructorINS_9allocatorINS_10__function6__funcIZN31buffer_test_append_partial_Test8TestBodyEvE3$_0NS1_IS5_EEFmmEEEEEEclB8ne200100EPS8_
FNA:1,0,_ZNSt3__122__allocator_destructorINS_9allocatorINS_10__function6__funcIZNK7testing8internal11ThrowActionISt9exceptionEcvNS4_6ActionIFT_DpT0_EEEIvJPcmEEEvEUlSG_mE_NS1_ISH_EEFvSG_mEEEEEEclB8ne200100EPSK_
FNA:1,0,_ZNSt3__122__allocator_destructorINS_9allocatorIiEEEclB8ne200100EPi
FNF:2
FNH:1
DA:34,4
DA:35,0
LF:2
LH:1
end_of_record
TN:
SF:/Applications/Xcode.app/Contents/Developer/Platforms/MacOSX.platform/Developer/SDKs/MacOSX.sdk/usr/include/c++/v1/__memory/allocator_traits.h
FNL:0,269
FNA:0,3,_ZNSt3__116allocator_traitsI14mock_allocatorIcEE8allocateB8ne200100ERS2_m
FNA:0,4,_ZNSt3__116allocator_traitsI14mock_allocatorIiEE8allocateB8ne200100ERS2_m
FNA:0,55,_ZNSt3__116allocator_traitsINS_9allocatorINS_11__hash_nodeINS_17__hash_value_typeImN7testing8internal12CallReactionEEEPvEEEEE8allocateB8ne200100ERSA_m
FNA:0,0,_ZNSt3__116allocator_traitsINS_9allocatorINS_11__list_nodeINS_4pairIcPKcEEPvEEEEE8allocateB8ne200100ERS9_m
FNA:0,2,_ZNSt3__116allocator_traitsINS_9allocatorINS_11__list_nodeIcPvEEEEE8allocateB8ne200100ERS5_m
FNA:0,3,_ZNSt3__116allocator_traitsINS_9allocatorINS_11__tree_nodeIN7testing11ExpectationEPvEEEEE8allocateB8ne200100ERS7_m
FNA:0,1,_ZNSt3__116allocator_traitsINS_9allocatorINS_11__tree_nodeINS_12__value_typeINS_10error_codeEiEEPvEEEEE8allocateB8ne200100ERS8_m
FNA:0,0,_ZNSt3__116allocator_traitsINS_9allocatorINS_11__tree_nodeINS_12__value_typeINS_12basic_stringIcNS_11char_traitsIcEENS1_IcEEEEN7testing8internal34TypeParameterizedTestSuiteRegistry30TypeParameterizedTestSuiteInfoEEEPvEEEEE8allocateB8ne200100ERSG_m
FNA:0,2,_ZNSt3__116allocator_traitsINS_9allocatorINS_11__tree_nodeINS_12__value_typeINS_12basic_stringIcNS_11char_traitsIcEENS1_IcEEEEiEEPvEEEEE8allocateB8ne200100ERSC_m
FNA:0,0,_ZNSt3__116allocator_traitsINS_9allocatorINS_11__tree_nodeINS_12__value_typeINS_12basic_stringIcNS_11char_traitsIcEENS1_IcEEEEmEEPvEEEEE8allocateB8ne200100ERSC_m
FNA:0,2,_ZNSt3__116allocator_traitsINS_9allocatorINS_11__tree_nodeINS_12__value_typeINS_12basic_stringIwNS_11char_traitsIwEENS1_IwEEEEiEEPvEEEEE8allocateB8ne200100ERSC_m
FNA:0,67,_ZNSt3__116allocator_traitsINS_9allocatorINS_11__tree_nodeINS_12__value_typeIPKvN7testing12_GLOBAL__N_115MockObjectStateEEEPvEEEEE8allocateB8ne200100ERSC_m
FNA:0,1,_ZNSt3__116allocator_traitsINS_9allocatorINS_11__tree_nodeINS_12__value_typeIi14test_map_valueEEPvEEEEE8allocateB8ne200100ERS8_m
FNA:0,2,_ZNSt3__116allocator_traitsINS_9allocatorINS_11__tree_nodeINS_12basic_stringIcNS_11char_traitsIcEENS1_IcEEEEPvEEEEE8allocateB8ne200100ERSA_m
FNA:0,71,_ZNSt3__116allocator_traitsINS_9allocatorINS_11__tree_nodeIPN7testing8internal25UntypedFunctionMockerBaseEPvEEEEE8allocateB8ne200100ERS9_m
FNA:0,3,_ZNSt3__116allocator_traitsINS_9allocatorIPNS_16__hash_node_baseIPNS_11__hash_nodeINS_17__hash_value_typeImN7testing8internal12CallReactionEEEPvEEEEEEE8allocateB8ne200100ERSE_m
FNA:0,243,_ZNSt3__116allocator_traitsINS_9allocatorIcEEE8allocateB8ne200100ERS2_m
FNA:0,2,_ZNSt3__116allocator_traitsINS_9allocatorIiEEE8allocateB8ne200100ERS2_m
FNL:1,301
FNA:1,2,_ZNSt3__116allocator_traitsINS_9allocatorI17basic_test_stringIcEEEE10deallocateB8ne200100ERS4_PS3_m
FNA:1,1,_ZNSt3__116allocator_traitsINS_9allocatorI2tmEEE10deallocateB8ne200100ERS3_PS2_m
FNA:1,2,_ZNSt3__116allocator_traitsINS_9allocatorI9test_enumEEE10deallocateB8ne200100ERS3_PS2_m
FNA:1,31,_ZNSt3__116allocator_traitsINS_9allocatorIN3fmt3v1216basic_format_argINS3_7contextEEEEEE10deallocateB8ne200100ERS7_PS6_m
FNA:1,9,_ZNSt3__116allocator_traitsINS_9allocatorIN3fmt3v126detail14named_arg_infoIcEEEEE10deallocateB8ne200100ERS7_PS6_m
FNA:1,0,_ZNSt3__116allocator_traitsINS_9allocatorIN7testing12TestPropertyEEEE10deallocateB8ne200100ERS4_PS3_m
FNA:1,26,_ZNSt3__116allocator_traitsINS_9allocatorIN7testing14TestPartResultEEEE10deallocateB8ne200100ERS4_PS3_m
FNA:1,0,_ZNSt3__116allocator_traitsINS_9allocatorIN7testing8internal13edit_distance8EditTypeEEEE10deallocateB8ne200100ERS6_PS5_m
FNA:1,0,_ZNSt3__116allocator_traitsINS_9allocatorIN7testing8internal9TraceInfoEEEE10deallocateB8ne200100ERS5_PS4_m
FNA:1,0,_ZNSt3__116allocator_traitsINS_9allocatorINS_10__function6__funcI12check_customNS1_IS4_EEF11test_resultN3fmt3v1216basic_format_argINS8_7contextEE6handleEEEEEEE10deallocateB8ne200100ERSF_PSE_m
FNA:1,0,_ZNSt3__116allocator_traitsINS_9allocatorINS_10__function6__funcIN7testing6ActionIF11test_resultN3fmt3v1216basic_format_argINS8_7contextEE6handleEEE13ActionAdapterENS1_ISF_EESD_EEEEE10deallocateB8ne200100ERSI_PSH_m
FNA:1,0,_ZNSt3__116allocator_traitsINS_9allocatorINS_10__function6__funcIN7testing6ActionIF11test_resultN3fmt3v1217basic_string_viewIcEEEE13ActionAdapterENS1_ISD_EESB_EEEEE10deallocateB8ne200100ERSG_PSF_m
FNA:1,0,_ZNSt3__116allocator_traitsINS_9allocatorINS_10__function6__funcIN7testing6ActionIF11test_resultN3fmt3v129monostateEEE13ActionAdapterENS1_ISC_EESA_EEEEE10deallocateB8ne200100ERSF_PSE_m
FNA:1,0,_ZNSt3__116allocator_traitsINS_9allocatorINS_10__function6__funcIN7testing6ActionIF11test_resultPKcEE13ActionAdapterENS1_ISB_EES9_EEEEE10deallocateB8ne200100ERSE_PSD_m
FNA:1,0,_ZNSt3__116allocator_traitsINS_9allocatorINS_10__function6__funcIN7testing6ActionIF11test_resultPKvEE13ActionAdapterENS1_ISB_EES9_EEEEE10deallocateB8ne200100ERSE_PSD_m
FNA:1,0,_ZNSt3__116allocator_traitsINS_9allocatorINS_10__function6__funcIN7testing6ActionIF11test_resultbEE13ActionAdapterENS1_IS9_EES7_EEEEE10deallocateB8ne200100ERSC_PSB_m
FNA:1,0,_ZNSt3__116allocator_traitsINS_9allocatorINS_10__function6__funcIN7testing6ActionIF11test_resultcEE13ActionAdapterENS1_IS9_EES7_EEEEE10deallocateB8ne200100ERSC_PSB_m
FNA:1,0,_ZNSt3__116allocator_traitsINS_9allocatorINS_10__function6__funcIN7testing6ActionIF11test_resultdEE13ActionAdapterENS1_IS9_EES7_EEEEE10deallocateB8ne200100ERSC_PSB_m
FNA:1,0,_ZNSt3__116allocator_traitsINS_9allocatorINS_10__function6__funcIN7testing6ActionIF11test_resulteEE13ActionAdapterENS1_IS9_EES7_EEEEE10deallocateB8ne200100ERSC_PSB_m
FNA:1,0,_ZNSt3__116allocator_traitsINS_9allocatorINS_10__function6__funcIN7testing6ActionIF11test_resultfEE13ActionAdapterENS1_IS9_EES7_EEEEE10deallocateB8ne200100ERSC_PSB_m
FNA:1,0,_ZNSt3__116allocator_traitsINS_9allocatorINS_10__function6__funcIN7testing6ActionIF11test_resultiEE13ActionAdapterENS1_IS9_EES7_EEEEE10deallocateB8ne200100ERSC_PSB_m
FNA:1,0,_ZNSt3__116allocator_traitsINS_9allocatorINS_10__function6__funcIN7testing6ActionIF11test_resultjEE13ActionAdapterENS1_IS9_EES7_EEEEE10deallocateB8ne200100ERSC_PSB_m
FNA:1,0,_ZNSt3__116allocator_traitsINS_9allocatorINS_10__function6__funcIN7testing6ActionIF11test_resultxEE13ActionAdapterENS1_IS9_EES7_EEEEE10deallocateB8ne200100ERSC_PSB_m
FNA:1,0,_ZNSt3__116allocator_traitsINS_9allocatorINS_10__function6__funcIN7testing6ActionIF11test_resultyEE13ActionAdapterENS1_IS9_EES7_EEEEE10deallocateB8ne200100ERSC_PSB_m
FNA:1,0,_ZNSt3__116allocator_traitsINS_9allocatorINS_10__function6__funcIN7testing6ActionIFPcmEE13ActionAdapterENS1_IS9_EES7_EEEEE10deallocateB8ne200100ERSC_PSB_m
FNA:1,0,_ZNSt3__116allocator_traitsINS_9allocatorINS_10__function6__funcIN7testing6ActionIFPimEE13ActionAdapterENS1_IS9_EES7_EEEEE10deallocateB8ne200100ERSC_PSB_m
FNA:1,0,_ZNSt3__116allocator_traitsINS_9allocatorINS_10__function6__funcIN7testing6ActionIFlPKvlEE13ActionAdapterENS1_ISA_EES8_EEEEE10deallocateB8ne200100ERSD_PSC_m
FNA:1,0,_ZNSt3__116allocator_traitsINS_9allocatorINS_10__function6__funcIN7testing6ActionIFmmEE13ActionAdapterENS1_IS8_EES6_EEEEE10deallocateB8ne200100ERSB_PSA_m
FNA:1,0,_ZNSt3__116allocator_traitsINS_9allocatorINS_10__function6__funcIZN11mock_bufferIcEC1EPcmEUlmE_NS1_IS7_EEFmmEEEEEE10deallocateB8ne200100ERSB_PSA_m
FNA:1,0,_ZNSt3__116allocator_traitsINS_9allocatorINS_10__function6__funcIZN11mock_bufferIiEC1EPimEUlmE_NS1_IS7_EEFmmEEEEEE10deallocateB8ne200100ERSB_PSA_m
FNA:1,0,_ZNSt3__116allocator_traitsINS_9allocatorINS_10__function6__funcIZN31buffer_test_append_partial_Test8TestBodyEvE3$_0NS1_IS5_EEFmmEEEEEE10deallocateB8ne200100ERS9_PS8_m
FNA:1,0,_ZNSt3__116allocator_traitsINS_9allocatorINS_10__function6__funcIZNK7testing8internal11ThrowActionISt9exceptionEcvNS4_6ActionIFT_DpT0_EEEIvJPcmEEEvEUlSG_mE_NS1_ISH_EEFvSG_mEEEEEE10deallocateB8ne200100ERSL_PSK_m
FNA:1,76,_ZNSt3__116allocator_traitsINS_9allocatorINS_10shared_ptrIN7testing8internal15ExpectationBaseEEEEEE10deallocateB8ne200100ERS7_PS6_m
FNA:1,55,_ZNSt3__116allocator_traitsINS_9allocatorINS_11__hash_nodeINS_17__hash_value_typeImN7testing8internal12CallReactionEEEPvEEEEE10deallocateB8ne200100ERSA_PS9_m
FNA:1,0,_ZNSt3__116allocator_traitsINS_9allocatorINS_11__list_nodeINS_4pairIcPKcEEPvEEEEE10deallocateB8ne200100ERS9_PS8_m
FNA:1,2,_ZNSt3__116allocator_traitsINS_9allocatorINS_11__list_nodeIcPvEEEEE10deallocateB8ne200100ERS5_PS4_m
FNA:1,3,_ZNSt3__116allocator_traitsINS_9allocatorINS_11__tree_nodeIN7testing11ExpectationEPvEEEEE10deallocateB8ne200100ERS7_PS6_m
FNA:1,1,_ZNSt3__116allocator_traitsINS_9allocatorINS_11__tree_nodeINS_12__value_typeINS_10error_codeEiEEPvEEEEE10deallocateB8ne200100ERS8_PS7_m
FNA:1,0,_ZNSt3__116allocator_traitsINS_9allocatorINS_11__tree_nodeINS_12__value_typeINS_12basic_stringIcNS_11char_traitsIcEENS1_IcEEEEN7testing8internal34TypeParameterizedTestSuiteRegistry30TypeParameterizedTestSuiteInfoEEEPvEEEEE10deallocateB8ne200100ERSG_PSF_m
FNA:1,2,_ZNSt3__116allocator_traitsINS_9allocatorINS_11__tree_nodeINS_12__value_typeINS_12basic_stringIcNS_11char_traitsIcEENS1_IcEEEEiEEPvEEEEE10deallocateB8ne200100ERSC_PSB_m
FNA:1,0,_ZNSt3__116allocator_traitsINS_9allocatorINS_11__tree_nodeINS_12__value_typeINS_12basic_stringIcNS_11char_traitsIcEENS1_IcEEEEmEEPvEEEEE10deallocateB8ne200100ERSC_PSB_m
FNA:1,2,_ZNSt3__116allocator_traitsINS_9allocatorINS_11__tree_nodeINS_12__value_typeINS_12basic_stringIwNS_11char_traitsIwEENS1_IwEEEEiEEPvEEEEE10deallocateB8ne200100ERSC_PSB_m
FNA:1,67,_ZNSt3__116allocator_traitsINS_9allocatorINS_11__tree_nodeINS_12__value_typeIPKvN7testing12_GLOBAL__N_115MockObjectStateEEEPvEEEEE10deallocateB8ne200100ERSC_PSB_m
FNA:1,1,_ZNSt3__116allocator_traitsINS_9allocatorINS_11__tree_nodeINS_12__value_typeIi14test_map_valueEEPvEEEEE10deallocateB8ne200100ERS8_PS7_m
FNA:1,2,_ZNSt3__116allocator_traitsINS_9allocatorINS_11__tree_nodeINS_12basic_stringIcNS_11char_traitsIcEENS1_IcEEEEPvEEEEE10deallocateB8ne200100ERSA_PS9_m
FNA:1,71,_ZNSt3__116allocator_traitsINS_9allocatorINS_11__tree_nodeIPN7testing8internal25UntypedFunctionMockerBaseEPvEEEEE10deallocateB8ne200100ERS9_PS8_m
FNA:1,43,_ZNSt3__116allocator_traitsINS_9allocatorINS_12basic_stringIcNS_11char_traitsIcEENS1_IcEEEEEEE10deallocateB8ne200100ERS7_PS6_m
FNA:1,3,_ZNSt3__116allocator_traitsINS_9allocatorINS_12basic_stringIwNS_11char_traitsIwEENS1_IwEEEEEEE10deallocateB8ne200100ERS7_PS6_m
FNA:1,0,_ZNSt3__116allocator_traitsINS_9allocatorINS_4pairImmEEEEE10deallocateB8ne200100ERS4_PS3_m
FNA:1,0,_ZNSt3__116allocator_traitsINS_9allocatorINS_6vectorIN7testing8internal13edit_distance8EditTypeENS1_IS6_EEEEEEE10deallocateB8ne200100ERS9_PS8_m
FNA:1,2,_ZNSt3__116allocator_traitsINS_9allocatorINS_6vectorIcNS1_IcEEEEEEE10deallocateB8ne200100ERS5_PS4_m
FNA:1,0,_ZNSt3__116allocator_traitsINS_9allocatorINS_6vectorIdNS1_IdEEEEEEE10deallocateB8ne200100ERS5_PS4_m
FNA:1,2,_ZNSt3__116allocator_traitsINS_9allocatorINS_6vectorIiNS1_IiEEEEEEE10deallocateB8ne200100ERS5_PS4_m
FNA:1,80,_ZNSt3__116allocator_traitsINS_9allocatorIPKN7testing8internal15ExpectationBaseEEEE10deallocateB8ne200100ERS7_PS6_m
FNA:1,77,_ZNSt3__116allocator_traitsINS_9allocatorIPKvEEE10deallocateB8ne200100ERS4_PS3_m
FNA:1,0,_ZNSt3__116allocator_traitsINS_9allocatorIPN7testing11EnvironmentEEEE10deallocateB8ne200100ERS5_PS4_m
FNA:1,1,_ZNSt3__116allocator_traitsINS_9allocatorIPN7testing17TestEventListenerEEEE10deallocateB8ne200100ERS5_PS4_m
FNA:1,123,_ZNSt3__116allocator_traitsINS_9allocatorIPN7testing8TestInfoEEEE10deallocateB8ne200100ERS5_PS4_m
FNA:1,76,_ZNSt3__116allocator_traitsINS_9allocatorIPN7testing8internal15ExpectationBaseEEEE10deallocateB8ne200100ERS6_PS5_m
FNA:1,0,_ZNSt3__116allocator_traitsINS_9allocatorIPN7testing8internal30ParameterizedTestSuiteInfoBaseEEEE10deallocateB8ne200100ERS6_PS5_m
FNA:1,20,_ZNSt3__116allocator_traitsINS_9allocatorIPN7testing9TestSuiteEEEE10deallocateB8ne200100ERS5_PS4_m
FNA:1,0,_ZNSt3__116allocator_traitsINS_9allocatorIPNS_16__hash_node_baseIPNS_11__hash_nodeINS_17__hash_value_typeImN7testing8internal12CallReactionEEEPvEEEEEEE10deallocateB8ne200100ERSE_PSD_m
FNA:1,0,_ZNSt3__116allocator_traitsINS_9allocatorIPcEEE10deallocateB8ne200100ERS3_PS2_m
FNA:1,2,_ZNSt3__116allocator_traitsINS_9allocatorIPiEEE10deallocateB8ne200100ERS3_PS2_m
FNA:1,3847,_ZNSt3__116allocator_traitsINS_9allocatorIcEEE10deallocateB8ne200100ERS2_Pcm
FNA:1,0,_ZNSt3__116allocator_traitsINS_9allocatorIdEEE10deallocateB8ne200100ERS2_Pdm
FNA:1,2,_ZNSt3__116allocator_traitsINS_9allocatorIfEEE10deallocateB8ne200100ERS2_Pfm
FNA:1,177,_ZNSt3__116allocator_traitsINS_9allocatorIiEEE10deallocateB8ne200100ERS2_Pim
FNA:1,2,_ZNSt3__116allocator_traitsINS_9allocatorImEEE10deallocateB8ne200100ERS2_Pmm
FNA:1,42,_ZNSt3__116allocator_traitsINS_9allocatorIwEEE10deallocateB8ne200100ERS2_Pwm
FNL:2,307
FNA:2,4,_ZNSt3__116allocator_traitsINS_9allocatorI17basic_test_stringIcEEEE9constructB8ne200100IS3_JRKS3_ELi0EEEvRS4_PT_DpOT0_
FNA:2,7,_ZNSt3__116allocator_traitsINS_9allocatorI2tmEEE9constructB8ne200100IS2_JRKS2_ELi0EEEvRS3_PT_DpOT0_
FNA:2,4,_ZNSt3__116allocator_traitsINS_9allocatorI9test_enumEEE9constructB8ne200100IS2_JRKS2_ELi0EEEvRS3_PT_DpOT0_
FNA:2,2,_ZNSt3__116allocator_traitsINS_9allocatorIN3fmt3v1216basic_format_argINS3_7contextEEEEEE9constructB8ne200100IS6_JRA11_KcELi0EEEvRS7_PT_DpOT0_
FNA:2,1,_ZNSt3__116allocator_traitsINS_9allocatorIN3fmt3v1216basic_format_argINS3_7contextEEEEEE9constructB8ne200100IS6_JRA15_KcELi0EEEvRS7_PT_DpOT0_
FNA:2,6,_ZNSt3__116allocator_traitsINS_9allocatorIN3fmt3v1216basic_format_argINS3_7contextEEEEEE9constructB8ne200100IS6_JRK11custom_typeELi0EEEvRS7_PT_DpOT0_
FNA:2,2,_ZNSt3__116allocator_traitsINS_9allocatorIN3fmt3v1216basic_format_argINS3_7contextEEEEEE9constructB8ne200100IS6_JRK13to_stringableELi0EEEvRS7_PT_DpOT0_
FNA:2,0,_ZNSt3__116allocator_traitsINS_9allocatorIN3fmt3v1216basic_format_argINS3_7contextEEEEEE9constructB8ne200100IS6_JRK14copy_throwableELi0EEEvRS7_PT_DpOT0_
FNA:2,1,_ZNSt3__116allocator_traitsINS_9allocatorIN3fmt3v1216basic_format_argINS3_7contextEEEEEE9constructB8ne200100IS6_JRKNS3_17basic_string_viewIcEEELi0EEEvRS7_PT_DpOT0_
FNA:2,7,_ZNSt3__116allocator_traitsINS_9allocatorIN3fmt3v1216basic_format_argINS3_7contextEEEEEE9constructB8ne200100IS6_JRKNS_12basic_stringIcNS_11char_traitsIcEENS1_IcEEEEELi0EEEvRS7_PT_DpOT0_
FNA:2,2,_ZNSt3__116allocator_traitsINS_9allocatorIN3fmt3v1216basic_format_argINS3_7contextEEEEEE9constructB8ne200100IS6_JRKfELi0EEEvRS7_PT_DpOT0_
FNA:2,8,_ZNSt3__116allocator_traitsINS_9allocatorIN3fmt3v1216basic_format_argINS3_7contextEEEEEE9constructB8ne200100IS6_JRKiELi0EEEvRS7_PT_DpOT0_
FNA:2,6,_ZNSt3__116allocator_traitsINS_9allocatorIN3fmt3v1216basic_format_argINS3_7contextEEEEEE9constructB8ne200100IS6_JS6_ELi0EEEvRS7_PT_DpOT0_
FNA:2,9,_ZNSt3__116allocator_traitsINS_9allocatorIN3fmt3v126detail14named_arg_infoIcEEEEE9constructB8ne200100IS6_JS6_ELi0EEEvRS7_PT_DpOT0_
FNA:2,0,_ZNSt3__116allocator_traitsINS_9allocatorIN7testing12TestPropertyEEEE9constructB8ne200100IS3_JRKS3_ELi0EEEvRS4_PT_DpOT0_
FNA:2,0,_ZNSt3__116allocator_traitsINS_9allocatorIN7testing12TestPropertyEEEE9constructB8ne200100IS3_JS3_ELi0EEEvRS4_PT_DpOT0_
FNA:2,26,_ZNSt3__116allocator_traitsINS_9allocatorIN7testing14TestPartResultEEEE9constructB8ne200100IS3_JRKS3_ELi0EEEvRS4_PT_DpOT0_
FNA:2,0,_ZNSt3__116allocator_traitsINS_9allocatorIN7testing14TestPartResultEEEE9constructB8ne200100IS3_JS3_ELi0EEEvRS4_PT_DpOT0_
FNA:2,0,_ZNSt3__116allocator_traitsINS_9allocatorIN7testing8internal13edit_distance8EditTypeEEEE9constructB8ne200100IS5_JELi0EEEvRS6_PT_DpOT0_
FNA:2,0,_ZNSt3__116allocator_traitsINS_9allocatorIN7testing8internal13edit_distance8EditTypeEEEE9constructB8ne200100IS5_JRKS5_ELi0EEEvRS6_PT_DpOT0_
FNA:2,0,_ZNSt3__116allocator_traitsINS_9allocatorIN7testing8internal9TraceInfoEEEE9constructB8ne200100IS4_JRKS4_ELi0EEEvRS5_PT_DpOT0_
FNA:2,0,_ZNSt3__116allocator_traitsINS_9allocatorIN7testing8internal9TraceInfoEEEE9constructB8ne200100IS4_JS4_ELi0EEEvRS5_PT_DpOT0_
FNA:2,76,_ZNSt3__116allocator_traitsINS_9allocatorINS_10shared_ptrIN7testing8internal15ExpectationBaseEEEEEE9constructB8ne200100IS6_JRKS6_ELi0EEEvRS7_PT_DpOT0_
FNA:2,0,_ZNSt3__116allocator_traitsINS_9allocatorINS_11__hash_nodeINS_17__hash_value_typeImN7testing8internal12CallReactionEEEPvEEEEE9constructB8ne200100INS_4pairIKmS6_EEJRKNS_21piecewise_construct_tENS_5tupleIJOmEEENSJ_IJEEEELi0EEEvRSA_PT_DpOT0_
FNA:2,55,_ZNSt3__116allocator_traitsINS_9allocatorINS_11__hash_nodeINS_17__hash_value_typeImN7testing8internal12CallReactionEEEPvEEEEE9constructB8ne200100INS_4pairIKmS6_EEJRKNS_21piecewise_construct_tENS_5tupleIJRSE_EEENSJ_IJEEEELi0EEEvRSA_PT_DpOT0_
FNA:2,0,_ZNSt3__116allocator_traitsINS_9allocatorINS_11__list_nodeINS_4pairIcPKcEEPvEEEEE9constructB8ne200100IS6_JS6_ELi0EEEvRS9_PT_DpOT0_
FNA:2,2,_ZNSt3__116allocator_traitsINS_9allocatorINS_11__list_nodeIcPvEEEEE9constructB8ne200100IcJRKcELi0EEEvRS5_PT_DpOT0_
FNA:2,3,_ZNSt3__116allocator_traitsINS_9allocatorINS_11__tree_nodeIN7testing11ExpectationEPvEEEEE9constructB8ne200100IS4_JRKS4_ELi0EEEvRS7_PT_DpOT0_
FNA:2,1,_ZNSt3__116allocator_traitsINS_9allocatorINS_11__tree_nodeINS_12__value_typeINS_10error_codeEiEEPvEEEEE9constructB8ne200100INS_4pairIKS4_iEEJRKSD_ELi0EEEvRS8_PT_DpOT0_
FNA:2,0,_ZNSt3__116allocator_traitsINS_9allocatorINS_11__tree_nodeINS_12__value_typeINS_12basic_stringIcNS_11char_traitsIcEENS1_IcEEEEN7testing8internal34TypeParameterizedTestSuiteRegistry30TypeParameterizedTestSuiteInfoEEEPvEEEEE9constructB8ne200100INS_4pairIKS8_SC_EEJS8_SC_ELi0EEEvRSG_PT_DpOT0_
FNA:2,2,_ZNSt3__116allocator_traitsINS_9allocatorINS_11__tree_nodeINS_12__value_typeINS_12basic_stringIcNS_11char_traitsIcEENS1_IcEEEEiEEPvEEEEE9constructB8ne200100INS_4pairIKS8_iEEJRKSH_ELi0EEEvRSC_PT_DpOT0_
FNA:2,0,_ZNSt3__116allocator_traitsINS_9allocatorINS_11__tree_nodeINS_12__value_typeINS_12basic_stringIcNS_11char_traitsIcEENS1_IcEEEEmEEPvEEEEE9constructB8ne200100INS_4pairIKS8_mEEJRKNS_21piecewise_construct_tENS_5tupleIJRSG_EEENSL_IJEEEELi0EEEvRSC_PT_DpOT0_
FNA:2,2,_ZNSt3__116allocator_traitsINS_9allocatorINS_11__tree_nodeINS_12__value_typeINS_12basic_stringIwNS_11char_traitsIwEENS1_IwEEEEiEEPvEEEEE9constructB8ne200100INS_4pairIKS8_iEEJRKSH_ELi0EEEvRSC_PT_DpOT0_
FNA:2,67,_ZNSt3__116allocator_traitsINS_9allocatorINS_11__tree_nodeINS_12__value_typeIPKvN7testing12_GLOBAL__N_115MockObjectStateEEEPvEEEEE9constructB8ne200100INS_4pairIKS5_S8_EEJRKNS_21piecewise_construct_tENS_5tupleIJRSG_EEENSL_IJEEEELi0EEEvRSC_PT_DpOT0_
FNA:2,1,_ZNSt3__116allocator_traitsINS_9allocatorINS_11__tree_nodeINS_12__value_typeIi14test_map_valueEEPvEEEEE9constructB8ne200100INS_4pairIKiS4_EEJRKSD_ELi0EEEvRS8_PT_DpOT0_
FNA:2,2,_ZNSt3__116allocator_traitsINS_9allocatorINS_11__tree_nodeINS_12basic_stringIcNS_11char_traitsIcEENS1_IcEEEEPvEEEEE9constructB8ne200100IS7_JRKS7_ELi0EEEvRSA_PT_DpOT0_
FNA:2,0,_ZNSt3__116allocator_traitsINS_9allocatorINS_11__tree_nodeINS_12basic_stringIcNS_11char_traitsIcEENS1_IcEEEEPvEEEEE9constructB8ne200100IS7_JS7_ELi0EEEvRSA_PT_DpOT0_
FNA:2,71,_ZNSt3__116allocator_traitsINS_9allocatorINS_11__tree_nodeIPN7testing8internal25UntypedFunctionMockerBaseEPvEEEEE9constructB8ne200100IS6_JRKS6_ELi0EEEvRS9_PT_DpOT0_
FNA:2,0,_ZNSt3__116allocator_traitsINS_9allocatorINS_12basic_stringIcNS_11char_traitsIcEENS1_IcEEEEEEE9constructB8ne200100IS6_JRKPKcELi0EEEvRS7_PT_DpOT0_
FNA:2,21,_ZNSt3__116allocator_traitsINS_9allocatorINS_12basic_stringIcNS_11char_traitsIcEENS1_IcEEEEEEE9constructB8ne200100IS6_JRKS6_ELi0EEEvRS7_PT_DpOT0_
FNA:2,20,_ZNSt3__116allocator_traitsINS_9allocatorINS_12basic_stringIcNS_11char_traitsIcEENS1_IcEEEEEEE9constructB8ne200100IS6_JRS6_ELi0EEEvRS7_PT_DpOT0_
FNA:2,38,_ZNSt3__116allocator_traitsINS_9allocatorINS_12basic_stringIcNS_11char_traitsIcEENS1_IcEEEEEEE9constructB8ne200100IS6_JS6_ELi0EEEvRS7_PT_DpOT0_
FNA:2,5,_ZNSt3__116allocator_traitsINS_9allocatorINS_12basic_stringIwNS_11char_traitsIwEENS1_IwEEEEEEE9constructB8ne200100IS6_JRKS6_ELi0EEEvRS7_PT_DpOT0_
FNA:2,0,_ZNSt3__116allocator_traitsINS_9allocatorINS_4pairImmEEEEE9constructB8ne200100IS3_JS3_ELi0EEEvRS4_PT_DpOT0_
FNA:2,0,_ZNSt3__116allocator_traitsINS_9allocatorINS_6vectorIN7testing8internal13edit_distance8EditTypeENS1_IS6_EEEEEEE9constructB8ne200100IS8_JRKS8_ELi0EEEvRS9_PT_DpOT0_
FNA:2,3,_ZNSt3__116allocator_traitsINS_9allocatorINS_6vectorIcNS1_IcEEEEEEE9constructB8ne200100IS4_JRKS4_ELi0EEEvRS5_PT_DpOT0_
FNA:2,0,_ZNSt3__116allocator_traitsINS_9allocatorINS_6vectorIdNS1_IdEEEEEEE9constructB8ne200100IS4_JRKS4_ELi0EEEvRS5_PT_DpOT0_
FNA:2,5,_ZNSt3__116allocator_traitsINS_9allocatorINS_6vectorIiNS1_IiEEEEEEE9constructB8ne200100IS4_JRKS4_ELi0EEEvRS5_PT_DpOT0_
FNA:2,84,_ZNSt3__116allocator_traitsINS_9allocatorIPKN7testing8internal15ExpectationBaseEEEE9constructB8ne200100IS6_JRKS6_ELi0EEEvRS7_PT_DpOT0_
FNA:2,77,_ZNSt3__116allocator_traitsINS_9allocatorIPKvEEE9constructB8ne200100IS3_JS3_ELi0EEEvRS4_PT_DpOT0_
FNA:2,0,_ZNSt3__116allocator_traitsINS_9allocatorIPN7testing11EnvironmentEEEE9constructB8ne200100IS4_JRKS4_ELi0EEEvRS5_PT_DpOT0_
FNA:2,20,_ZNSt3__116allocator_traitsINS_9allocatorIPN7testing17TestEventListenerEEEE9constructB8ne200100IS4_JRKS4_ELi0EEEvRS5_PT_DpOT0_
FNA:2,532,_ZNSt3__116allocator_traitsINS_9allocatorIPN7testing8TestInfoEEEE9constructB8ne200100IS4_JRKS4_ELi0EEEvRS5_PT_DpOT0_
FNA:2,79,_ZNSt3__116allocator_traitsINS_9allocatorIPN7testing8internal15ExpectationBaseEEEE9constructB8ne200100IS5_JRKS5_ELi0EEEvRS6_PT_DpOT0_
FNA:2,60,_ZNSt3__116allocator_traitsINS_9allocatorIPN7testing9TestSuiteEEEE9constructB8ne200100IS4_JRKS4_ELi0EEEvRS5_PT_DpOT0_
FNA:2,0,_ZNSt3__116allocator_traitsINS_9allocatorIPN7testing9TestSuiteEEEE9constructB8ne200100IS4_JS4_ELi0EEEvRS5_PT_DpOT0_
FNA:2,0,_ZNSt3__116allocator_traitsINS_9allocatorIPcEEE9constructB8ne200100IS2_JS2_ELi0EEEvRS3_PT_DpOT0_
FNA:2,0,_ZNSt3__116allocator_traitsINS_9allocatorIPiEEE9constructB8ne200100IS2_JRS2_ELi0EEEvRS3_PT_DpOT0_
FNA:2,2,_ZNSt3__116allocator_traitsINS_9allocatorIPiEEE9constructB8ne200100IS2_JS2_ELi0EEEvRS3_PT_DpOT0_
FNA:2,3000,_ZNSt3__116allocator_traitsINS_9allocatorIcEEE9constructB8ne200100IcJELi0EEEvRS2_PT_DpOT0_
FNA:2,25,_ZNSt3__116allocator_traitsINS_9allocatorIcEEE9constructB8ne200100IcJRKcELi0EEEvRS2_PT_DpOT0_
FNA:2,0,_ZNSt3__116allocator_traitsINS_9allocatorIdEEE9constructB8ne200100IdJELi0EEEvRS2_PT_DpOT0_
FNA:2,2,_ZNSt3__116allocator_traitsINS_9allocatorIfEEE9constructB8ne200100IfJfELi0EEEvRS2_PT_DpOT0_
FNA:2,70,_ZNSt3__116allocator_traitsINS_9allocatorIiEEE9constructB8ne200100IiJRKiELi0EEEvRS2_PT_DpOT0_
FNA:2,600,_ZNSt3__116allocator_traitsINS_9allocatorIiEEE9constructB8ne200100IiJiELi0EEEvRS2_PT_DpOT0_
FNA:2,0,_ZNSt3__116allocator_traitsINS_9allocatorImEEE9constructB8ne200100ImJRKmELi0EEEvRS2_PT_DpOT0_
FNA:2,0,_ZNSt3__116allocator_traitsINS_9allocatorImEEE9constructB8ne200100ImJmELi0EEEvRS2_PT_DpOT0_
FNA:2,3,_ZNSt3__116allocator_traitsINS_9allocatorIwEEE9constructB8ne200100IwJRKwELi0EEEvRS2_PT_DpOT0_
FNL:3,322
FNA:3,4,_ZNSt3__116allocator_traitsINS_9allocatorI17basic_test_stringIcEEEE7destroyB8ne200100IS3_Li0EEEvRS4_PT_
FNA:3,7,_ZNSt3__116allocator_traitsINS_9allocatorI2tmEEE7destroyB8ne200100IS2_Li0EEEvRS3_PT_
FNA:3,4,_ZNSt3__116allocator_traitsINS_9allocatorI9test_enumEEE7destroyB8ne200100IS2_Li0EEEvRS3_PT_
FNA:3,35,_ZNSt3__116allocator_traitsINS_9allocatorIN3fmt3v1216basic_format_argINS3_7contextEEEEEE7destroyB8ne200100IS6_Li0EEEvRS7_PT_
FNA:3,9,_ZNSt3__116allocator_traitsINS_9allocatorIN3fmt3v126detail14named_arg_infoIcEEEEE7destroyB8ne200100IS6_Li0EEEvRS7_PT_
FNA:3,0,_ZNSt3__116allocator_traitsINS_9allocatorIN7testing12TestPropertyEEEE7destroyB8ne200100IS3_Li0EEEvRS4_PT_
FNA:3,26,_ZNSt3__116allocator_traitsINS_9allocatorIN7testing14TestPartResultEEEE7destroyB8ne200100IS3_Li0EEEvRS4_PT_
FNA:3,0,_ZNSt3__116allocator_traitsINS_9allocatorIN7testing8internal13edit_distance8EditTypeEEEE7destroyB8ne200100IS5_Li0EEEvRS6_PT_
FNA:3,0,_ZNSt3__116allocator_traitsINS_9allocatorIN7testing8internal9TraceInfoEEEE7destroyB8ne200100IS4_Li0EEEvRS5_PT_
FNA:3,76,_ZNSt3__116allocator_traitsINS_9allocatorINS_10shared_ptrIN7testing8internal15ExpectationBaseEEEEEE7destroyB8ne200100IS6_Li0EEEvRS7_PT_
FNA:3,59,_ZNSt3__116allocator_traitsINS_9allocatorINS_12basic_stringIcNS_11char_traitsIcEENS1_IcEEEEEEE7destroyB8ne200100IS6_Li0EEEvRS7_PT_
FNA:3,5,_ZNSt3__116allocator_traitsINS_9allocatorINS_12basic_stringIwNS_11char_traitsIwEENS1_IwEEEEEEE7destroyB8ne200100IS6_Li0EEEvRS7_PT_
FNA:3,0,_ZNSt3__116allocator_traitsINS_9allocatorINS_4pairImmEEEEE7destroyB8ne200100IS3_Li0EEEvRS4_PT_
FNA:3,0,_ZNSt3__116allocator_traitsINS_9allocatorINS_6vectorIN7testing8internal13edit_distance8EditTypeENS1_IS6_EEEEEEE7destroyB8ne200100IS8_Li0EEEvRS9_PT_
FNA:3,3,_ZNSt3__116allocator_traitsINS_9allocatorINS_6vectorIcNS1_IcEEEEEEE7destroyB8ne200100IS4_Li0EEEvRS5_PT_
FNA:3,0,_ZNSt3__116allocator_traitsINS_9allocatorINS_6vectorIdNS1_IdEEEEEEE7destroyB8ne200100IS4_Li0EEEvRS5_PT_
FNA:3,5,_ZNSt3__116allocator_traitsINS_9allocatorINS_6vectorIiNS1_IiEEEEEEE7destroyB8ne200100IS4_Li0EEEvRS5_PT_
FNA:3,84,_ZNSt3__116allocator_traitsINS_9allocatorIPKN7testing8internal15ExpectationBaseEEEE7destroyB8ne200100IS6_Li0EEEvRS7_PT_
FNA:3,77,_ZNSt3__116allocator_traitsINS_9allocatorIPKvEEE7destroyB8ne200100IS3_Li0EEEvRS4_PT_
FNA:3,0,_ZNSt3__116allocator_traitsINS_9allocatorIPN7testing11EnvironmentEEEE7destroyB8ne200100IS4_Li0EEEvRS5_PT_
FNA:3,1,_ZNSt3__116allocator_traitsINS_9allocatorIPN7testing17TestEventListenerEEEE7destroyB8ne200100IS4_Li0EEEvRS5_PT_
FNA:3,0,_ZNSt3__116allocator_traitsINS_9allocatorIPN7testing8TestInfoEEEE7destroyB8ne200100IS4_Li0EEEvRS5_PT_
FNA:3,79,_ZNSt3__116allocator_traitsINS_9allocatorIPN7testing8internal15ExpectationBaseEEEE7destroyB8ne200100IS5_Li0EEEvRS6_PT_
FNA:3,0,_ZNSt3__116allocator_traitsINS_9allocatorIPN7testing8internal30ParameterizedTestSuiteInfoBaseEEEE7destroyB8ne200100IS5_Li0EEEvRS6_PT_
FNA:3,0,_ZNSt3__116allocator_traitsINS_9allocatorIPN7testing9TestSuiteEEEE7destroyB8ne200100IS4_Li0EEEvRS5_PT_
FNA:3,0,_ZNSt3__116allocator_traitsINS_9allocatorIPcEEE7destroyB8ne200100IS2_Li0EEEvRS3_PT_
FNA:3,2,_ZNSt3__116allocator_traitsINS_9allocatorIPiEEE7destroyB8ne200100IS2_Li0EEEvRS3_PT_
FNA:3,3038,_ZNSt3__116allocator_traitsINS_9allocatorIcEEE7destroyB8ne200100IcLi0EEEvRS2_PT_
FNA:3,0,_ZNSt3__116allocator_traitsINS_9allocatorIdEEE7destroyB8ne200100IdLi0EEEvRS2_PT_
FNA:3,2,_ZNSt3__116allocator_traitsINS_9allocatorIfEEE7destroyB8ne200100IfLi0EEEvRS2_PT_
FNA:3,89,_ZNSt3__116allocator_traitsINS_9allocatorIiEEE7destroyB8ne200100IiLi0EEEvRS2_PT_
FNA:3,0,_ZNSt3__116allocator_traitsINS_9allocatorImEEE7destroyB8ne200100ImLi0EEEvRS2_PT_
FNA:3,3,_ZNSt3__116allocator_traitsINS_9allocatorIwEEE7destroyB8ne200100IwLi0EEEvRS2_PT_
FNL:4,328
FNA:4,55,_ZNSt3__116allocator_traitsINS_9allocatorINS_11__hash_nodeINS_17__hash_value_typeImN7testing8internal12CallReactionEEEPvEEEEE7destroyB8ne200100INS_4pairIKmS6_EEvLi0EEEvRSA_PT_
FNA:4,0,_ZNSt3__116allocator_traitsINS_9allocatorINS_11__list_nodeINS_4pairIcPKcEEPvEEEEE7destroyB8ne200100IS6_vLi0EEEvRS9_PT_
FNA:4,2,_ZNSt3__116allocator_traitsINS_9allocatorINS_11__list_nodeIcPvEEEEE7destroyB8ne200100IcvLi0EEEvRS5_PT_
FNA:4,3,_ZNSt3__116allocator_traitsINS_9allocatorINS_11__tree_nodeIN7testing11ExpectationEPvEEEEE7destroyB8ne200100IS4_vLi0EEEvRS7_PT_
FNA:4,1,_ZNSt3__116allocator_traitsINS_9allocatorINS_11__tree_nodeINS_12__value_typeINS_10error_codeEiEEPvEEEEE7destroyB8ne200100INS_4pairIKS4_iEEvLi0EEEvRS8_PT_
FNA:4,0,_ZNSt3__116allocator_traitsINS_9allocatorINS_11__tree_nodeINS_12__value_typeINS_12basic_stringIcNS_11char_traitsIcEENS1_IcEEEEN7testing8internal34TypeParameterizedTestSuiteRegistry30TypeParameterizedTestSuiteInfoEEEPvEEEEE7destroyB8ne200100INS_4pairIKS8_SC_EEvLi0EEEvRSG_PT_
FNA:4,2,_ZNSt3__116allocator_traitsINS_9allocatorINS_11__tree_nodeINS_12__value_typeINS_12basic_stringIcNS_11char_traitsIcEENS1_IcEEEEiEEPvEEEEE7destroyB8ne200100INS_4pairIKS8_iEEvLi0EEEvRSC_PT_
FNA:4,0,_ZNSt3__116allocator_traitsINS_9allocatorINS_11__tree_nodeINS_12__value_typeINS_12basic_stringIcNS_11char_traitsIcEENS1_IcEEEEmEEPvEEEEE7destroyB8ne200100INS_4pairIKS8_mEEvLi0EEEvRSC_PT_
FNA:4,2,_ZNSt3__116allocator_traitsINS_9allocatorINS_11__tree_nodeINS_12__value_typeINS_12basic_stringIwNS_11char_traitsIwEENS1_IwEEEEiEEPvEEEEE7destroyB8ne200100INS_4pairIKS8_iEEvLi0EEEvRSC_PT_
FNA:4,67,_ZNSt3__116allocator_traitsINS_9allocatorINS_11__tree_nodeINS_12__value_typeIPKvN7testing12_GLOBAL__N_115MockObjectStateEEEPvEEEEE7destroyB8ne200100INS_4pairIKS5_S8_EEvLi0EEEvRSC_PT_
FNA:4,1,_ZNSt3__116allocator_traitsINS_9allocatorINS_11__tree_nodeINS_12__value_typeIi14test_map_valueEEPvEEEEE7destroyB8ne200100INS_4pairIKiS4_EEvLi0EEEvRS8_PT_
FNA:4,2,_ZNSt3__116allocator_traitsINS_9allocatorINS_11__tree_nodeINS_12basic_stringIcNS_11char_traitsIcEENS1_IcEEEEPvEEEEE7destroyB8ne200100IS7_vLi0EEEvRSA_PT_
FNA:4,71,_ZNSt3__116allocator_traitsINS_9allocatorINS_11__tree_nodeIPN7testing8internal25UntypedFunctionMockerBaseEPvEEEEE7destroyB8ne200100IS6_vLi0EEEvRS9_PT_
FNL:5,333
FNA:5,3,_ZNSt3__116allocator_traitsI18max_size_allocatorINS_9allocatorIcEELm160EEE8max_sizeB8ne200100IS4_Li0EEEmRKS4_
FNA:5,4,_ZNSt3__116allocator_traitsINS_9allocatorI17basic_test_stringIcEEEE8max_sizeB8ne200100IS4_Li0EEEmRKS4_
FNA:5,2,_ZNSt3__116allocator_traitsINS_9allocatorI2tmEEE8max_sizeB8ne200100IS3_Li0EEEmRKS3_
FNA:5,4,_ZNSt3__116allocator_traitsINS_9allocatorI9test_enumEEE8max_sizeB8ne200100IS3_Li0EEEmRKS3_
FNA:5,62,_ZNSt3__116allocator_traitsINS_9allocatorIN3fmt3v1216basic_format_argINS3_7contextEEEEEE8max_sizeB8ne200100IS7_Li0EEEmRKS7_
FNA:5,18,_ZNSt3__116allocator_traitsINS_9allocatorIN3fmt3v126detail14named_arg_infoIcEEEEE8max_sizeB8ne200100IS7_Li0EEEmRKS7_
FNA:5,0,_ZNSt3__116allocator_traitsINS_9allocatorIN7testing12TestPropertyEEEE8max_sizeB8ne200100IS4_Li0EEEmRKS4_
FNA:5,52,_ZNSt3__116allocator_traitsINS_9allocatorIN7testing14TestPartResultEEEE8max_sizeB8ne200100IS4_Li0EEEmRKS4_
FNA:5,0,_ZNSt3__116allocator_traitsINS_9allocatorIN7testing8internal13edit_distance8EditTypeEEEE8max_sizeB8ne200100IS6_Li0EEEmRKS6_
FNA:5,0,_ZNSt3__116allocator_traitsINS_9allocatorIN7testing8internal9TraceInfoEEEE8max_sizeB8ne200100IS5_Li0EEEmRKS5_
FNA:5,0,_ZNSt3__116allocator_traitsINS_9allocatorINS_10__function6__funcI12check_customNS1_IS4_EEF11test_resultN3fmt3v1216basic_format_argINS8_7contextEE6handleEEEEEEE8max_sizeB8ne200100ISF_Li0EEEmRKSF_
FNA:5,0,_ZNSt3__116allocator_traitsINS_9allocatorINS_10__function6__funcIN7testing6ActionIF11test_resultN3fmt3v1216basic_format_argINS8_7contextEE6handleEEE13ActionAdapterENS1_ISF_EESD_EEEEE8max_sizeB8ne200100ISI_Li0EEEmRKSI_
FNA:5,0,_ZNSt3__116allocator_traitsINS_9allocatorINS_10__function6__funcIN7testing6ActionIF11test_resultN3fmt3v1217basic_string_viewIcEEEE13ActionAdapterENS1_ISD_EESB_EEEEE8max_sizeB8ne200100ISG_Li0EEEmRKSG_
FNA:5,0,_ZNSt3__116allocator_traitsINS_9allocatorINS_10__function6__funcIN7testing6ActionIF11test_resultN3fmt3v129monostateEEE13ActionAdapterENS1_ISC_EESA_EEEEE8max_sizeB8ne200100ISF_Li0EEEmRKSF_
FNA:5,0,_ZNSt3__116allocator_traitsINS_9allocatorINS_10__function6__funcIN7testing6ActionIF11test_resultPKcEE13ActionAdapterENS1_ISB_EES9_EEEEE8max_sizeB8ne200100ISE_Li0EEEmRKSE_
