TN:
SF:/Users/raywang/USI/Thesis/2025-xiaorui-wang/fmt/include/fmt/args.h
FNL:0,108,109
FNA:0,14,_ZNK3fmt3v1224dynamic_format_arg_storeINS0_7contextEE4dataEv
FNL:1,112,114
FNA:1,3,_ZN3fmt3v1224dynamic_format_arg_storeINS0_7contextEE11emplace_argI11custom_typeEEvRKT_
FNA:1,2,_ZN3fmt3v1224dynamic_format_arg_storeINS0_7contextEE11emplace_argI13to_stringableEEvRKT_
FNA:1,0,_ZN3fmt3v1224dynamic_format_arg_storeINS0_7contextEE11emplace_argI14copy_throwableEEvRKT_
FNA:1,1,_ZN3fmt3v1224dynamic_format_arg_storeINS0_7contextEE11emplace_argIA11_cEEvRKT_
FNA:1,1,_ZN3fmt3v1224dynamic_format_arg_storeINS0_7contextEE11emplace_argINS0_17basic_string_viewIcEEEEvRKT_
FNA:1,5,_ZN3fmt3v1224dynamic_format_arg_storeINS0_7contextEE11emplace_argINSt3__112basic_stringIcNS5_11char_traitsIcEENS5_9allocatorIcEEEEEEvRKT_
FNA:1,2,_ZN3fmt3v1224dynamic_format_arg_storeINS0_7contextEE11emplace_argIfEEvRKT_
FNA:1,6,_ZN3fmt3v1224dynamic_format_arg_storeINS0_7contextEE11emplace_argIiEEvRKT_
FNL:2,117,120
FNA:2,2,_ZN3fmt3v1224dynamic_format_arg_storeINS0_7contextEE11emplace_argI11custom_typeEEvRKNS0_6detail9named_argIcT_EE
FNA:2,2,_ZN3fmt3v1224dynamic_format_arg_storeINS0_7contextEE11emplace_argINSt3__112basic_stringIcNS5_11char_traitsIcEENS5_9allocatorIcEEEEEEvRKNS0_6detail9named_argIcT_EE
FNA:2,1,_ZN3fmt3v1224dynamic_format_arg_storeINS0_7contextEE11emplace_argINSt3__117reference_wrapperIA11_KcEEEEvRKNS0_6detail9named_argIcT_EE
FNA:2,1,_ZN3fmt3v1224dynamic_format_arg_storeINS0_7contextEE11emplace_argINSt3__117reference_wrapperIA15_KcEEEEvRKNS0_6detail9named_argIcT_EE
FNA:2,1,_ZN3fmt3v1224dynamic_format_arg_storeINS0_7contextEE11emplace_argINSt3__117reference_wrapperIK11custom_typeEEEEvRKNS0_6detail9named_argIcT_EE
FNA:2,2,_ZN3fmt3v1224dynamic_format_arg_storeINS0_7contextEE11emplace_argIiEEvRKNS0_6detail9named_argIcT_EE
FNL:3,121,129
FNA:3,9,_ZZN3fmt3v1224dynamic_format_arg_storeINS0_7contextEE11emplace_argI11custom_typeEEvRKNS0_6detail9named_argIcT_EEENKUlPNSt3__16vectorINS0_16basic_format_argIS2_EENSC_9allocatorISF_EEEEE_clESJ_
FNA:3,9,_ZZN3fmt3v1224dynamic_format_arg_storeINS0_7contextEE11emplace_argINSt3__112basic_stringIcNS5_11char_traitsIcEENS5_9allocatorIcEEEEEEvRKNS0_6detail9named_argIcT_EEENKUlPNS5_6vectorINS0_16basic_format_argIS2_EENS9_ISK_EEEEE_clESN_
FNA:3,9,_ZZN3fmt3v1224dynamic_format_arg_storeINS0_7contextEE11emplace_argINSt3__117reference_wrapperIA11_KcEEEEvRKNS0_6detail9named_argIcT_EEENKUlPNS5_6vectorINS0_16basic_format_argIS2_EENS5_9allocatorISI_EEEEE_clESM_
FNA:3,9,_ZZN3fmt3v1224dynamic_format_arg_storeINS0_7contextEE11emplace_argINSt3__117reference_wrapperIA15_KcEEEEvRKNS0_6detail9named_argIcT_EEENKUlPNS5_6vectorINS0_16basic_format_argIS2_EENS5_9allocatorISI_EEEEE_clESM_
FNA:3,9,_ZZN3fmt3v1224dynamic_format_arg_storeINS0_7contextEE11emplace_argINSt3__117reference_wrapperIK11custom_typeEEEEvRKNS0_6detail9named_argIcT_EEENKUlPNS5_6vectorINS0_16basic_format_argIS2_EENS5_9allocatorISI_EEEEE_clESM_
FNA:3,9,_ZZN3fmt3v1224dynamic_format_arg_storeINS0_7contextEE11emplace_argIiEEvRKNS0_6detail9named_argIcT_EEENKUlPNSt3__16vectorINS0_16basic_format_argIS2_EENSB_9allocatorISE_EEEEE_clESI_
FNL:4,132,132
FNA:4,13,_ZN3fmt3v1224dynamic_format_arg_storeINS0_7contextEEC1Ev
FNA:4,13,_ZN3fmt3v1224dynamic_format_arg_storeINS0_7contextEEC2Ev
FNL:5,134,136
FNA:5,14,_ZNK3fmt3v1224dynamic_format_arg_storeINS0_7contextEEcvNS0_17basic_format_argsIS2_EEEv
FNL:6,154,159
FNA:6,2,_ZN3fmt3v1224dynamic_format_arg_storeINS0_7contextEE9push_backI11custom_typeEEvRKT_
FNA:6,1,_ZN3fmt3v1224dynamic_format_arg_storeINS0_7contextEE9push_backI13to_stringableEEvRKT_
FNA:6,1,_ZN3fmt3v1224dynamic_format_arg_storeINS0_7contextEE9push_backI14copy_throwableEEvRKT_
FNA:6,2,_ZN3fmt3v1224dynamic_format_arg_storeINS0_7contextEE9push_backIA11_cEEvRKT_
FNA:6,1,_ZN3fmt3v1224dynamic_format_arg_storeINS0_7contextEE9push_backIA5_cEEvRKT_
FNA:6,1,_ZN3fmt3v1224dynamic_format_arg_storeINS0_7contextEE9push_backINS0_17basic_string_viewIcEEEEvRKT_
FNA:6,2,_ZN3fmt3v1224dynamic_format_arg_storeINS0_7contextEE9push_backINSt3__112basic_stringIcNS5_11char_traitsIcEENS5_9allocatorIcEEEEEEvRKT_
FNA:6,2,_ZN3fmt3v1224dynamic_format_arg_storeINS0_7contextEE9push_backIfEEvRKT_
FNA:6,6,_ZN3fmt3v1224dynamic_format_arg_storeINS0_7contextEE9push_backIiEEvRKT_
FNL:7,174,179
FNA:7,1,_ZN3fmt3v1224dynamic_format_arg_storeINS0_7contextEE9push_backIA11_KcEEvNSt3__117reference_wrapperIT_EE
FNA:7,1,_ZN3fmt3v1224dynamic_format_arg_storeINS0_7contextEE9push_backIK11custom_typeEEvNSt3__117reference_wrapperIT_EE
FNA:7,1,_ZN3fmt3v1224dynamic_format_arg_storeINS0_7contextEE9push_backIK13to_stringableEEvNSt3__117reference_wrapperIT_EE
FNL:8,187,196
FNA:8,2,_ZN3fmt3v1224dynamic_format_arg_storeINS0_7contextEE9push_backI11custom_typeEEvRKNS0_6detail9named_argIcT_EE
FNA:8,1,_ZN3fmt3v1224dynamic_format_arg_storeINS0_7contextEE9push_backIA11_cEEvRKNS0_6detail9named_argIcT_EE
FNA:8,1,_ZN3fmt3v1224dynamic_format_arg_storeINS0_7contextEE9push_backIA4_cEEvRKNS0_6detail9named_argIcT_EE
FNA:8,1,_ZN3fmt3v1224dynamic_format_arg_storeINS0_7contextEE9push_backINSt3__117reference_wrapperIA11_KcEEEEvRKNS0_6detail9named_argIcT_EE
FNA:8,1,_ZN3fmt3v1224dynamic_format_arg_storeINS0_7contextEE9push_backINSt3__117reference_wrapperIA15_KcEEEEvRKNS0_6detail9named_argIcT_EE
FNA:8,1,_ZN3fmt3v1224dynamic_format_arg_storeINS0_7contextEE9push_backINSt3__117reference_wrapperIK11custom_typeEEEEvRKNS0_6detail9named_argIcT_EE
FNA:8,2,_ZN3fmt3v1224dynamic_format_arg_storeINS0_7contextEE9push_backIiEEvRKNS0_6detail9named_argIcT_EE
FNL:9,199,203
FNA:9,2,_ZN3fmt3v1224dynamic_format_arg_storeINS0_7contextEE5clearEv
FNL:10,207,212
FNA:10,1,_ZN3fmt3v1224dynamic_format_arg_storeINS0_7contextEE7reserveEmm
FNL:11,215,215
FNA:11,4,_ZNK3fmt3v1224dynamic_format_arg_storeINS0_7contextEE4sizeEv
FNL:12,26,26
FNA:12,2,_ZN3fmt3v126detail6unwrapI11custom_typeEERKT_S6_
FNA:12,1,_ZN3fmt3v126detail6unwrapINS0_17basic_string_viewIcEEEERKT_S7_
FNA:12,2,_ZN3fmt3v126detail6unwrapINSt3__112basic_stringIcNS3_11char_traitsIcEENS3_9allocatorIcEEEEEERKT_SC_
FNA:12,2,_ZN3fmt3v126detail6unwrapIfEERKT_S5_
FNA:12,8,_ZN3fmt3v126detail6unwrapIiEERKT_S5_
FNL:13,28,29
FNA:13,1,_ZN3fmt3v126detail6unwrapIA11_KcEERKT_RKNSt3__117reference_wrapperIS5_EE
FNA:13,1,_ZN3fmt3v126detail6unwrapIA15_KcEERKT_RKNSt3__117reference_wrapperIS5_EE
FNA:13,1,_ZN3fmt3v126detail6unwrapIK11custom_typeEERKT_RKNSt3__117reference_wrapperIS5_EE
FNL:14,38
FNA:14,22,_ZN3fmt3v126detail4nodeIvEC2Ev
FNL:15,39,39
FNA:15,0,_ZN3fmt3v126detail4nodeIvED0Ev
FNA:15,0,_ZN3fmt3v126detail4nodeIvED1Ev
FNA:15,22,_ZN3fmt3v126detail4nodeIvED2Ev
FNL:16,43
FNA:16,1,_ZN3fmt3v126detail16dynamic_arg_listC1EOS2_
FNA:16,15,_ZN3fmt3v126detail16dynamic_arg_listC1Ev
FNA:16,1,_ZN3fmt3v126detail16dynamic_arg_listC2EOS2_
FNA:16,15,_ZN3fmt3v126detail16dynamic_arg_listC2Ev
FNA:16,16,_ZN3fmt3v126detail16dynamic_arg_listD1Ev
FNA:16,16,_ZN3fmt3v126detail16dynamic_arg_listD2Ev
FNA:16,2,_ZN3fmt3v126detail16dynamic_arg_listaSEOS2_
FNL:17,44
FNA:17,4,_ZN3fmt3v126detail16dynamic_arg_list10typed_nodeI11custom_typeED0Ev
FNA:17,4,_ZN3fmt3v126detail16dynamic_arg_list10typed_nodeI11custom_typeED1Ev
FNA:17,4,_ZN3fmt3v126detail16dynamic_arg_list10typed_nodeI11custom_typeED2Ev
FNA:17,1,_ZN3fmt3v126detail16dynamic_arg_list10typed_nodeI13to_stringableED0Ev
FNA:17,1,_ZN3fmt3v126detail16dynamic_arg_list10typed_nodeI13to_stringableED1Ev
FNA:17,1,_ZN3fmt3v126detail16dynamic_arg_list10typed_nodeI13to_stringableED2Ev
FNA:17,0,_ZN3fmt3v126detail16dynamic_arg_list10typed_nodeI14copy_throwableED0Ev
FNA:17,0,_ZN3fmt3v126detail16dynamic_arg_list10typed_nodeI14copy_throwableED1Ev
FNA:17,0,_ZN3fmt3v126detail16dynamic_arg_list10typed_nodeI14copy_throwableED2Ev
FNA:17,16,_ZN3fmt3v126detail16dynamic_arg_list10typed_nodeINSt3__112basic_stringIcNS4_11char_traitsIcEENS4_9allocatorIcEEEEED0Ev
FNA:17,16,_ZN3fmt3v126detail16dynamic_arg_list10typed_nodeINSt3__112basic_stringIcNS4_11char_traitsIcEENS4_9allocatorIcEEEEED1Ev
FNA:17,16,_ZN3fmt3v126detail16dynamic_arg_list10typed_nodeINSt3__112basic_stringIcNS4_11char_traitsIcEENS4_9allocatorIcEEEEED2Ev
FNL:18,48,48
FNA:18,4,_ZN3fmt3v126detail16dynamic_arg_list10typed_nodeI11custom_typeEC1IS4_EERKT_
FNA:18,4,_ZN3fmt3v126detail16dynamic_arg_list10typed_nodeI11custom_typeEC2IS4_EERKT_
FNA:18,1,_ZN3fmt3v126detail16dynamic_arg_list10typed_nodeI13to_stringableEC1IS4_EERKT_
FNA:18,1,_ZN3fmt3v126detail16dynamic_arg_list10typed_nodeI13to_stringableEC2IS4_EERKT_
FNA:18,1,_ZN3fmt3v126detail16dynamic_arg_list10typed_nodeI14copy_throwableEC1IS4_EERKT_
FNA:18,1,_ZN3fmt3v126detail16dynamic_arg_list10typed_nodeI14copy_throwableEC2IS4_EERKT_
FNA:18,3,_ZN3fmt3v126detail16dynamic_arg_list10typed_nodeINSt3__112basic_stringIcNS4_11char_traitsIcEENS4_9allocatorIcEEEEEC1IA11_cEERKT_
FNA:18,1,_ZN3fmt3v126detail16dynamic_arg_list10typed_nodeINSt3__112basic_stringIcNS4_11char_traitsIcEENS4_9allocatorIcEEEEEC1IA4_cEERKT_
FNA:18,1,_ZN3fmt3v126detail16dynamic_arg_list10typed_nodeINSt3__112basic_stringIcNS4_11char_traitsIcEENS4_9allocatorIcEEEEEC1IA5_cEERKT_
FNA:18,9,_ZN3fmt3v126detail16dynamic_arg_list10typed_nodeINSt3__112basic_stringIcNS4_11char_traitsIcEENS4_9allocatorIcEEEEEC1IPKcEERKT_
FNA:18,2,_ZN3fmt3v126detail16dynamic_arg_list10typed_nodeINSt3__112basic_stringIcNS4_11char_traitsIcEENS4_9allocatorIcEEEEEC1ISA_EERKT_
FNA:18,3,_ZN3fmt3v126detail16dynamic_arg_list10typed_nodeINSt3__112basic_stringIcNS4_11char_traitsIcEENS4_9allocatorIcEEEEEC2IA11_cEERKT_
FNA:18,1,_ZN3fmt3v126detail16dynamic_arg_list10typed_nodeINSt3__112basic_stringIcNS4_11char_traitsIcEENS4_9allocatorIcEEEEEC2IA4_cEERKT_
FNA:18,1,_ZN3fmt3v126detail16dynamic_arg_list10typed_nodeINSt3__112basic_stringIcNS4_11char_traitsIcEENS4_9allocatorIcEEEEEC2IA5_cEERKT_
FNA:18,9,_ZN3fmt3v126detail16dynamic_arg_list10typed_nodeINSt3__112basic_stringIcNS4_11char_traitsIcEENS4_9allocatorIcEEEEEC2IPKcEERKT_
FNA:18,2,_ZN3fmt3v126detail16dynamic_arg_list10typed_nodeINSt3__112basic_stringIcNS4_11char_traitsIcEENS4_9allocatorIcEEEEEC2ISA_EERKT_
FNL:19,58,64
FNA:19,4,_ZN3fmt3v126detail16dynamic_arg_list4pushI11custom_typeS4_EERKT_RKT0_
FNA:19,1,_ZN3fmt3v126detail16dynamic_arg_list4pushI13to_stringableS4_EERKT_RKT0_
FNA:19,1,_ZN3fmt3v126detail16dynamic_arg_list4pushI14copy_throwableS4_EERKT_RKT0_
FNA:19,3,_ZN3fmt3v126detail16dynamic_arg_list4pushINSt3__112basic_stringIcNS4_11char_traitsIcEENS4_9allocatorIcEEEEA11_cEERKT_RKT0_
FNA:19,1,_ZN3fmt3v126detail16dynamic_arg_list4pushINSt3__112basic_stringIcNS4_11char_traitsIcEENS4_9allocatorIcEEEEA4_cEERKT_RKT0_
FNA:19,1,_ZN3fmt3v126detail16dynamic_arg_list4pushINSt3__112basic_stringIcNS4_11char_traitsIcEENS4_9allocatorIcEEEEA5_cEERKT_RKT0_
FNA:19,9,_ZN3fmt3v126detail16dynamic_arg_list4pushINSt3__112basic_stringIcNS4_11char_traitsIcEENS4_9allocatorIcEEEEPKcEERKT_RKT0_
FNA:19,2,_ZN3fmt3v126detail16dynamic_arg_list4pushINSt3__112basic_stringIcNS4_11char_traitsIcEENS4_9allocatorIcEEEESA_EERKT_RKT0_
FNL:20,74
FNA:20,1,_ZN3fmt3v1224dynamic_format_arg_storeINS0_7contextEEC1EOS3_
FNA:20,1,_ZN3fmt3v1224dynamic_format_arg_storeINS0_7contextEEC2EOS3_
FNA:20,14,_ZN3fmt3v1224dynamic_format_arg_storeINS0_7contextEED1Ev
FNA:20,14,_ZN3fmt3v1224dynamic_format_arg_storeINS0_7contextEED2Ev
FNF:21
FNH:21
DA:26,15
DA:28,3
DA:29,3
DA:39,22
DA:48,44
DA:58,22
DA:59,22
DA:60,21
DA:61,21
DA:62,21
DA:63,21
DA:64,23
DA:108,14
DA:109,14
DA:112,20
DA:113,20
DA:114,20
DA:117,9
DA:118,9
DA:119,6
DA:120,9
DA:121,9
DA:122,0
DA:123,0
DA:124,9
DA:125,9
DA:126,9
DA:127,9
DA:128,9
DA:129,9
DA:132,26
DA:134,14
DA:135,28
DA:136,14
DA:154,18
DA:156,9
DA:158,9
DA:159,18
DA:174,3
DA:178,3
DA:179,3
DA:187,9
DA:188,18
DA:189,9
DA:191,4
DA:192,4
DA:194,5
DA:196,9
DA:199,2
DA:200,2
DA:201,2
DA:202,2
DA:203,2
DA:207,1
DA:208,1
DA:210,1
DA:211,1
DA:212,1
DA:215,4
LF:59
LH:57
end_of_record
TN:
SF:/Users/raywang/USI/Thesis/2025-xiaorui-wang/fmt/include/fmt/base.h
FNL:0,1031,1032
FNA:0,2514,_ZN3fmt3v126detail16is_integral_typeENS1_4typeE
FNL:1,1034,1035
FNA:1,218,_ZN3fmt3v126detail18is_arithmetic_typeENS1_4typeE
FNL:2,1039,1040
FNA:2,3084,_ZN3fmt3v126detail2inENS1_4typeEi
FNL:3,1076,1076
FNA:3,4,_ZN3fmt3v126detail9named_argIc11custom_typeEC1EPKcRKS3_
FNA:3,4,_ZN3fmt3v126detail9named_argIc11custom_typeEC2EPKcRKS3_
FNA:3,1,_ZN3fmt3v126detail9named_argIc6AnswerEC1EPKcRKS3_
FNA:3,1,_ZN3fmt3v126detail9named_argIc6AnswerEC2EPKcRKS3_
FNA:3,1,_ZN3fmt3v126detail9named_argIcA11_cEC1EPKcRA11_S5_
FNA:3,1,_ZN3fmt3v126detail9named_argIcA11_cEC2EPKcRA11_S5_
FNA:3,1,_ZN3fmt3v126detail9named_argIcA2_cEC1EPKcRA2_S5_
FNA:3,1,_ZN3fmt3v126detail9named_argIcA2_cEC2EPKcRA2_S5_
FNA:3,2,_ZN3fmt3v126detail9named_argIcA4_cEC1EPKcRA4_S5_
FNA:3,2,_ZN3fmt3v126detail9named_argIcA4_cEC2EPKcRA4_S5_
FNA:3,1,_ZN3fmt3v126detail9named_argIcA5_cEC1EPKcRA5_S5_
FNA:3,1,_ZN3fmt3v126detail9named_argIcA5_cEC2EPKcRA5_S5_
FNA:3,2,_ZN3fmt3v126detail9named_argIcNSt3__112basic_stringIcNS3_11char_traitsIcEENS3_9allocatorIcEEEEEC1EPKcRKS9_
FNA:3,2,_ZN3fmt3v126detail9named_argIcNSt3__112basic_stringIcNS3_11char_traitsIcEENS3_9allocatorIcEEEEEC2EPKcRKS9_
FNA:3,2,_ZN3fmt3v126detail9named_argIcNSt3__117reference_wrapperIA11_KcEEEC1EPS5_RKS7_
FNA:3,2,_ZN3fmt3v126detail9named_argIcNSt3__117reference_wrapperIA11_KcEEEC2EPS5_RKS7_
FNA:3,2,_ZN3fmt3v126detail9named_argIcNSt3__117reference_wrapperIA15_KcEEEC1EPS5_RKS7_
FNA:3,2,_ZN3fmt3v126detail9named_argIcNSt3__117reference_wrapperIA15_KcEEEC2EPS5_RKS7_
FNA:3,2,_ZN3fmt3v126detail9named_argIcNSt3__117reference_wrapperIK11custom_typeEEEC1EPKcRKS7_
FNA:3,2,_ZN3fmt3v126detail9named_argIcNSt3__117reference_wrapperIK11custom_typeEEEC2EPKcRKS7_
FNA:3,1,_ZN3fmt3v126detail9named_argIcRA4_KcEC1EPS3_S5_
FNA:3,1,_ZN3fmt3v126detail9named_argIcRA4_KcEC2EPS3_S5_
FNA:3,1,_ZN3fmt3v126detail9named_argIcRA5_KcEC1EPS3_S5_
FNA:3,1,_ZN3fmt3v126detail9named_argIcRA5_KcEC2EPS3_S5_
FNA:3,1,_ZN3fmt3v126detail9named_argIccEC1EPKcRS4_
FNA:3,1,_ZN3fmt3v126detail9named_argIccEC2EPKcRS4_
FNA:3,32,_ZN3fmt3v126detail9named_argIciEC1EPKcRKi
FNA:3,32,_ZN3fmt3v126detail9named_argIciEC2EPKcRKi
FNA:3,1,_ZN3fmt3v126detail9named_argIwA4_wEC1EPKwRA4_S5_
FNA:3,1,_ZN3fmt3v126detail9named_argIwA4_wEC2EPKwRA4_S5_
FNA:3,1,_ZN3fmt3v126detail9named_argIwA5_wEC1EPKwRA5_S5_
FNA:3,1,_ZN3fmt3v126detail9named_argIwA5_wEC2EPKwRA5_S5_
FNA:3,1,_ZN3fmt3v126detail9named_argIwRA4_KwEC1EPS3_S5_
FNA:3,1,_ZN3fmt3v126detail9named_argIwRA4_KwEC2EPS3_S5_
FNA:3,1,_ZN3fmt3v126detail9named_argIwRA5_KwEC1EPS3_S5_
FNA:3,1,_ZN3fmt3v126detail9named_argIwRA5_KwEC2EPS3_S5_
FNA:3,2,_ZN3fmt3v126detail9named_argIwiEC1EPKwRKi
FNA:3,2,_ZN3fmt3v126detail9named_argIwiEC2EPKwRKi
FNL:4,1099,1105
FNA:4,35,_ZN3fmt3v126detail19check_for_duplicateIcEEvPNS1_14named_arg_infoIT_EEiNS0_17basic_string_viewIS4_EE
FNA:4,6,_ZN3fmt3v126detail19check_for_duplicateIwEEvPNS1_14named_arg_infoIT_EEiNS0_17basic_string_viewIS4_EE
FNL:5,1108,1110
FNA:5,1,_ZN3fmt3v126detail14init_named_argIcA4_cLi0EEEvPNS1_14named_arg_infoIT_EERiS8_RKT0_
FNA:5,3,_ZN3fmt3v126detail14init_named_argIciLi0EEEvPNS1_14named_arg_infoIT_EERiS7_RKT0_
FNL:6,1112,1116
FNA:6,1,_ZN3fmt3v126detail14init_named_argIcNS1_9named_argIc6AnswerEELi0EEEvPNS1_14named_arg_infoIT_EERiSA_RKT0_
FNA:6,1,_ZN3fmt3v126detail14init_named_argIcNS1_9named_argIcA2_cEELi0EEEvPNS1_14named_arg_infoIT_EERiSA_RKT0_
FNA:6,1,_ZN3fmt3v126detail14init_named_argIcNS1_9named_argIcA4_cEELi0EEEvPNS1_14named_arg_infoIT_EERiSA_RKT0_
FNA:6,1,_ZN3fmt3v126detail14init_named_argIcNS1_9named_argIcA5_cEELi0EEEvPNS1_14named_arg_infoIT_EERiSA_RKT0_
FNA:6,1,_ZN3fmt3v126detail14init_named_argIcNS1_9named_argIcRA4_KcEELi0EEEvPNS1_14named_arg_infoIT_EERiSC_RKT0_
FNA:6,1,_ZN3fmt3v126detail14init_named_argIcNS1_9named_argIcRA5_KcEELi0EEEvPNS1_14named_arg_infoIT_EERiSC_RKT0_
FNA:6,1,_ZN3fmt3v126detail14init_named_argIcNS1_9named_argIccEELi0EEEvPNS1_14named_arg_infoIT_EERiS9_RKT0_
FNA:6,28,_ZN3fmt3v126detail14init_named_argIcNS1_9named_argIciEELi0EEEvPNS1_14named_arg_infoIT_EERiS9_RKT0_
FNA:6,1,_ZN3fmt3v126detail14init_named_argIwNS1_9named_argIwA4_wEELi0EEEvPNS1_14named_arg_infoIT_EERiSA_RKT0_
FNA:6,1,_ZN3fmt3v126detail14init_named_argIwNS1_9named_argIwA5_wEELi0EEEvPNS1_14named_arg_infoIT_EERiSA_RKT0_
FNA:6,1,_ZN3fmt3v126detail14init_named_argIwNS1_9named_argIwRA4_KwEELi0EEEvPNS1_14named_arg_infoIT_EERiSC_RKT0_
FNA:6,1,_ZN3fmt3v126detail14init_named_argIwNS1_9named_argIwRA5_KwEELi0EEEvPNS1_14named_arg_infoIT_EERiSC_RKT0_
FNA:6,2,_ZN3fmt3v126detail14init_named_argIwNS1_9named_argIwiEELi0EEEvPNS1_14named_arg_infoIT_EERiS9_RKT0_
FNL:7,1174,1175
FNA:7,1,_ZN3fmt3v126detail13has_formatterIK17const_formattablecEEbv
FNA:7,1,_ZN3fmt3v126detail13has_formatterIK20nonconst_formattablecEEbv
FNL:8,1289,1289
FNA:8,25281,_ZN3fmt3v126detail7arg_refIcEC1Ei
FNA:8,25281,_ZN3fmt3v126detail7arg_refIcEC2Ei
FNA:8,68,_ZN3fmt3v126detail7arg_refIwEC1Ei
FNA:8,68,_ZN3fmt3v126detail7arg_refIwEC2Ei
FNL:9,1290,1290
FNA:9,4,_ZN3fmt3v126detail7arg_refIcEC1ENS0_17basic_string_viewIcEE
FNA:9,4,_ZN3fmt3v126detail7arg_refIcEC2ENS0_17basic_string_viewIcEE
FNA:9,0,_ZN3fmt3v126detail7arg_refIwEC1ENS0_17basic_string_viewIwEE
FNA:9,0,_ZN3fmt3v126detail7arg_refIwEC2ENS0_17basic_string_viewIwEE
FNL:10,1299
FNA:10,2015,_ZN3fmt3v126detail20dynamic_format_specsIcEC1Ev
FNA:10,2015,_ZN3fmt3v126detail20dynamic_format_specsIcEC2Ev
FNA:10,29,_ZN3fmt3v126detail20dynamic_format_specsIwEC1Ev
FNA:10,29,_ZN3fmt3v126detail20dynamic_format_specsIwEC2Ev
FNL:11,1306,1307
FNA:11,48085,_ZN3fmt3v126detail8to_asciiIcLi0EEEcT_
FNA:11,50,_ZN3fmt3v126detail8to_asciiIwLi0EEEcT_
FNL:12,1312,1316
FNA:12,22017,_ZN3fmt3v126detail17code_point_lengthIcEEiPKT_
FNA:12,8,_ZN3fmt3v126detail17code_point_lengthIwEEiPKT_
FNL:13,1321,1341
FNA:13,2989,_ZN3fmt3v126detail21parse_nonnegative_intIcEEiRPKT_S5_i
FNA:13,6,_ZN3fmt3v126detail21parse_nonnegative_intIwEEiRPKT_S5_i
FNL:14,1343,1350
FNA:14,2744,_ZN3fmt3v126detail11parse_alignEc
FNL:15,1352,1353
FNA:15,149,_ZN3fmt3v126detail13is_name_startIcEEbT_
FNA:15,50,_ZN3fmt3v126detail13is_name_startIwEEbT_
FNL:16,1357,1382
FNA:16,56,_ZN3fmt3v126detail12parse_arg_idIcNS1_20dynamic_spec_handlerIcEEEEPKT_S7_S7_OT0_
FNA:16,0,_ZN3fmt3v126detail12parse_arg_idIcRZNS1_23parse_replacement_fieldIcRNS1_12scan_handlerEEEPKT_S8_S8_OT0_E10id_adapterEES8_S8_S8_SA_
FNA:16,1615,_ZN3fmt3v126detail12parse_arg_idIcRZNS1_23parse_replacement_fieldIcRNS1_14format_handlerIcEEEEPKT_S9_S9_OT0_E10id_adapterEES9_S9_S9_SB_
FNA:16,0,_ZN3fmt3v126detail12parse_arg_idIwNS1_20dynamic_spec_handlerIwEEEEPKT_S7_S7_OT0_
FNA:16,9,_ZN3fmt3v126detail12parse_arg_idIwRZNS1_23parse_replacement_fieldIwRNS1_14format_handlerIwEEEEPKT_S9_S9_OT0_E10id_adapterEES9_S9_S9_SB_
FNL:17,1389,1394
FNA:17,48,_ZN3fmt3v126detail20dynamic_spec_handlerIcE8on_indexEi
FNA:17,0,_ZN3fmt3v126detail20dynamic_spec_handlerIwE8on_indexEi
FNL:18,1395,1399
FNA:18,4,_ZN3fmt3v126detail20dynamic_spec_handlerIcE7on_nameENS0_17basic_string_viewIcEE
FNA:18,0,_ZN3fmt3v126detail20dynamic_spec_handlerIwE7on_nameENS0_17basic_string_viewIwEE
FNL:19,1409,1439
FNA:19,1651,_ZN3fmt3v126detail18parse_dynamic_specIcEENS1_25parse_dynamic_spec_resultIT_EEPKS4_S7_RiRNS1_7arg_refIS4_EERNS0_13parse_contextIS4_EE
FNA:19,6,_ZN3fmt3v126detail18parse_dynamic_specIwEENS1_25parse_dynamic_spec_resultIT_EEPKS4_S7_RiRNS1_7arg_refIS4_EERNS0_13parse_contextIS4_EE
FNL:20,1442,1448
FNA:20,1467,_ZN3fmt3v126detail11parse_widthIcEEPKT_S5_S5_RNS0_12format_specsERNS1_7arg_refIS3_EERNS0_13parse_contextIS3_EE
FNA:20,5,_ZN3fmt3v126detail11parse_widthIwEEPKT_S5_S5_RNS0_12format_specsERNS1_7arg_refIS3_EERNS0_13parse_contextIS3_EE
FNL:21,1451,1464
FNA:21,182,_ZN3fmt3v126detail15parse_precisionIcEEPKT_S5_S5_RNS0_12format_specsERNS1_7arg_refIS3_EERNS0_13parse_contextIS3_EE
FNA:21,1,_ZN3fmt3v126detail15parse_precisionIwEEPKT_S5_S5_RNS0_12format_specsERNS1_7arg_refIS3_EERNS0_13parse_contextIS3_EE
FNL:22,1470,1480
FNA:22,1832,_ZN3fmt3v126detail18parse_format_specsIcEEPKT_S5_S5_RNS1_20dynamic_format_specsIS3_EERNS0_13parse_contextIS3_EENS1_4typeE
FNA:22,14,_ZN3fmt3v126detail18parse_format_specsIwEEPKT_S5_S5_RNS1_20dynamic_format_specsIS3_EERNS0_13parse_contextIS3_EENS1_4typeE
FNL:23,1483,1484
FNA:23,1830,_ZZN3fmt3v126detail18parse_format_specsIcEEPKT_S5_S5_RNS1_20dynamic_format_specsIS3_EERNS0_13parse_contextIS3_EENS1_4typeEENUt_C1Ev
FNA:23,1830,_ZZN3fmt3v126detail18parse_format_specsIcEEPKT_S5_S5_RNS1_20dynamic_format_specsIS3_EERNS0_13parse_contextIS3_EENS1_4typeEENUt_C2Ev
FNA:23,14,_ZZN3fmt3v126detail18parse_format_specsIwEEPKT_S5_S5_RNS1_20dynamic_format_specsIS3_EERNS0_13parse_contextIS3_EENS1_4typeEENUt_C1Ev
FNA:23,14,_ZZN3fmt3v126detail18parse_format_specsIwEEPKT_S5_S5_RNS1_20dynamic_format_specsIS3_EERNS0_13parse_contextIS3_EENS1_4typeEENUt_C2Ev
FNL:24,1485,1494
FNA:24,2809,_ZZN3fmt3v126detail18parse_format_specsIcEEPKT_S5_S5_RNS1_20dynamic_format_specsIS3_EERNS0_13parse_contextIS3_EENS1_4typeEENUt_clENS1_5stateEb
FNA:24,18,_ZZN3fmt3v126detail18parse_format_specsIwEEPKT_S5_S5_RNS1_20dynamic_format_specsIS3_EERNS0_13parse_contextIS3_EENS1_4typeEENUt_clENS1_5stateEb
FNL:25,1499,1605
FNA:25,377,_ZZN3fmt3v126detail18parse_format_specsIcEEPKT_S5_S5_RNS1_20dynamic_format_specsIS3_EERNS0_13parse_contextIS3_EENS1_4typeEENUt0_clENS0_17presentation_typeEi
FNA:25,1,_ZZN3fmt3v126detail18parse_format_specsIwEEPKT_S5_S5_RNS1_20dynamic_format_specsIS3_EERNS0_13parse_contextIS3_EENS1_4typeEENUt0_clENS0_17presentation_typeEi
FNL:26,1608,1625
FNA:26,1029,_ZN3fmt3v126detail23parse_replacement_fieldIcRNS1_12scan_handlerEEEPKT_S7_S7_OT0_
FNA:26,86078,_ZN3fmt3v126detail23parse_replacement_fieldIcRNS1_14format_handlerIcEEEEPKT_S8_S8_OT0_
FNA:26,67,_ZN3fmt3v126detail23parse_replacement_fieldIwRNS1_14format_handlerIwEEEEPKT_S8_S8_OT0_
FNL:27,1629,1629
FNA:27,0,_ZZN3fmt3v126detail23parse_replacement_fieldIcRNS1_12scan_handlerEEEPKT_S7_S7_OT0_EN10id_adapter8on_indexEi
FNA:27,1581,_ZZN3fmt3v126detail23parse_replacement_fieldIcRNS1_14format_handlerIcEEEEPKT_S8_S8_OT0_EN10id_adapter8on_indexEi
FNA:27,1,_ZZN3fmt3v126detail23parse_replacement_fieldIwRNS1_14format_handlerIwEEEEPKT_S8_S8_OT0_EN10id_adapter8on_indexEi
FNL:28,1630,1652
FNA:28,0,_ZZN3fmt3v126detail23parse_replacement_fieldIcRNS1_12scan_handlerEEEPKT_S7_S7_OT0_EN10id_adapter7on_nameENS0_17basic_string_viewIcEE
FNA:28,28,_ZZN3fmt3v126detail23parse_replacement_fieldIcRNS1_14format_handlerIcEEEEPKT_S8_S8_OT0_EN10id_adapter7on_nameENS0_17basic_string_viewIcEE
FNA:28,8,_ZZN3fmt3v126detail23parse_replacement_fieldIwRNS1_14format_handlerIwEEEEPKT_S8_S8_OT0_EN10id_adapter7on_nameENS0_17basic_string_viewIwEE
FNL:29,1655,1672
FNA:29,66622,_ZN3fmt3v126detail19parse_format_stringIcNS1_14format_handlerIcEEEEvNS0_17basic_string_viewIT_EEOT0_
FNA:29,1028,_ZN3fmt3v126detail19parse_format_stringIcRNS1_12scan_handlerEEEvNS0_17basic_string_viewIT_EEOT0_
FNA:29,59,_ZN3fmt3v126detail19parse_format_stringIwNS1_14format_handlerIwEEEEvNS0_17basic_string_viewIT_EEOT0_
FNL:30,1675,1686
FNA:30,116,_ZN3fmt3v126detail16check_char_specsERKNS0_12format_specsE
FNL:31,1784,1785
FNA:31,25119,_ZN3fmt3v126detail6bufferIcEC2EPFvRS3_mEm
FNA:31,2,_ZN3fmt3v126detail6bufferIwEC2EPFvRS3_mEm
FNL:32,1787,1789
FNA:32,91788,_ZN3fmt3v126detail6bufferIcEC2EPFvRS3_mEPcmm
FNA:32,43,_ZN3fmt3v126detail6bufferIiEC2EPFvRS3_mEPimm
FNA:32,146,_ZN3fmt3v126detail6bufferIjEC2EPFvRS3_mEPjmm
FNA:32,80,_ZN3fmt3v126detail6bufferIwEC2EPFvRS3_mEPwmm
FNL:33,1795,1798
FNA:33,116937,_ZN3fmt3v126detail6bufferIcE3setEPcm
FNA:33,44,_ZN3fmt3v126detail6bufferIiE3setEPim
FNA:33,146,_ZN3fmt3v126detail6bufferIjE3setEPjm
FNA:33,77,_ZN3fmt3v126detail6bufferIwE3setEPwm
FNL:34,1807,1807
FNA:34,21,_ZN3fmt3v126detail6bufferIcE5beginEv
FNL:35,1808,1808
FNA:35,24,_ZN3fmt3v126detail6bufferIcE3endEv
FNA:35,0,_ZN3fmt3v126detail6bufferIwE3endEv
FNL:36,1814,1814
FNA:36,271696,_ZNK3fmt3v126detail6bufferIcE4sizeEv
FNA:36,44,_ZNK3fmt3v126detail6bufferIiE4sizeEv
FNA:36,167410,_ZNK3fmt3v126detail6bufferIjE4sizeEv
FNA:36,218,_ZNK3fmt3v126detail6bufferIwE4sizeEv
FNL:37,1817,1817
FNA:37,63756,_ZNK3fmt3v126detail6bufferIcE8capacityEv
FNA:37,7,_ZNK3fmt3v126detail6bufferIiE8capacityEv
FNA:37,49,_ZNK3fmt3v126detail6bufferIjE8capacityEv
FNA:37,34,_ZNK3fmt3v126detail6bufferIwE8capacityEv
FNL:38,1820,1820
FNA:38,179555,_ZN3fmt3v126detail6bufferIcE4dataEv
FNA:38,42,_ZN3fmt3v126detail6bufferIiE4dataEv
FNA:38,247,_ZN3fmt3v126detail6bufferIjE4dataEv
FNA:38,164,_ZN3fmt3v126detail6bufferIwE4dataEv
FNL:39,1821,1821
FNA:39,66459,_ZNK3fmt3v126detail6bufferIcE4dataEv
FNA:39,2,_ZNK3fmt3v126detail6bufferIjE4dataEv
FNL:40,1824,1824
FNA:40,111,_ZN3fmt3v126detail6bufferIcE5clearEv
FNA:40,0,_ZN3fmt3v126detail6bufferIjE5clearEv
FNA:40,12,_ZN3fmt3v126detail6bufferIwE5clearEv
FNL:41,1828,1831
FNA:41,63942,_ZN3fmt3v126detail6bufferIcE10try_resizeEm
FNA:41,1,_ZN3fmt3v126detail6bufferIiE10try_resizeEm
FNA:41,15706,_ZN3fmt3v126detail6bufferIjE10try_resizeEm
FNA:41,22,_ZN3fmt3v126detail6bufferIwE10try_resizeEm
FNL:42,1837,1839
FNA:42,330171,_ZN3fmt3v126detail6bufferIcE11try_reserveEm
FNA:42,106,_ZN3fmt3v126detail6bufferIiE11try_reserveEm
FNA:42,15731,_ZN3fmt3v126detail6bufferIjE11try_reserveEm
FNA:42,305,_ZN3fmt3v126detail6bufferIwE11try_reserveEm
FNL:43,1841,1844
FNA:43,173953,_ZN3fmt3v126detail6bufferIcE9push_backERKc
FNA:43,104,_ZN3fmt3v126detail6bufferIiE9push_backERKi
FNA:43,25,_ZN3fmt3v126detail6bufferIjE9push_backERKj
FNA:43,188,_ZN3fmt3v126detail6bufferIwE9push_backERKw
FNL:44,1854,1871
FNA:44,367377,_ZN3fmt3v126detail6bufferIcE6appendIcEEvPKT_S7_
FNA:44,18,_ZN3fmt3v126detail6bufferIwE6appendIcEEvPKT_S7_
FNA:44,203,_ZN3fmt3v126detail6bufferIwE6appendIwEEvPKT_S7_
FNL:45,1873,1874
FNA:45,3394,_ZN3fmt3v126detail6bufferIcEixIiEERcT_
FNA:45,1136,_ZN3fmt3v126detail6bufferIcEixImEERcT_
FNA:45,243,_ZN3fmt3v126detail6bufferIiEixIiEERiT_
FNA:45,14,_ZN3fmt3v126detail6bufferIiEixIjEERiT_
FNA:45,179466,_ZN3fmt3v126detail6bufferIjEixIiEERjT_
FNA:45,66071,_ZN3fmt3v126detail6bufferIjEixImEERjT_
FNL:46,1877,1878
FNA:46,12,_ZNK3fmt3v126detail6bufferIcEixIiEERKcT_
FNA:46,64459,_ZNK3fmt3v126detail6bufferIjEixIiEERKjT_
FNA:46,82645,_ZNK3fmt3v126detail6bufferIjEixImEERKjT_
FNA:46,8,_ZNK3fmt3v126detail6bufferIwEixIiEERKwT_
FNL:47,1883,1883
FNA:47,15,_ZN3fmt3v126detail13buffer_traitsC2Em
FNL:48,1885,1890
FNA:48,30,_ZNK3fmt3v126detail13buffer_traits5limitEm
FNL:49,1894,1894
FNA:49,24,_ZN3fmt3v126detail19fixed_buffer_traitsC2Em
FNL:50,1895,1895
FNA:50,24,_ZNK3fmt3v126detail19fixed_buffer_traits5countEv
FNL:51,1896,1900
FNA:51,66,_ZN3fmt3v126detail19fixed_buffer_traits5limitEm
FNL:52,1911,1913
FNA:52,0,_ZN3fmt3v126detail15iterator_bufferI20test_output_iteratorcNS1_19fixed_buffer_traitsEE4growERNS1_6bufferIcEEm
FNA:52,0,_ZN3fmt3v126detail15iterator_bufferINSt3__116ostream_iteratorIccNS3_11char_traitsIcEEEEcNS1_13buffer_traitsEE4growERNS1_6bufferIcEEm
FNA:52,0,_ZN3fmt3v126detail15iterator_bufferINSt3__119ostreambuf_iteratorIcNS3_11char_traitsIcEEEEcNS1_13buffer_traitsEE4growERNS1_6bufferIcEEm
FNA:52,0,_ZN3fmt3v126detail15iterator_bufferINSt3__120back_insert_iteratorI20nongrowing_containerEEcNS1_13buffer_traitsEE4growERNS1_6bufferIcEEm
FNA:52,0,_ZN3fmt3v126detail15iterator_bufferINSt3__120back_insert_iteratorINS3_12basic_stringIcNS3_11char_traitsIcEENS3_9allocatorIcEEEEEEcNS1_13buffer_traitsEE4growERNS1_6bufferIcEEm
FNA:52,0,_ZN3fmt3v126detail15iterator_bufferINSt3__120back_insert_iteratorINS3_4listIcNS3_9allocatorIcEEEEEEcNS1_13buffer_traitsEE4growERNS1_6bufferIcEEm
FNA:52,0,_ZN3fmt3v126detail15iterator_bufferINSt3__120back_insert_iteratorINS3_6vectorIcNS3_9allocatorIcEEEEEEcNS1_13buffer_traitsEE4growERNS1_6bufferIcEEm
FNA:52,0,_ZN3fmt3v126detail15iterator_bufferINSt3__120back_insert_iteratorINS3_6vectorIwNS3_9allocatorIwEEEEEEwNS1_13buffer_traitsEE4growERNS1_6bufferIwEEm
FNA:52,6,_ZN3fmt3v126detail15iterator_bufferIZN32format_test_large_precision_Test8TestBodyEvE17throwing_iteratorcNS1_13buffer_traitsEE4growERNS1_6bufferIcEEm
FNA:52,2,_ZN3fmt3v126detail15iterator_bufferIZN35base_test_throw_in_buffer_dtor_Test8TestBodyEvE17throwing_iteratorcNS1_13buffer_traitsEE4growERNS1_6bufferIcEEm
FNL:53,1915,1921
FNA:53,2,_ZN3fmt3v126detail15iterator_bufferI20test_output_iteratorcNS1_19fixed_buffer_traitsEE5flushEv
FNA:53,2,_ZN3fmt3v126detail15iterator_bufferINSt3__116ostream_iteratorIccNS3_11char_traitsIcEEEEcNS1_13buffer_traitsEE5flushEv
FNA:53,2,_ZN3fmt3v126detail15iterator_bufferINSt3__119ostreambuf_iteratorIcNS3_11char_traitsIcEEEEcNS1_13buffer_traitsEE5flushEv
FNA:53,2,_ZN3fmt3v126detail15iterator_bufferINSt3__120back_insert_iteratorI20nongrowing_containerEEcNS1_13buffer_traitsEE5flushEv
FNA:53,10,_ZN3fmt3v126detail15iterator_bufferINSt3__120back_insert_iteratorINS3_12basic_stringIcNS3_11char_traitsIcEENS3_9allocatorIcEEEEEEcNS1_13buffer_traitsEE5flushEv
FNA:53,2,_ZN3fmt3v126detail15iterator_bufferINSt3__120back_insert_iteratorINS3_4listIcNS3_9allocatorIcEEEEEEcNS1_13buffer_traitsEE5flushEv
FNA:53,4,_ZN3fmt3v126detail15iterator_bufferINSt3__120back_insert_iteratorINS3_6vectorIcNS3_9allocatorIcEEEEEEcNS1_13buffer_traitsEE5flushEv
FNA:53,2,_ZN3fmt3v126detail15iterator_bufferINSt3__120back_insert_iteratorINS3_6vectorIwNS3_9allocatorIwEEEEEEwNS1_13buffer_traitsEE5flushEv
FNA:53,4,_ZN3fmt3v126detail15iterator_bufferIZN32format_test_large_precision_Test8TestBodyEvE17throwing_iteratorcNS1_13buffer_traitsEE5flushEv
FNA:53,2,_ZN3fmt3v126detail15iterator_bufferIZN35base_test_throw_in_buffer_dtor_Test8TestBodyEvE17throwing_iteratorcNS1_13buffer_traitsEE5flushEv
FNL:54,1924,1925
FNA:54,1,_ZN3fmt3v126detail15iterator_bufferI20test_output_iteratorcNS1_19fixed_buffer_traitsEEC1ES3_m
FNA:54,1,_ZN3fmt3v126detail15iterator_bufferI20test_output_iteratorcNS1_19fixed_buffer_traitsEEC2ES3_m
FNA:54,1,_ZN3fmt3v126detail15iterator_bufferINSt3__116ostream_iteratorIccNS3_11char_traitsIcEEEEcNS1_13buffer_traitsEEC1ES7_m
FNA:54,1,_ZN3fmt3v126detail15iterator_bufferINSt3__116ostream_iteratorIccNS3_11char_traitsIcEEEEcNS1_13buffer_traitsEEC2ES7_m
FNA:54,1,_ZN3fmt3v126detail15iterator_bufferINSt3__119ostreambuf_iteratorIcNS3_11char_traitsIcEEEEcNS1_13buffer_traitsEEC1ES7_m
FNA:54,1,_ZN3fmt3v126detail15iterator_bufferINSt3__119ostreambuf_iteratorIcNS3_11char_traitsIcEEEEcNS1_13buffer_traitsEEC2ES7_m
FNA:54,1,_ZN3fmt3v126detail15iterator_bufferINSt3__120back_insert_iteratorI20nongrowing_containerEEcNS1_13buffer_traitsEEC1ES6_m
FNA:54,1,_ZN3fmt3v126detail15iterator_bufferINSt3__120back_insert_iteratorI20nongrowing_containerEEcNS1_13buffer_traitsEEC2ES6_m
FNA:54,14,_ZN3fmt3v126detail15iterator_bufferINSt3__120back_insert_iteratorINS3_12basic_stringIcNS3_11char_traitsIcEENS3_9allocatorIcEEEEEEcNS1_13buffer_traitsEEC1ESB_m
FNA:54,14,_ZN3fmt3v126detail15iterator_bufferINSt3__120back_insert_iteratorINS3_12basic_stringIcNS3_11char_traitsIcEENS3_9allocatorIcEEEEEEcNS1_13buffer_traitsEEC2ESB_m
FNA:54,1,_ZN3fmt3v126detail15iterator_bufferINSt3__120back_insert_iteratorINS3_4listIcNS3_9allocatorIcEEEEEEcNS1_13buffer_traitsEEC1ES9_m
FNA:54,1,_ZN3fmt3v126detail15iterator_bufferINSt3__120back_insert_iteratorINS3_4listIcNS3_9allocatorIcEEEEEEcNS1_13buffer_traitsEEC2ES9_m
FNA:54,2,_ZN3fmt3v126detail15iterator_bufferINSt3__120back_insert_iteratorINS3_6vectorIcNS3_9allocatorIcEEEEEEcNS1_13buffer_traitsEEC1ES9_m
FNA:54,2,_ZN3fmt3v126detail15iterator_bufferINSt3__120back_insert_iteratorINS3_6vectorIcNS3_9allocatorIcEEEEEEcNS1_13buffer_traitsEEC2ES9_m
FNA:54,1,_ZN3fmt3v126detail15iterator_bufferINSt3__120back_insert_iteratorINS3_6vectorIwNS3_9allocatorIwEEEEEEwNS1_13buffer_traitsEEC1ES9_m
FNA:54,1,_ZN3fmt3v126detail15iterator_bufferINSt3__120back_insert_iteratorINS3_6vectorIwNS3_9allocatorIwEEEEEEwNS1_13buffer_traitsEEC2ES9_m
FNA:54,2,_ZN3fmt3v126detail15iterator_bufferIZN32format_test_large_precision_Test8TestBodyEvE17throwing_iteratorcNS1_13buffer_traitsEEC1ES4_m
FNA:54,2,_ZN3fmt3v126detail15iterator_bufferIZN32format_test_large_precision_Test8TestBodyEvE17throwing_iteratorcNS1_13buffer_traitsEEC2ES4_m
FNA:54,1,_ZN3fmt3v126detail15iterator_bufferIZN35base_test_throw_in_buffer_dtor_Test8TestBodyEvE17throwing_iteratorcNS1_13buffer_traitsEEC1ES4_m
FNA:54,1,_ZN3fmt3v126detail15iterator_bufferIZN35base_test_throw_in_buffer_dtor_Test8TestBodyEvE17throwing_iteratorcNS1_13buffer_traitsEEC2ES4_m
FNL:55,1930,1934
FNA:55,1,_ZN3fmt3v126detail15iterator_bufferI20test_output_iteratorcNS1_19fixed_buffer_traitsEED1Ev
FNA:55,1,_ZN3fmt3v126detail15iterator_bufferI20test_output_iteratorcNS1_19fixed_buffer_traitsEED2Ev
FNA:55,1,_ZN3fmt3v126detail15iterator_bufferINSt3__116ostream_iteratorIccNS3_11char_traitsIcEEEEcNS1_13buffer_traitsEED1Ev
FNA:55,1,_ZN3fmt3v126detail15iterator_bufferINSt3__116ostream_iteratorIccNS3_11char_traitsIcEEEEcNS1_13buffer_traitsEED2Ev
FNA:55,1,_ZN3fmt3v126detail15iterator_bufferINSt3__119ostreambuf_iteratorIcNS3_11char_traitsIcEEEEcNS1_13buffer_traitsEED1Ev
FNA:55,1,_ZN3fmt3v126detail15iterator_bufferINSt3__119ostreambuf_iteratorIcNS3_11char_traitsIcEEEEcNS1_13buffer_traitsEED2Ev
FNA:55,1,_ZN3fmt3v126detail15iterator_bufferINSt3__120back_insert_iteratorI20nongrowing_containerEEcNS1_13buffer_traitsEED1Ev
FNA:55,1,_ZN3fmt3v126detail15iterator_bufferINSt3__120back_insert_iteratorI20nongrowing_containerEEcNS1_13buffer_traitsEED2Ev
FNA:55,5,_ZN3fmt3v126detail15iterator_bufferINSt3__120back_insert_iteratorINS3_12basic_stringIcNS3_11char_traitsIcEENS3_9allocatorIcEEEEEEcNS1_13buffer_traitsEED1Ev
FNA:55,5,_ZN3fmt3v126detail15iterator_bufferINSt3__120back_insert_iteratorINS3_12basic_stringIcNS3_11char_traitsIcEENS3_9allocatorIcEEEEEEcNS1_13buffer_traitsEED2Ev
FNA:55,1,_ZN3fmt3v126detail15iterator_bufferINSt3__120back_insert_iteratorINS3_4listIcNS3_9allocatorIcEEEEEEcNS1_13buffer_traitsEED1Ev
FNA:55,1,_ZN3fmt3v126detail15iterator_bufferINSt3__120back_insert_iteratorINS3_4listIcNS3_9allocatorIcEEEEEEcNS1_13buffer_traitsEED2Ev
FNA:55,2,_ZN3fmt3v126detail15iterator_bufferINSt3__120back_insert_iteratorINS3_6vectorIcNS3_9allocatorIcEEEEEEcNS1_13buffer_traitsEED1Ev
FNA:55,2,_ZN3fmt3v126detail15iterator_bufferINSt3__120back_insert_iteratorINS3_6vectorIcNS3_9allocatorIcEEEEEEcNS1_13buffer_traitsEED2Ev
FNA:55,1,_ZN3fmt3v126detail15iterator_bufferINSt3__120back_insert_iteratorINS3_6vectorIwNS3_9allocatorIwEEEEEEwNS1_13buffer_traitsEED1Ev
FNA:55,1,_ZN3fmt3v126detail15iterator_bufferINSt3__120back_insert_iteratorINS3_6vectorIwNS3_9allocatorIwEEEEEEwNS1_13buffer_traitsEED2Ev
FNA:55,2,_ZN3fmt3v126detail15iterator_bufferIZN32format_test_large_precision_Test8TestBodyEvE17throwing_iteratorcNS1_13buffer_traitsEED1Ev
FNA:55,2,_ZN3fmt3v126detail15iterator_bufferIZN32format_test_large_precision_Test8TestBodyEvE17throwing_iteratorcNS1_13buffer_traitsEED2Ev
FNA:55,1,_ZN3fmt3v126detail15iterator_bufferIZN35base_test_throw_in_buffer_dtor_Test8TestBodyEvE17throwing_iteratorcNS1_13buffer_traitsEED1Ev
FNA:55,1,_ZN3fmt3v126detail15iterator_bufferIZN35base_test_throw_in_buffer_dtor_Test8TestBodyEvE17throwing_iteratorcNS1_13buffer_traitsEED2Ev
FNL:56,1936,1938
FNA:56,1,_ZN3fmt3v126detail15iterator_bufferI20test_output_iteratorcNS1_19fixed_buffer_traitsEE3outEv
FNA:56,1,_ZN3fmt3v126detail15iterator_bufferINSt3__116ostream_iteratorIccNS3_11char_traitsIcEEEEcNS1_13buffer_traitsEE3outEv
FNA:56,1,_ZN3fmt3v126detail15iterator_bufferINSt3__119ostreambuf_iteratorIcNS3_11char_traitsIcEEEEcNS1_13buffer_traitsEE3outEv
FNA:56,1,_ZN3fmt3v126detail15iterator_bufferINSt3__120back_insert_iteratorI20nongrowing_containerEEcNS1_13buffer_traitsEE3outEv
FNA:56,14,_ZN3fmt3v126detail15iterator_bufferINSt3__120back_insert_iteratorINS3_12basic_stringIcNS3_11char_traitsIcEENS3_9allocatorIcEEEEEEcNS1_13buffer_traitsEE3outEv
FNA:56,1,_ZN3fmt3v126detail15iterator_bufferINSt3__120back_insert_iteratorINS3_4listIcNS3_9allocatorIcEEEEEEcNS1_13buffer_traitsEE3outEv
FNA:56,2,_ZN3fmt3v126detail15iterator_bufferINSt3__120back_insert_iteratorINS3_6vectorIcNS3_9allocatorIcEEEEEEcNS1_13buffer_traitsEE3outEv
FNA:56,1,_ZN3fmt3v126detail15iterator_bufferINSt3__120back_insert_iteratorINS3_6vectorIwNS3_9allocatorIwEEEEEEwNS1_13buffer_traitsEE3outEv
FNA:56,0,_ZN3fmt3v126detail15iterator_bufferIZN32format_test_large_precision_Test8TestBodyEvE17throwing_iteratorcNS1_13buffer_traitsEE3outEv
FNA:56,0,_ZN3fmt3v126detail15iterator_bufferIZN35base_test_throw_in_buffer_dtor_Test8TestBodyEvE17throwing_iteratorcNS1_13buffer_traitsEE3outEv
FNL:57,1940,1940
FNA:57,1,_ZNK3fmt3v126detail15iterator_bufferI20test_output_iteratorcNS1_19fixed_buffer_traitsEE5countEv
FNL:58,1951,1954
FNA:58,35,_ZN3fmt3v126detail15iterator_bufferIPccNS1_19fixed_buffer_traitsEE4growERNS1_6bufferIcEEm
FNA:58,8,_ZN3fmt3v126detail15iterator_bufferIPwwNS1_19fixed_buffer_traitsEE4growERNS1_6bufferIwEEm
FNL:59,1956,1963
FNA:59,54,_ZN3fmt3v126detail15iterator_bufferIPccNS1_19fixed_buffer_traitsEE5flushEv
FNA:59,10,_ZN3fmt3v126detail15iterator_bufferIPwwNS1_19fixed_buffer_traitsEE5flushEv
FNL:60,1966,1967
FNA:60,19,_ZN3fmt3v126detail15iterator_bufferIPccNS1_19fixed_buffer_traitsEEC1ES3_m
FNA:60,19,_ZN3fmt3v126detail15iterator_bufferIPccNS1_19fixed_buffer_traitsEEC2ES3_m
FNA:60,4,_ZN3fmt3v126detail15iterator_bufferIPwwNS1_19fixed_buffer_traitsEEC1ES3_m
FNA:60,4,_ZN3fmt3v126detail15iterator_bufferIPwwNS1_19fixed_buffer_traitsEEC2ES3_m
FNL:61,1977,1977
FNA:61,19,_ZN3fmt3v126detail15iterator_bufferIPccNS1_19fixed_buffer_traitsEED1Ev
FNA:61,19,_ZN3fmt3v126detail15iterator_bufferIPccNS1_19fixed_buffer_traitsEED2Ev
FNA:61,4,_ZN3fmt3v126detail15iterator_bufferIPwwNS1_19fixed_buffer_traitsEED1Ev
FNA:61,4,_ZN3fmt3v126detail15iterator_bufferIPwwNS1_19fixed_buffer_traitsEED2Ev
FNL:62,1979,1981
FNA:62,19,_ZN3fmt3v126detail15iterator_bufferIPccNS1_19fixed_buffer_traitsEE3outEv
FNA:62,4,_ZN3fmt3v126detail15iterator_bufferIPwwNS1_19fixed_buffer_traitsEE3outEv
FNL:63,1983,1984
FNA:63,19,_ZNK3fmt3v126detail15iterator_bufferIPccNS1_19fixed_buffer_traitsEE5countEv
FNA:63,4,_ZNK3fmt3v126detail15iterator_bufferIPwwNS1_19fixed_buffer_traitsEE5countEv
FNL:64,2001,2005
FNA:64,0,_ZN3fmt3v126detail16container_bufferI16custom_containerE4growERNS1_6bufferIcEEm
FNA:64,22,_ZN3fmt3v126detail16container_bufferINSt3__112basic_stringIcNS3_11char_traitsIcEENS3_9allocatorIcEEEEE4growERNS1_6bufferIcEEm
FNA:64,2,_ZN3fmt3v126detail16container_bufferINSt3__112basic_stringIwNS3_11char_traitsIwEENS3_9allocatorIwEEEEE4growERNS1_6bufferIwEEm
FNL:65,2010,2011
FNA:65,1,_ZN3fmt3v126detail16container_bufferI16custom_containerEC2ERS3_
FNA:65,1,_ZN3fmt3v126detail16container_bufferINSt3__112basic_stringIcNS3_11char_traitsIcEENS3_9allocatorIcEEEEEC1ERS9_
FNA:65,10,_ZN3fmt3v126detail16container_bufferINSt3__112basic_stringIcNS3_11char_traitsIcEENS3_9allocatorIcEEEEEC2ERS9_
FNA:65,2,_ZN3fmt3v126detail16container_bufferINSt3__112basic_stringIwNS3_11char_traitsIwEENS3_9allocatorIwEEEEEC2ERS9_
FNL:66,2027,2028
FNA:66,1,_ZN3fmt3v126detail15iterator_bufferINSt3__120back_insert_iteratorI16custom_containerEEcNS1_13buffer_traitsEEC1ES6_m
FNA:66,1,_ZN3fmt3v126detail15iterator_bufferINSt3__120back_insert_iteratorI16custom_containerEEcNS1_13buffer_traitsEEC2ES6_m
FNA:66,2,_ZN3fmt3v126detail15iterator_bufferINSt3__120back_insert_iteratorINS3_12basic_stringIwNS3_11char_traitsIwEENS3_9allocatorIwEEEEEEwNS1_13buffer_traitsEEC1ESB_m
FNA:66,2,_ZN3fmt3v126detail15iterator_bufferINSt3__120back_insert_iteratorINS3_12basic_stringIwNS3_11char_traitsIwEENS3_9allocatorIwEEEEEEwNS1_13buffer_traitsEEC2ESB_m
FNL:67,2030,2038
FNA:67,1,_ZN3fmt3v126detail15iterator_bufferINSt3__120back_insert_iteratorI16custom_containerEEcNS1_13buffer_traitsEE3outEv
FNA:67,2,_ZN3fmt3v126detail15iterator_bufferINSt3__120back_insert_iteratorINS3_12basic_stringIwNS3_11char_traitsIwEENS3_9allocatorIwEEEEEEwNS1_13buffer_traitsEE3outEv
FNL:68,2040,2044
FNA:68,0,_ZN3fmt3v126detail15counting_bufferIcE4growERNS1_6bufferIcEEm
FNA:68,0,_ZN3fmt3v126detail15counting_bufferIwE4growERNS1_6bufferIwEEm
FNL:69,2047,2047
FNA:69,8,_ZN3fmt3v126detail15counting_bufferIcEC1Ev
FNA:69,8,_ZN3fmt3v126detail15counting_bufferIcEC2Ev
FNA:69,4,_ZN3fmt3v126detail15counting_bufferIwEC1Ev
FNA:69,4,_ZN3fmt3v126detail15counting_bufferIwEC2Ev
FNL:70,2049,2050
FNA:70,8,_ZNK3fmt3v126detail15counting_bufferIcE5countEv
FNA:70,4,_ZNK3fmt3v126detail15counting_bufferIwE5countEv
FNL:71,2082,2085
FNA:71,367152,_ZN3fmt3v126detail4copyIcPKcNS0_14basic_appenderIcEELi0EEET1_T0_S8_S7_
FNA:71,1,_ZN3fmt3v126detail4copyIcPKcNS0_14basic_appenderIwEELi0EEET1_T0_S8_S7_
FNA:71,2,_ZN3fmt3v126detail4copyIcPKcNSt3__120back_insert_iteratorINS0_19basic_memory_bufferIcLm500ENS1_9allocatorIcEEEEEELi0EEET1_T0_SD_SC_
FNA:71,3,_ZN3fmt3v126detail4copyIcPKcNSt3__120back_insert_iteratorINS5_12basic_stringIcNS5_11char_traitsIcEENS5_9allocatorIcEEEEEELi0EEET1_T0_SF_SE_
FNA:71,105,_ZN3fmt3v126detail4copyIcPcNS0_14basic_appenderIcEELi0EEET1_T0_S7_S6_
FNA:71,0,_ZN3fmt3v126detail4copyIcPcNSt3__120back_insert_iteratorINS0_19basic_memory_bufferIcLm500ENS1_9allocatorIcEEEEEELi0EEET1_T0_SC_SB_
FNA:71,1,_ZN3fmt3v126detail4copyIcPcNSt3__120back_insert_iteratorINS4_12basic_stringIcNS4_11char_traitsIcEENS4_9allocatorIcEEEEEELi0EEET1_T0_SE_SD_
FNA:71,13,_ZN3fmt3v126detail4copyIwPKcNS0_14basic_appenderIwEELi0EEET1_T0_S8_S7_
FNA:71,199,_ZN3fmt3v126detail4copyIwPKwNS0_14basic_appenderIwEELi0EEET1_T0_S8_S7_
FNA:71,3,_ZN3fmt3v126detail4copyIwPcNS0_14basic_appenderIwEELi0EEET1_T0_S7_S6_
FNA:71,1,_ZN3fmt3v126detail4copyIwPwNS0_14basic_appenderIwEELi0EEET1_T0_S7_S6_
FNL:72,2107,2109
FNA:72,1,_ZN3fmt3v126detail4copyIcPKcNSt3__120back_insert_iteratorI17minimal_containerEELi0EEET1_T0_SA_S9_
FNA:72,179,_ZN3fmt3v126detail4copyIcPKcPcLi0EEET1_T0_S7_S6_
FNA:72,18,_ZN3fmt3v126detail4copyIcPKcZNS1_5writeIcNS0_14basic_appenderIcEELi0EEET0_S8_NS0_17basic_string_viewIT_EERKNS0_12format_specsEE23bounded_output_iteratorLi0EEET1_S8_S8_SG_
FNA:72,8,_ZN3fmt3v126detail4copyIcPcS3_Li0EEET1_T0_S5_S4_
FNA:72,0,_ZN3fmt3v126detail4copyIcPcZNS1_5writeIcNS0_14basic_appenderIcEELi0EEET0_S7_NS0_17basic_string_viewIT_EERKNS0_12format_specsEE23bounded_output_iteratorLi0EEET1_S7_S7_SF_
FNA:72,2,_ZN3fmt3v126detail4copyIjPKjPjLi0EEET1_T0_S7_S6_
FNA:72,49,_ZN3fmt3v126detail4copyIjPjS3_Li0EEET1_T0_S5_S4_
FNL:73,2113,2114
FNA:73,21269,_ZN3fmt3v126detail4copyIccNS0_14basic_appenderIcEEEET1_NS0_17basic_string_viewIT0_EES5_
FNA:73,11,_ZN3fmt3v126detail4copyIwwNS0_14basic_appenderIwEEEET1_NS0_17basic_string_viewIT0_EES5_
FNL:74,2130,2131
FNA:74,1,_ZN3fmt3v126detail10get_bufferIcNSt3__116ostream_iteratorIccNS3_11char_traitsIcEEEELi0EEENS1_15iterator_bufferIT0_T_NS1_13buffer_traitsEEES9_
FNA:74,1,_ZN3fmt3v126detail10get_bufferIcNSt3__119ostreambuf_iteratorIcNS3_11char_traitsIcEEEELi0EEENS1_15iterator_bufferIT0_T_NS1_13buffer_traitsEEES9_
FNA:74,1,_ZN3fmt3v126detail10get_bufferIcNSt3__120back_insert_iteratorI16custom_containerEELi0EEENS1_15iterator_bufferIT0_T_NS1_13buffer_traitsEEES8_
FNA:74,1,_ZN3fmt3v126detail10get_bufferIcNSt3__120back_insert_iteratorI20nongrowing_containerEELi0EEENS1_15iterator_bufferIT0_T_NS1_13buffer_traitsEEES8_
FNA:74,14,_ZN3fmt3v126detail10get_bufferIcNSt3__120back_insert_iteratorINS3_12basic_stringIcNS3_11char_traitsIcEENS3_9allocatorIcEEEEEELi0EEENS1_15iterator_bufferIT0_T_NS1_13buffer_traitsEEESD_
FNA:74,1,_ZN3fmt3v126detail10get_bufferIcNSt3__120back_insert_iteratorINS3_4listIcNS3_9allocatorIcEEEEEELi0EEENS1_15iterator_bufferIT0_T_NS1_13buffer_traitsEEESB_
FNA:74,2,_ZN3fmt3v126detail10get_bufferIcNSt3__120back_insert_iteratorINS3_6vectorIcNS3_9allocatorIcEEEEEELi0EEENS1_15iterator_bufferIT0_T_NS1_13buffer_traitsEEESB_
FNA:74,2,_ZN3fmt3v126detail10get_bufferIcZN32format_test_large_precision_Test8TestBodyEvE17throwing_iteratorLi0EEENS1_15iterator_bufferIT0_T_NS1_13buffer_traitsEEES6_
FNA:74,1,_ZN3fmt3v126detail10get_bufferIcZN35base_test_throw_in_buffer_dtor_Test8TestBodyEvE17throwing_iteratorLi0EEENS1_15iterator_bufferIT0_T_NS1_13buffer_traitsEEES6_
FNA:74,2,_ZN3fmt3v126detail10get_bufferIwNSt3__120back_insert_iteratorINS3_12basic_stringIwNS3_11char_traitsIwEENS3_9allocatorIwEEEEEELi0EEENS1_15iterator_bufferIT0_T_NS1_13buffer_traitsEEESD_
FNA:74,1,_ZN3fmt3v126detail10get_bufferIwNSt3__120back_insert_iteratorINS3_6vectorIwNS3_9allocatorIwEEEEEELi0EEENS1_15iterator_bufferIT0_T_NS1_13buffer_traitsEEESB_
FNL:75,2135,2136
FNA:75,192,_ZN3fmt3v126detail10get_bufferIcNS0_14basic_appenderIcEELi0EEERNS1_6bufferIT_EET0_
FNA:75,1,_ZN3fmt3v126detail10get_bufferIcNSt3__120back_insert_iteratorI11mock_bufferIcEEELi0EEERNS1_6bufferIT_EET0_
FNA:75,21,_ZN3fmt3v126detail10get_bufferIcNSt3__120back_insert_iteratorINS0_19basic_memory_bufferIcLm500ENS1_9allocatorIcEEEEEELi0EEERNS1_6bufferIT_EET0_
FNA:75,1,_ZN3fmt3v126detail10get_bufferIwNS0_14basic_appenderIwEELi0EEERNS1_6bufferIT_EET0_
FNL:76,2140,2141
FNA:76,1,_ZN3fmt3v126detail12get_iteratorINS1_15iterator_bufferINSt3__116ostream_iteratorIccNS4_11char_traitsIcEEEEcNS1_13buffer_traitsEEES8_EEDTcldtfp_3outEERT_T0_
FNA:76,1,_ZN3fmt3v126detail12get_iteratorINS1_15iterator_bufferINSt3__119ostreambuf_iteratorIcNS4_11char_traitsIcEEEEcNS1_13buffer_traitsEEES8_EEDTcldtfp_3outEERT_T0_
FNA:76,1,_ZN3fmt3v126detail12get_iteratorINS1_15iterator_bufferINSt3__120back_insert_iteratorI16custom_containerEEcNS1_13buffer_traitsEEES7_EEDTcldtfp_3outEERT_T0_
FNA:76,1,_ZN3fmt3v126detail12get_iteratorINS1_15iterator_bufferINSt3__120back_insert_iteratorI20nongrowing_containerEEcNS1_13buffer_traitsEEES7_EEDTcldtfp_3outEERT_T0_
FNA:76,14,_ZN3fmt3v126detail12get_iteratorINS1_15iterator_bufferINSt3__120back_insert_iteratorINS4_12basic_stringIcNS4_11char_traitsIcEENS4_9allocatorIcEEEEEEcNS1_13buffer_traitsEEESC_EEDTcldtfp_3outEERT_T0_
FNA:76,2,_ZN3fmt3v126detail12get_iteratorINS1_15iterator_bufferINSt3__120back_insert_iteratorINS4_12basic_stringIwNS4_11char_traitsIwEENS4_9allocatorIwEEEEEEwNS1_13buffer_traitsEEESC_EEDTcldtfp_3outEERT_T0_
FNA:76,1,_ZN3fmt3v126detail12get_iteratorINS1_15iterator_bufferINSt3__120back_insert_iteratorINS4_4listIcNS4_9allocatorIcEEEEEEcNS1_13buffer_traitsEEESA_EEDTcldtfp_3outEERT_T0_
FNA:76,2,_ZN3fmt3v126detail12get_iteratorINS1_15iterator_bufferINSt3__120back_insert_iteratorINS4_6vectorIcNS4_9allocatorIcEEEEEEcNS1_13buffer_traitsEEESA_EEDTcldtfp_3outEERT_T0_
FNA:76,1,_ZN3fmt3v126detail12get_iteratorINS1_15iterator_bufferINSt3__120back_insert_iteratorINS4_6vectorIwNS4_9allocatorIwEEEEEEwNS1_13buffer_traitsEEESA_EEDTcldtfp_3outEERT_T0_
FNA:76,0,_ZN3fmt3v126detail12get_iteratorINS1_15iterator_bufferIZN32format_test_large_precision_Test8TestBodyEvE17throwing_iteratorcNS1_13buffer_traitsEEES5_EEDTcldtfp_3outEERT_T0_
FNA:76,0,_ZN3fmt3v126detail12get_iteratorINS1_15iterator_bufferIZN35base_test_throw_in_buffer_dtor_Test8TestBodyEvE17throwing_iteratorcNS1_13buffer_traitsEEES5_EEDTcldtfp_3outEERT_T0_
FNL:77,2144,2145
FNA:77,191,_ZN3fmt3v126detail12get_iteratorIcNS0_14basic_appenderIcEEEET0_RNS1_6bufferIT_EES5_
FNA:77,21,_ZN3fmt3v126detail12get_iteratorIcNSt3__120back_insert_iteratorINS0_19basic_memory_bufferIcLm500ENS1_9allocatorIcEEEEEEEET0_RNS1_6bufferIT_EESA_
FNA:77,1,_ZN3fmt3v126detail12get_iteratorIwNS0_14basic_appenderIwEEEET0_RNS1_6bufferIT_EES5_
FNL:78,2154,2154
FNA:78,40474,_ZNK3fmt3v126detail12string_valueIcE3strEv
FNA:78,1,_ZNK3fmt3v126detail12string_valueIwE3strEv
FNL:79,2200,2200
FNA:79,68,_ZN3fmt3v126detail5valueINS0_15generic_contextINS0_14basic_appenderIwEEwEEEC1Ev
FNA:79,68,_ZN3fmt3v126detail5valueINS0_15generic_contextINS0_14basic_appenderIwEEwEEEC2Ev
FNA:79,2485,_ZN3fmt3v126detail5valueINS0_20basic_printf_contextIcEEEC1Ev
FNA:79,2485,_ZN3fmt3v126detail5valueINS0_20basic_printf_contextIcEEEC2Ev
FNA:79,2,_ZN3fmt3v126detail5valueINS0_20basic_printf_contextIwEEEC1Ev
FNA:79,2,_ZN3fmt3v126detail5valueINS0_20basic_printf_contextIwEEEC2Ev
FNA:79,93505,_ZN3fmt3v126detail5valueINS0_7contextEEC1Ev
FNA:79,93505,_ZN3fmt3v126detail5valueINS0_7contextEEC2Ev
FNL:80,2201,2201
FNA:80,24,_ZN3fmt3v126detail5valueINS0_20basic_printf_contextIcEEEC1Ea
FNA:80,24,_ZN3fmt3v126detail5valueINS0_20basic_printf_contextIcEEEC2Ea
FNA:80,3,_ZN3fmt3v126detail5valueINS0_7contextEEC1Ea
FNA:80,3,_ZN3fmt3v126detail5valueINS0_7contextEEC2Ea
FNL:81,2202,2202
FNA:81,24,_ZN3fmt3v126detail5valueINS0_20basic_printf_contextIcEEEC1Eh
FNA:81,24,_ZN3fmt3v126detail5valueINS0_20basic_printf_contextIcEEEC2Eh
FNA:81,5,_ZN3fmt3v126detail5valueINS0_7contextEEC1Eh
FNA:81,5,_ZN3fmt3v126detail5valueINS0_7contextEEC2Eh
FNL:82,2203,2203
FNA:82,168,_ZN3fmt3v126detail5valueINS0_20basic_printf_contextIcEEEC1Es
FNA:82,168,_ZN3fmt3v126detail5valueINS0_20basic_printf_contextIcEEEC2Es
FNA:82,5,_ZN3fmt3v126detail5valueINS0_7contextEEC1Es
FNA:82,5,_ZN3fmt3v126detail5valueINS0_7contextEEC2Es
FNL:83,2204,2204
FNA:83,168,_ZN3fmt3v126detail5valueINS0_20basic_printf_contextIcEEEC1Et
FNA:83,168,_ZN3fmt3v126detail5valueINS0_20basic_printf_contextIcEEEC2Et
FNA:83,4,_ZN3fmt3v126detail5valueINS0_7contextEEC1Et
FNA:83,4,_ZN3fmt3v126detail5valueINS0_7contextEEC2Et
FNL:84,2205,2205
FNA:84,24,_ZN3fmt3v126detail5valueINS0_15generic_contextINS0_14basic_appenderIwEEwEEEC1Ei
FNA:84,24,_ZN3fmt3v126detail5valueINS0_15generic_contextINS0_14basic_appenderIwEEwEEEC2Ei
FNA:84,1161,_ZN3fmt3v126detail5valueINS0_20basic_printf_contextIcEEEC1Ei
FNA:84,1161,_ZN3fmt3v126detail5valueINS0_20basic_printf_contextIcEEEC2Ei
FNA:84,2,_ZN3fmt3v126detail5valueINS0_20basic_printf_contextIwEEEC1Ei
FNA:84,2,_ZN3fmt3v126detail5valueINS0_20basic_printf_contextIwEEEC2Ei
FNA:84,20808,_ZN3fmt3v126detail5valueINS0_7contextEEC1Ei
FNA:84,20808,_ZN3fmt3v126detail5valueINS0_7contextEEC2Ei
FNL:85,2206,2206
FNA:85,1,_ZN3fmt3v126detail5valueINS0_15generic_contextINS0_14basic_appenderIwEEwEEEC1Ej
FNA:85,1,_ZN3fmt3v126detail5valueINS0_15generic_contextINS0_14basic_appenderIwEEwEEEC2Ej
FNA:85,1455,_ZN3fmt3v126detail5valueINS0_20basic_printf_contextIcEEEC1Ej
FNA:85,1455,_ZN3fmt3v126detail5valueINS0_20basic_printf_contextIcEEEC2Ej
FNA:85,0,_ZN3fmt3v126detail5valueINS0_20basic_printf_contextIwEEEC1Ej
FNA:85,0,_ZN3fmt3v126detail5valueINS0_20basic_printf_contextIwEEEC2Ej
FNA:85,111,_ZN3fmt3v126detail5valueINS0_7contextEEC1Ej
FNA:85,111,_ZN3fmt3v126detail5valueINS0_7contextEEC2Ej
FNL:86,2207,2207
FNA:86,72,_ZN3fmt3v126detail5valueINS0_20basic_printf_contextIcEEEC1El
FNA:86,32,_ZN3fmt3v126detail5valueINS0_7contextEEC1El
FNL:87,2208,2209
FNA:87,48,_ZN3fmt3v126detail5valueINS0_20basic_printf_contextIcEEEC1Em
FNA:87,26,_ZN3fmt3v126detail5valueINS0_7contextEEC1Em
FNL:88,2210,2210
FNA:88,949,_ZN3fmt3v126detail5valueINS0_20basic_printf_contextIcEEEC1Ex
FNA:88,949,_ZN3fmt3v126detail5valueINS0_20basic_printf_contextIcEEEC2Ex
FNA:88,0,_ZN3fmt3v126detail5valueINS0_20basic_printf_contextIwEEEC1Ex
FNA:88,0,_ZN3fmt3v126detail5valueINS0_20basic_printf_contextIwEEEC2Ex
FNA:88,56,_ZN3fmt3v126detail5valueINS0_7contextEEC1Ex
FNA:88,56,_ZN3fmt3v126detail5valueINS0_7contextEEC2Ex
FNL:89,2211,2212
FNA:89,720,_ZN3fmt3v126detail5valueINS0_20basic_printf_contextIcEEEC1Ey
FNA:89,720,_ZN3fmt3v126detail5valueINS0_20basic_printf_contextIcEEEC2Ey
FNA:89,0,_ZN3fmt3v126detail5valueINS0_20basic_printf_contextIwEEEC1Ey
FNA:89,0,_ZN3fmt3v126detail5valueINS0_20basic_printf_contextIwEEEC2Ey
FNA:89,48,_ZN3fmt3v126detail5valueINS0_7contextEEC1Ey
FNA:89,48,_ZN3fmt3v126detail5valueINS0_7contextEEC2Ey
FNL:90,2213,2213
FNA:90,19,_ZN3fmt3v126detail5valueINS0_7contextEEC1En
FNA:90,19,_ZN3fmt3v126detail5valueINS0_7contextEEC2En
FNL:91,2214,2214
FNA:91,0,_ZN3fmt3v126detail5valueINS0_20basic_printf_contextIcEEEC1Eo
FNA:91,0,_ZN3fmt3v126detail5valueINS0_20basic_printf_contextIcEEEC2Eo
FNA:91,0,_ZN3fmt3v126detail5valueINS0_20basic_printf_contextIwEEEC1Eo
FNA:91,0,_ZN3fmt3v126detail5valueINS0_20basic_printf_contextIwEEEC2Eo
FNA:91,6,_ZN3fmt3v126detail5valueINS0_7contextEEC1Eo
FNA:91,6,_ZN3fmt3v126detail5valueINS0_7contextEEC2Eo
FNL:92,2215,2215
FNA:92,1,_ZN3fmt3v126detail5valueINS0_15generic_contextINS0_14basic_appenderIwEEwEEEC1Eb
FNA:92,1,_ZN3fmt3v126detail5valueINS0_15generic_contextINS0_14basic_appenderIwEEwEEEC2Eb
FNA:92,2,_ZN3fmt3v126detail5valueINS0_20basic_printf_contextIcEEEC1Eb
FNA:92,2,_ZN3fmt3v126detail5valueINS0_20basic_printf_contextIcEEEC2Eb
FNA:92,0,_ZN3fmt3v126detail5valueINS0_20basic_printf_contextIwEEEC1Eb
FNA:92,0,_ZN3fmt3v126detail5valueINS0_20basic_printf_contextIwEEEC2Eb
FNA:92,11,_ZN3fmt3v126detail5valueINS0_7contextEEC1Eb
FNA:92,11,_ZN3fmt3v126detail5valueINS0_7contextEEC2Eb
FNL:93,2218,2220
FNA:93,2,_ZN3fmt3v126detail5valueINS0_7contextEEC1ILi16EEEDBT__
FNA:93,1,_ZN3fmt3v126detail5valueINS0_7contextEEC1ILi47EEEDBT__
FNA:93,2,_ZN3fmt3v126detail5valueINS0_7contextEEC1ILi7EEEDBT__
FNA:93,1,_ZN3fmt3v126detail5valueINS0_7contextEEC1ILi8EEEDBT__
FNA:93,2,_ZN3fmt3v126detail5valueINS0_7contextEEC2ILi16EEEDBT__
FNA:93,1,_ZN3fmt3v126detail5valueINS0_7contextEEC2ILi47EEEDBT__
FNA:93,2,_ZN3fmt3v126detail5valueINS0_7contextEEC2ILi7EEEDBT__
FNA:93,1,_ZN3fmt3v126detail5valueINS0_7contextEEC2ILi8EEEDBT__
FNL:94,2222,2224
FNA:94,1,_ZN3fmt3v126detail5valueINS0_7contextEEC1ILi15EEEDUT__
FNA:94,3,_ZN3fmt3v126detail5valueINS0_7contextEEC1ILi32EEEDUT__
FNA:94,1,_ZN3fmt3v126detail5valueINS0_7contextEEC1ILi3EEEDUT__
FNA:94,1,_ZN3fmt3v126detail5valueINS0_7contextEEC1ILi47EEEDUT__
FNA:94,1,_ZN3fmt3v126detail5valueINS0_7contextEEC2ILi15EEEDUT__
FNA:94,3,_ZN3fmt3v126detail5valueINS0_7contextEEC2ILi32EEEDUT__
FNA:94,1,_ZN3fmt3v126detail5valueINS0_7contextEEC2ILi3EEEDUT__
FNA:94,1,_ZN3fmt3v126detail5valueINS0_7contextEEC2ILi47EEEDUT__
FNL:95,2227,2231
FNA:95,7,_ZN3fmt3v126detail5valueINS0_15generic_contextINS0_14basic_appenderIwEEwEEEC1IwLi0EEET_
FNA:95,7,_ZN3fmt3v126detail5valueINS0_15generic_contextINS0_14basic_appenderIwEEwEEEC2IwLi0EEET_
FNA:95,80,_ZN3fmt3v126detail5valueINS0_20basic_printf_contextIcEEEC1IcLi0EEET_
FNA:95,80,_ZN3fmt3v126detail5valueINS0_20basic_printf_contextIcEEEC2IcLi0EEET_
FNA:95,0,_ZN3fmt3v126detail5valueINS0_20basic_printf_contextIwEEEC1IwLi0EEET_
FNA:95,0,_ZN3fmt3v126detail5valueINS0_20basic_printf_contextIwEEEC2IwLi0EEET_
FNA:95,4414,_ZN3fmt3v126detail5valueINS0_7contextEEC1IcLi0EEET_
FNA:95,4414,_ZN3fmt3v126detail5valueINS0_7contextEEC2IcLi0EEET_
FNL:96,2233,2233
FNA:96,13,_ZN3fmt3v126detail5valueINS0_7contextEEC1Ef
FNA:96,13,_ZN3fmt3v126detail5valueINS0_7contextEEC2Ef
FNL:97,2234,2234
FNA:97,2,_ZN3fmt3v126detail5valueINS0_15generic_contextINS0_14basic_appenderIwEEwEEEC1Ed
FNA:97,2,_ZN3fmt3v126detail5valueINS0_15generic_contextINS0_14basic_appenderIwEEwEEEC2Ed
FNA:97,69,_ZN3fmt3v126detail5valueINS0_20basic_printf_contextIcEEEC1Ed
FNA:97,69,_ZN3fmt3v126detail5valueINS0_20basic_printf_contextIcEEEC2Ed
FNA:97,2516,_ZN3fmt3v126detail5valueINS0_7contextEEC1Ed
FNA:97,2516,_ZN3fmt3v126detail5valueINS0_7contextEEC2Ed
FNL:98,2235,2235
FNA:98,4,_ZN3fmt3v126detail5valueINS0_20basic_printf_contextIcEEEC1Ee
FNA:98,4,_ZN3fmt3v126detail5valueINS0_20basic_printf_contextIcEEEC2Ee
FNA:98,33,_ZN3fmt3v126detail5valueINS0_7contextEEC1Ee
FNA:98,33,_ZN3fmt3v126detail5valueINS0_7contextEEC2Ee
FNL:99,2237,2240
FNA:99,2,_ZN3fmt3v126detail5valueINS0_7contextEEC1EPc
FNA:99,2,_ZN3fmt3v126detail5valueINS0_7contextEEC2EPc
FNL:100,2241,2244
FNA:100,8,_ZN3fmt3v126detail5valueINS0_15generic_contextINS0_14basic_appenderIwEEwEEEC1EPKw
FNA:100,8,_ZN3fmt3v126detail5valueINS0_15generic_contextINS0_14basic_appenderIwEEwEEEC2EPKw
FNA:100,29,_ZN3fmt3v126detail5valueINS0_20basic_printf_contextIcEEEC1EPKc
FNA:100,29,_ZN3fmt3v126detail5valueINS0_20basic_printf_contextIcEEEC2EPKc
FNA:100,1,_ZN3fmt3v126detail5valueINS0_20basic_printf_contextIwEEEC1EPKw
FNA:100,1,_ZN3fmt3v126detail5valueINS0_20basic_printf_contextIwEEEC2EPKw
FNA:100,2512,_ZN3fmt3v126detail5valueINS0_7contextEEC1EPKc
FNA:100,2512,_ZN3fmt3v126detail5valueINS0_7contextEEC2EPKc
FNL:101,2247,2253
FNA:101,1,_ZN3fmt3v126detail5valueINS0_15generic_contextINS0_14basic_appenderIwEEwEEEC1INSt3__112basic_stringIwNS9_11char_traitsIwEENS9_9allocatorIwEEEEwLi0EEERKT_
FNA:101,1,_ZN3fmt3v126detail5valueINS0_15generic_contextINS0_14basic_appenderIwEEwEEEC2INSt3__112basic_stringIwNS9_11char_traitsIwEENS9_9allocatorIwEEEEwLi0EEERKT_
FNA:101,3,_ZN3fmt3v126detail5valueINS0_20basic_printf_contextIcEEEC1INS0_17basic_string_viewIcEEcLi0EEERKT_
FNA:101,3,_ZN3fmt3v126detail5valueINS0_20basic_printf_contextIcEEEC2INS0_17basic_string_viewIcEEcLi0EEERKT_
FNA:101,0,_ZN3fmt3v126detail5valueINS0_20basic_printf_contextIwEEEC1INS0_17basic_string_viewIwEEwLi0EEERKT_
FNA:101,0,_ZN3fmt3v126detail5valueINS0_20basic_printf_contextIwEEEC2INS0_17basic_string_viewIwEEwLi0EEERKT_
FNA:101,13,_ZN3fmt3v126detail5valueINS0_7contextEEC1INS0_17basic_string_viewIcEEcLi0EEERKT_
FNA:101,40455,_ZN3fmt3v126detail5valueINS0_7contextEEC1INSt3__112basic_stringIcNS6_11char_traitsIcEENS6_9allocatorIcEEEEcLi0EEERKT_
FNA:101,2,_ZN3fmt3v126detail5valueINS0_7contextEEC1INSt3__117basic_string_viewIcNS6_11char_traitsIcEEEEcLi0EEERKT_
FNA:101,13,_ZN3fmt3v126detail5valueINS0_7contextEEC2INS0_17basic_string_viewIcEEcLi0EEERKT_
FNA:101,40455,_ZN3fmt3v126detail5valueINS0_7contextEEC2INSt3__112basic_stringIcNS6_11char_traitsIcEENS6_9allocatorIcEEEEcLi0EEERKT_
FNA:101,2,_ZN3fmt3v126detail5valueINS0_7contextEEC2INSt3__117basic_string_viewIcNS6_11char_traitsIcEEEEcLi0EEERKT_
FNL:102,2254,2254
FNA:102,6,_ZN3fmt3v126detail5valueINS0_20basic_printf_contextIcEEEC1EPv
FNA:102,6,_ZN3fmt3v126detail5valueINS0_20basic_printf_contextIcEEEC2EPv
FNA:102,265,_ZN3fmt3v126detail5valueINS0_7contextEEC1EPv
FNA:102,265,_ZN3fmt3v126detail5valueINS0_7contextEEC2EPv
FNL:103,2255,2255
FNA:103,10,_ZN3fmt3v126detail5valueINS0_7contextEEC1EPKv
FNA:103,10,_ZN3fmt3v126detail5valueINS0_7contextEEC2EPKv
FNL:104,2256,2257
FNA:104,1,_ZN3fmt3v126detail5valueINS0_7contextEEC1EPVv
FNA:104,1,_ZN3fmt3v126detail5valueINS0_7contextEEC2EPVv
FNL:105,2258,2259
FNA:105,1,_ZN3fmt3v126detail5valueINS0_7contextEEC1EPVKv
FNA:105,1,_ZN3fmt3v126detail5valueINS0_7contextEEC2EPVKv
FNL:106,2260,2260
FNA:106,1,_ZN3fmt3v126detail5valueINS0_7contextEEC1EDn
FNA:106,1,_ZN3fmt3v126detail5valueINS0_7contextEEC2EDn
FNL:107,2273,2273
FNA:107,1,_ZN3fmt3v126detail5valueINS0_15generic_contextINS0_14basic_appenderIwEEwEEEC1I17unstreamable_enumLi0EEERKT_
FNA:107,2,_ZN3fmt3v126detail5valueINS0_20basic_printf_contextIcEEEC1I9test_enumLi0EEERKT_
FNA:107,2,_ZN3fmt3v126detail5valueINS0_20basic_printf_contextIcEEEC1IV9test_enumLi0EEERKT_
FNA:107,0,_ZN3fmt3v126detail5valueINS0_7contextEEC1I10slow_floatLi0EEERKT_
FNA:107,0,_ZN3fmt3v126detail5valueINS0_7contextEEC1I13double_doubleLi0EEERKT_
FNA:107,1,_ZN3fmt3v126detail5valueINS0_7contextEEC1I17unstreamable_enumLi0EEERKT_
FNA:107,2,_ZN3fmt3v126detail5valueINS0_7contextEEC1I8big_enumLi0EEERKT_
FNA:107,1,_ZN3fmt3v126detail5valueINS0_7contextEEC1I9test_enumLi0EEERKT_
FNA:107,1,_ZN3fmt3v126detail5valueINS0_7contextEEC1IN4test13struct_as_intELi0EEERKT_
FNA:107,1,_ZN3fmt3v126detail5valueINS0_7contextEEC1IN4test18scoped_enum_as_intELi0EEERKT_
FNA:107,1,_ZN3fmt3v126detail5valueINS0_7contextEEC1IN7test_ns5colorELi0EEERKT_
FNA:107,1,_ZN3fmt3v126detail5valueINS0_7contextEEC1INSt3__117reference_wrapperI19type_with_format_asEELi0EEERKT_
FNA:107,1,_ZN3fmt3v126detail5valueINS0_7contextEEC1INSt3__117reference_wrapperIK19type_with_format_asEELi0EEERKT_
FNL:108,2278,2278
FNA:108,1,_ZN3fmt3v126detail5valueINS0_15generic_contextINS0_14basic_appenderIwEEwEEEC1INS1_9named_argIwA4_wEELi0EEERKT_
FNA:108,1,_ZN3fmt3v126detail5valueINS0_15generic_contextINS0_14basic_appenderIwEEwEEEC1INS1_9named_argIwA5_wEELi0EEERKT_
FNA:108,1,_ZN3fmt3v126detail5valueINS0_15generic_contextINS0_14basic_appenderIwEEwEEEC1INS1_9named_argIwRA4_KwEELi0EEERKT_
FNA:108,1,_ZN3fmt3v126detail5valueINS0_15generic_contextINS0_14basic_appenderIwEEwEEEC1INS1_9named_argIwRA5_KwEELi0EEERKT_
FNA:108,2,_ZN3fmt3v126detail5valueINS0_15generic_contextINS0_14basic_appenderIwEEwEEEC1INS1_9named_argIwiEELi0EEERKT_
FNA:108,1,_ZN3fmt3v126detail5valueINS0_7contextEEC1INS1_9named_argIc6AnswerEELi0EEERKT_
FNA:108,1,_ZN3fmt3v126detail5valueINS0_7contextEEC1INS1_9named_argIcA2_cEELi0EEERKT_
FNA:108,1,_ZN3fmt3v126detail5valueINS0_7contextEEC1INS1_9named_argIcA4_cEELi0EEERKT_
FNA:108,1,_ZN3fmt3v126detail5valueINS0_7contextEEC1INS1_9named_argIcA5_cEELi0EEERKT_
FNA:108,1,_ZN3fmt3v126detail5valueINS0_7contextEEC1INS1_9named_argIcRA4_KcEELi0EEERKT_
FNA:108,1,_ZN3fmt3v126detail5valueINS0_7contextEEC1INS1_9named_argIcRA5_KcEELi0EEERKT_
FNA:108,1,_ZN3fmt3v126detail5valueINS0_7contextEEC1INS1_9named_argIccEELi0EEERKT_
FNA:108,28,_ZN3fmt3v126detail5valueINS0_7contextEEC1INS1_9named_argIciEELi0EEERKT_
FNL:109,2282,2282
FNA:109,1,_ZN3fmt3v126detail5valueINS0_15generic_contextINS0_14basic_appenderIwEEwEEEC1I15streamable_enumLi0EEERT_
FNA:109,2,_ZN3fmt3v126detail5valueINS0_15generic_contextINS0_14basic_appenderIwEEwEEEC1I2tmLi0EEERT_
FNA:109,1,_ZN3fmt3v126detail5valueINS0_15generic_contextINS0_14basic_appenderIwEEwEEEC1IN4test22struct_as_wstring_viewELi0EEERT_
FNA:109,1,_ZN3fmt3v126detail5valueINS0_15generic_contextINS0_14basic_appenderIwEEwEEEC1INS0_15tuple_join_viewINSt3__15tupleIJwifEEEwEELi0EEERT_
FNA:109,2,_ZN3fmt3v126detail5valueINS0_15generic_contextINS0_14basic_appenderIwEEwEEEC1INS0_7weekdayELi0EEERT_
FNA:109,1,_ZN3fmt3v126detail5valueINS0_15generic_contextINS0_14basic_appenderIwEEwEEEC1INS0_9join_viewIPiSA_wEELi0EEERT_
FNA:109,1,_ZN3fmt3v126detail5valueINS0_15generic_contextINS0_14basic_appenderIwEEwEEEC1INS1_13streamed_viewI28streamable_and_unformattableEELi0EEERT_
FNA:109,1,_ZN3fmt3v126detail5valueINS0_15generic_contextINS0_14basic_appenderIwEEwEEEC1INSt3__13mapINS9_12basic_stringIwNS9_11char_traitsIwEENS9_9allocatorIwEEEEiNS9_4lessISG_EENSE_INS9_4pairIKSG_iEEEEEELi0EEERT_
FNA:109,3,_ZN3fmt3v126detail5valueINS0_15generic_contextINS0_14basic_appenderIwEEwEEEC1INSt3__16bitsetILm6EEELi0EEERT_
FNA:109,2,_ZN3fmt3v126detail5valueINS0_15generic_contextINS0_14basic_appenderIwEEwEEEC1INSt3__16chrono8durationIxNS9_5ratioILl1ELl1EEEEELi0EEERT_
FNA:109,2,_ZN3fmt3v126detail5valueINS0_15generic_contextINS0_14basic_appenderIwEEwEEEC1INSt3__16vectorINS9_12basic_stringIwNS9_11char_traitsIwEENS9_9allocatorIwEEEENSE_ISG_EEEELi0EEERT_
FNA:109,4,_ZN3fmt3v126detail5valueINS0_15generic_contextINS0_14basic_appenderIwEEwEEEC1INSt3__17complexIdEELi0EEERT_
FNA:109,1,_ZN3fmt3v126detail5valueINS0_7contextEEC1I10empty_testLi0EEERT_
FNA:109,1,_ZN3fmt3v126detail5valueINS0_7contextEEC1I10tuple_likeLi0EEERT_
FNA:109,2,_ZN3fmt3v126detail5valueINS0_7contextEEC1I11test_structLi0EEERT_
FNA:109,1,_ZN3fmt3v126detail5valueINS0_7contextEEC1I11unlocalizedLi0EEERT_
FNA:109,1,_ZN3fmt3v126detail5valueINS0_7contextEEC1I12copyfmt_testLi0EEERT_
FNA:109,100,_ZN3fmt3v126detail5valueINS0_7contextEEC1I12deadlockableLi0EEERT_
FNA:109,1,_ZN3fmt3v126detail5valueINS0_7contextEEC1I12fmt_ref_viewINSt3__16vectorINS8_IiNS7_9allocatorIiEEEENS9_ISB_EEEEELi0EEERT_
FNA:109,1,_ZN3fmt3v126detail5valueINS0_7contextEEC1I13test_templateIiELi0EEERT_
FNA:109,1,_ZN3fmt3v126detail5valueINS0_7contextEEC1I13type_with_getLi0EEERT_
FNA:109,1,_ZN3fmt3v126detail5valueINS0_7contextEEC1I15streamable_enumLi0EEERT_
FNA:109,1,_ZN3fmt3v126detail5valueINS0_7contextEEC1I15string_viewableLi0EEERT_
FNA:109,15,_ZN3fmt3v126detail5valueINS0_7contextEEC1I17basic_test_stringIcELi0EEERT_
FNA:109,2,_ZN3fmt3v126detail5valueINS0_7contextEEC1I17noncopyable_rangeIiELi0EEERT_
FNA:109,1,_ZN3fmt3v126detail5valueINS0_7contextEEC1I18convertible_to_intLi0EEERT_
FNA:109,1,_ZN3fmt3v126detail5valueINS0_7contextEEC1I18movable_iter_rangeLi0EEERT_
FNA:109,1,_ZN3fmt3v126detail5valueINS0_7contextEEC1I19check_back_appenderLi0EEERT_
FNA:109,2,_ZN3fmt3v126detail5valueINS0_7contextEEC1I20non_const_only_rangeIiELi0EEERT_
FNA:109,1,_ZN3fmt3v126detail5valueINS0_7contextEEC1I20nonconst_formattableLi0EEERT_
FNA:109,1,_ZN3fmt3v126detail5valueINS0_7contextEEC1I22convertible_to_cstringLi0EEERT_
FNA:109,1,_ZN3fmt3v126detail5valueINS0_7contextEEC1I26lvalue_qualified_begin_endLi0EEERT_
FNA:109,20565,_ZN3fmt3v126detail5valueINS0_7contextEEC1I2tmLi0EEERT_
FNA:109,1,_ZN3fmt3v126detail5valueINS0_7contextEEC1I30convertible_to_std_string_viewLi0EEERT_
FNA:109,1,_ZN3fmt3v126detail5valueINS0_7contextEEC1I31convertible_to_nonconst_cstringLi0EEERT_
FNA:109,1,_ZN3fmt3v126detail5valueINS0_7contextEEC1I37convertible_to_any_type_with_member_xLi0EEERT_
FNA:109,1,_ZN3fmt3v126detail5valueINS0_7contextEEC1I41explicitly_convertible_to_std_string_viewLi0EEERT_
FNA:109,2,_ZN3fmt3v126detail5valueINS0_7contextEEC1I4dateLi0EEERT_
FNA:109,1,_ZN3fmt3v126detail5valueINS0_7contextEEC1I5pointLi0EEERT_
FNA:109,6,_ZN3fmt3v126detail5valueINS0_7contextEEC1I6AnswerLi0EEERT_
FNA:109,1,_ZN3fmt3v126detail5valueINS0_7contextEEC1I7tieableLi0EEERT_
FNA:109,1,_ZN3fmt3v126detail5valueINS0_7contextEEC1I7ustringLi0EEERT_
FNA:109,2,_ZN3fmt3v126detail5valueINS0_7contextEEC1I7zstringLi0EEERT_
FNA:109,1,_ZN3fmt3v126detail5valueINS0_7contextEEC1I8flat_setINSt3__112basic_stringIcNS7_11char_traitsIcEENS7_9allocatorIcEEEEELi0EEERT_
FNA:109,3,_ZN3fmt3v126detail5valueINS0_7contextEEC1IA2_PKcLi0EEERT_
FNA:109,1,_ZN3fmt3v126detail5valueINS0_7contextEEC1IA3_A2_iLi0EEERT_
FNA:109,1,_ZN3fmt3v126detail5valueINS0_7contextEEC1IA6_iLi0EEERT_
FNA:109,6,_ZN3fmt3v126detail5valueINS0_7contextEEC1IK11custom_typeLi0EEERT_
FNA:109,2,_ZN3fmt3v126detail5valueINS0_7contextEEC1IK13to_stringableLi0EEERT_
FNA:109,1,_ZN3fmt3v126detail5valueINS0_7contextEEC1IK13vector_stringLi0EEERT_
FNA:109,0,_ZN3fmt3v126detail5valueINS0_7contextEEC1IK14copy_throwableLi0EEERT_
FNA:109,1,_ZN3fmt3v126detail5valueINS0_7contextEEC1IK15incomplete_typeLi0EEERT_
FNA:109,1,_ZN3fmt3v126detail5valueINS0_7contextEEC1IK19vector_debug_stringLi0EEERT_
FNA:109,6,_ZN3fmt3v126detail5valueINS0_7contextEEC1IK2tmLi0EEERT_
FNA:109,1,_ZN3fmt3v126detail5valueINS0_7contextEEC1IK34convertible_to_pointer_formattableLi0EEERT_
FNA:109,2,_ZN3fmt3v126detail5valueINS0_7contextEEC1IK6AnswerLi0EEERT_
FNA:109,0,_ZN3fmt3v126detail5valueINS0_7contextEEC1IK8abstractLi0EEERT_
FNA:109,1,_ZN3fmt3v126detail5valueINS0_7contextEEC1IKNSt3__112system_errorELi0EEERT_
FNA:109,1,_ZN3fmt3v126detail5valueINS0_7contextEEC1IKNSt3__15stackIiNS6_5dequeIiNS6_9allocatorIiEEEEEELi0EEERT_
FNA:109,1,_ZN3fmt3v126detail5valueINS0_7contextEEC1IKNSt3__16atomicIbEELi0EEERT_
FNA:109,3,_ZN3fmt3v126detail5valueINS0_7contextEEC1IKNSt3__16chrono8durationIxNS6_5ratioILl1ELl1000EEEEELi0EEERT_
FNA:109,7,_ZN3fmt3v126detail5valueINS0_7contextEEC1IKNSt3__16chrono8durationIxNS6_5ratioILl1ELl1EEEEELi0EEERT_
FNA:109,1,_ZN3fmt3v126detail5valueINS0_7contextEEC1IKNSt3__16vectorIiNS6_9allocatorIiEEEELi0EEERT_
FNA:109,2,_ZN3fmt3v126detail5valueINS0_7contextEEC1IKSt13runtime_errorLi0EEERT_
FNA:109,4,_ZN3fmt3v126detail5valueINS0_7contextEEC1IKSt9exceptionLi0EEERT_
FNA:109,1,_ZN3fmt3v126detail5valueINS0_7contextEEC1IKSt9type_infoLi0EEERT_
FNA:109,1,_ZN3fmt3v126detail5valueINS0_7contextEEC1IN3adl3boxELi0EEERT_
FNA:109,1,_ZN3fmt3v126detail5valueINS0_7contextEEC1IN4test21scoped_enum_as_stringELi0EEERT_
FNA:109,1,_ZN3fmt3v126detail5valueINS0_7contextEEC1IN4test25struct_as_const_referenceELi0EEERT_
FNA:109,1,_ZN3fmt3v126detail5valueINS0_7contextEEC1IN4test26scoped_enum_as_string_viewELi0EEERT_
FNA:109,2,_ZN3fmt3v126detail5valueINS0_7contextEEC1IN8fmt_test3abcELi0EEERT_
FNA:109,2,_ZN3fmt3v126detail5valueINS0_7contextEEC1INS0_11nested_viewIdcEELi0EEERT_
FNA:109,4,_ZN3fmt3v126detail5valueINS0_7contextEEC1INS0_14year_month_dayELi0EEERT_
FNA:109,1,_ZN3fmt3v126detail5valueINS0_7contextEEC1INS0_15tuple_join_viewI10tuple_likecEELi0EEERT_
FNA:109,1,_ZN3fmt3v126detail5valueINS0_7contextEEC1INS0_15tuple_join_viewINSt3__15tupleIJEEEcEELi0EEERT_
FNA:109,1,_ZN3fmt3v126detail5valueINS0_7contextEEC1INS0_15tuple_join_viewINSt3__15tupleIJcRiEEEcEELi0EEERT_
FNA:109,1,_ZN3fmt3v126detail5valueINS0_7contextEEC1INS0_15tuple_join_viewINSt3__15tupleIJcifEEEcEELi0EEERT_
FNA:109,1,_ZN3fmt3v126detail5valueINS0_7contextEEC1INS0_15tuple_join_viewINSt3__15tupleIJfEEEcEELi0EEERT_
FNA:109,5,_ZN3fmt3v126detail5valueINS0_7contextEEC1INS0_17group_digits_viewIiEELi0EEERT_
FNA:109,2,_ZN3fmt3v126detail5valueINS0_7contextEEC1INS0_3dayELi0EEERT_
FNA:109,3,_ZN3fmt3v126detail5valueINS0_7contextEEC1INS0_4yearELi0EEERT_
FNA:109,1,_ZN3fmt3v126detail5valueINS0_7contextEEC1INS0_5bytesELi0EEERT_
FNA:109,6,_ZN3fmt3v126detail5valueINS0_7contextEEC1INS0_5monthELi0EEERT_
FNA:109,6,_ZN3fmt3v126detail5valueINS0_7contextEEC1INS0_7weekdayELi0EEERT_
FNA:109,1,_ZN3fmt3v126detail5valueINS0_7contextEEC1INS0_9join_viewI28noncopyable_istream_iteratorNSt3__116istream_iteratorIicNS8_11char_traitsIcEElEEcEELi0EEERT_
FNA:109,1,_ZN3fmt3v126detail5valueINS0_7contextEEC1INS0_9join_viewINSt3__111__wrap_iterIP17basic_test_stringIcEEESC_cEELi0EEERT_
FNA:109,1,_ZN3fmt3v126detail5valueINS0_7contextEEC1INS0_9join_viewINSt3__111__wrap_iterIP9test_enumEESB_cEELi0EEERT_
FNA:109,3,_ZN3fmt3v126detail5valueINS0_7contextEEC1INS0_9join_viewINSt3__111__wrap_iterIPKiEESB_cEELi0EEERT_
FNA:109,2,_ZN3fmt3v126detail5valueINS0_7contextEEC1INS0_9join_viewINSt3__111__wrap_iterIPfEESA_cEELi0EEERT_
FNA:109,4,_ZN3fmt3v126detail5valueINS0_7contextEEC1INS0_9join_viewINSt3__111__wrap_iterIPiEESA_cEELi0EEERT_
FNA:109,1,_ZN3fmt3v126detail5valueINS0_7contextEEC1INS0_9join_viewINSt3__116istream_iteratorIicNS7_11char_traitsIcEElEESB_cEELi0EEERT_
FNA:109,1,_ZN3fmt3v126detail5valueINS0_7contextEEC1INS0_9join_viewIPKPKcSA_cEELi0EEERT_
FNA:109,1,_ZN3fmt3v126detail5valueINS0_7contextEEC1INS0_9join_viewIPKc16zstring_sentinelcEELi0EEERT_
FNA:109,3,_ZN3fmt3v126detail5valueINS0_7contextEEC1INS0_9join_viewIPKiS8_cEELi0EEERT_
FNA:109,1,_ZN3fmt3v126detail5valueINS0_7contextEEC1INS0_9join_viewIPPvS8_cEELi0EEERT_
FNA:109,6,_ZN3fmt3v126detail5valueINS0_7contextEEC1INS0_9join_viewIPiS7_cEELi0EEERT_
FNA:109,3,_ZN3fmt3v126detail5valueINS0_7contextEEC1INS1_10styled_argIA4_cEELi0EEERT_
FNA:109,1,_ZN3fmt3v126detail5valueINS0_7contextEEC1INS1_10styled_argIA5_cEELi0EEERT_
FNA:109,1,_ZN3fmt3v126detail5valueINS0_7contextEEC1INS1_13streamed_viewI28streamable_and_unformattableEELi0EEERT_
FNA:109,7,_ZN3fmt3v126detail5valueINS0_7contextEEC1INSt3__110error_codeELi0EEERT_
FNA:109,1,_ZN3fmt3v126detail5valueINS0_7contextEEC1INSt3__111__thread_idELi0EEERT_
FNA:109,1,_ZN3fmt3v126detail5valueINS0_7contextEEC1INSt3__114priority_queueIiNS6_6vectorIiNS6_9allocatorIiEEEENS6_4lessIiEEEELi0EEERT_
FNA:109,2,_ZN3fmt3v126detail5valueINS0_7contextEEC1INSt3__115__bit_referenceINS6_6vectorIbNS6_9allocatorIbEEEELb1EEELi0EEERT_
FNA:109,2,_ZN3fmt3v126detail5valueINS0_7contextEEC1INSt3__115__bit_referenceINS6_8__bitsetILm1ELm2EEELb1EEELi0EEERT_
FNA:109,1,_ZN3fmt3v126detail5valueINS0_7contextEEC1INSt3__117reference_wrapperI26type_with_format_as_stringEELi0EEERT_
FNA:109,1,_ZN3fmt3v126detail5valueINS0_7contextEEC1INSt3__117reference_wrapperIK26type_with_format_as_stringEELi0EEERT_
FNA:109,1,_ZN3fmt3v126detail5valueINS0_7contextEEC1INSt3__117reference_wrapperIKiEELi0EEERT_
FNA:109,1,_ZN3fmt3v126detail5valueINS0_7contextEEC1INSt3__117reference_wrapperIiEELi0EEERT_
FNA:109,2,_ZN3fmt3v126detail5valueINS0_7contextEEC1INSt3__121__bit_const_referenceINS6_6vectorIbNS6_9allocatorIbEEEEEELi0EEERT_
FNA:109,2,_ZN3fmt3v126detail5valueINS0_7contextEEC1INSt3__121__bit_const_referenceINS6_8__bitsetILm1ELm2EEEEELi0EEERT_
FNA:109,1,_ZN3fmt3v126detail5valueINS0_7contextEEC1INSt3__13mapINS6_10error_codeEiNS6_4lessIS8_EENS6_9allocatorINS6_4pairIKS8_iEEEEEELi0EEERT_
FNA:109,2,_ZN3fmt3v126detail5valueINS0_7contextEEC1INSt3__13mapINS6_12basic_stringIcNS6_11char_traitsIcEENS6_9allocatorIcEEEEiNS6_4lessISD_EENSB_INS6_4pairIKSD_iEEEEEELi0EEERT_
FNA:109,1,_ZN3fmt3v126detail5valueINS0_7contextEEC1INSt3__13mapIi14test_map_valueNS6_4lessIiEENS6_9allocatorINS6_4pairIKiS8_EEEEEELi0EEERT_
FNA:109,1,_ZN3fmt3v126detail5valueINS0_7contextEEC1INSt3__13setINS6_12basic_stringIcNS6_11char_traitsIcEENS6_9allocatorIcEEEENS6_4lessISD_EENSB_ISD_EEEELi0EEERT_
FNA:109,3,_ZN3fmt3v126detail5valueINS0_7contextEEC1INSt3__14pairIifEELi0EEERT_
FNA:109,1,_ZN3fmt3v126detail5valueINS0_7contextEEC1INSt3__15queueIiNS6_5dequeIiNS6_9allocatorIiEEEEEELi0EEERT_
FNA:109,1,_ZN3fmt3v126detail5valueINS0_7contextEEC1INSt3__15stackIcNS6_12basic_stringIcNS6_11char_traitsIcEENS6_9allocatorIcEEEEEELi0EEERT_
FNA:109,1,_ZN3fmt3v126detail5valueINS0_7contextEEC1INSt3__15stackIiNS6_5dequeIiNS6_9allocatorIiEEEEEELi0EEERT_
FNA:109,1,_ZN3fmt3v126detail5valueINS0_7contextEEC1INSt3__15tupleIJEEELi0EEERT_
FNA:109,2,_ZN3fmt3v126detail5valueINS0_7contextEEC1INSt3__15tupleIJifNS6_12basic_stringIcNS6_11char_traitsIcEENS6_9allocatorIcEEEEcEEELi0EEERT_
FNA:109,1,_ZN3fmt3v126detail5valueINS0_7contextEEC1INSt3__16atomicIbEELi0EEERT_
FNA:109,3,_ZN3fmt3v126detail5valueINS0_7contextEEC1INSt3__16bitsetILm6EEELi0EEERT_
FNA:109,60,_ZN3fmt3v126detail5valueINS0_7contextEEC1INSt3__16chrono10time_pointINS1_7local_tENS7_8durationIxNS6_5ratioILl1ELl1EEEEEEELi0EEERT_
FNA:109,2,_ZN3fmt3v126detail5valueINS0_7contextEEC1INSt3__16chrono10time_pointINS7_12system_clockENS7_8durationIdNS6_5ratioILl1ELl1EEEEEEELi0EEERT_
FNA:109,1,_ZN3fmt3v126detail5valueINS0_7contextEEC1INSt3__16chrono10time_pointINS7_12system_clockENS7_8durationIdNS6_5ratioILl1ELl3EEEEEEELi0EEERT_
FNA:109,1,_ZN3fmt3v126detail5valueINS0_7contextEEC1INSt3__16chrono10time_pointINS7_12system_clockENS7_8durationIiNS6_5ratioILl63ELl1EEEEEEELi0EEERT_
FNA:109,1,_ZN3fmt3v126detail5valueINS0_7contextEEC1INSt3__16chrono10time_pointINS7_12system_clockENS7_8durationIiNS6_5ratioILl9ELl1EEEEEEELi0EEERT_
FNA:109,1,_ZN3fmt3v126detail5valueINS0_7contextEEC1INSt3__16chrono10time_pointINS7_12system_clockENS7_8durationIlNS6_5ratioILl60ELl1EEEEEEELi0EEERT_
FNA:109,2,_ZN3fmt3v126detail5valueINS0_7contextEEC1INSt3__16chrono10time_pointINS7_12system_clockENS7_8durationIxNS6_5ratioILl1ELl1000000000EEEEEEELi0EEERT_
FNA:109,10,_ZN3fmt3v126detail5valueINS0_7contextEEC1INSt3__16chrono10time_pointINS7_12system_clockENS7_8durationIxNS6_5ratioILl1ELl1000000EEEEEEELi0EEERT_
FNA:109,7,_ZN3fmt3v126detail5valueINS0_7contextEEC1INSt3__16chrono10time_pointINS7_12system_clockENS7_8durationIxNS6_5ratioILl1ELl1000EEEEEEELi0EEERT_
FNA:109,63,_ZN3fmt3v126detail5valueINS0_7contextEEC1INSt3__16chrono10time_pointINS7_12system_clockENS7_8durationIxNS6_5ratioILl1ELl1EEEEEEELi0EEERT_
FNA:109,1,_ZN3fmt3v126detail5valueINS0_7contextEEC1INSt3__16chrono10time_pointINS7_12system_clockENS7_8durationIxNS6_5ratioILl1ELl3EEEEEEELi0EEERT_
FNA:109,1,_ZN3fmt3v126detail5valueINS0_7contextEEC1INSt3__16chrono10time_pointINS7_12system_clockENS7_8durationIxNS6_5ratioILl31556952ELl1EEEEEEELi0EEERT_
FNA:109,1,_ZN3fmt3v126detail5valueINS0_7contextEEC1INSt3__16chrono8durationIaNS6_5ratioILl1ELl1000EEEEELi0EEERT_
FNA:109,1,_ZN3fmt3v126detail5valueINS0_7contextEEC1INSt3__16chrono8durationIaNS6_5ratioILl1ELl100EEEEELi0EEERT_
FNA:109,2,_ZN3fmt3v126detail5valueINS0_7contextEEC1INSt3__16chrono8durationIcNS6_5ratioILl1000000ELl1EEEEELi0EEERT_
FNA:109,7,_ZN3fmt3v126detail5valueINS0_7contextEEC1INSt3__16chrono8durationIdNS6_5ratioILl1ELl1000000000EEEEELi0EEERT_
FNA:109,38,_ZN3fmt3v126detail5valueINS0_7contextEEC1INSt3__16chrono8durationIdNS6_5ratioILl1ELl1000EEEEELi0EEERT_
FNA:109,10,_ZN3fmt3v126detail5valueINS0_7contextEEC1INSt3__16chrono8durationIdNS6_5ratioILl1ELl1EEEEELi0EEERT_
FNA:109,1,_ZN3fmt3v126detail5valueINS0_7contextEEC1INSt3__16chrono8durationIfNS6_5ratioILl1000000000000000000ELl1EEEEELi0EEERT_
FNA:109,1,_ZN3fmt3v126detail5valueINS0_7contextEEC1INSt3__16chrono8durationIfNS6_5ratioILl1ELl1000000000000000000EEEEELi0EEERT_
FNA:109,1,_ZN3fmt3v126detail5valueINS0_7contextEEC1INSt3__16chrono8durationIfNS6_5ratioILl1ELl1000000000000EEEEELi0EEERT_
FNA:109,2,_ZN3fmt3v126detail5valueINS0_7contextEEC1INSt3__16chrono8durationIfNS6_5ratioILl1ELl1000EEEEELi0EEERT_
FNA:109,2,_ZN3fmt3v126detail5valueINS0_7contextEEC1INSt3__16chrono8durationIfNS6_5ratioILl1ELl1EEEEELi0EEERT_
FNA:109,1,_ZN3fmt3v126detail5valueINS0_7contextEEC1INSt3__16chrono8durationIiNS6_5ratioILl1000000000000000000ELl1EEEEELi0EEERT_
FNA:109,1,_ZN3fmt3v126detail5valueINS0_7contextEEC1INSt3__16chrono8durationIiNS6_5ratioILl1000000000000000ELl1EEEEELi0EEERT_
FNA:109,1,_ZN3fmt3v126detail5valueINS0_7contextEEC1INSt3__16chrono8durationIiNS6_5ratioILl1000000000000ELl1EEEEELi0EEERT_
FNA:109,1,_ZN3fmt3v126detail5valueINS0_7contextEEC1INSt3__16chrono8durationIiNS6_5ratioILl1000000000ELl1EEEEELi0EEERT_
FNA:109,1,_ZN3fmt3v126detail5valueINS0_7contextEEC1INSt3__16chrono8durationIiNS6_5ratioILl1000000ELl1EEEEELi0EEERT_
FNA:109,1,_ZN3fmt3v126detail5valueINS0_7contextEEC1INSt3__16chrono8durationIiNS6_5ratioILl1000ELl1EEEEELi0EEERT_
FNA:109,1,_ZN3fmt3v126detail5valueINS0_7contextEEC1INSt3__16chrono8durationIiNS6_5ratioILl100ELl1EEEEELi0EEERT_
FNA:109,1,_ZN3fmt3v126detail5valueINS0_7contextEEC1INSt3__16chrono8durationIiNS6_5ratioILl10ELl1EEEEELi0EEERT_
FNA:109,1,_ZN3fmt3v126detail5valueINS0_7contextEEC1INSt3__16chrono8durationIiNS6_5ratioILl15ELl1EEEEELi0EEERT_
FNA:109,1,_ZN3fmt3v126detail5valueINS0_7contextEEC1INSt3__16chrono8durationIiNS6_5ratioILl15ELl4EEEEELi0EEERT_
FNA:109,1,_ZN3fmt3v126detail5valueINS0_7contextEEC1INSt3__16chrono8durationIiNS6_5ratioILl1ELl1000000000000000000EEEEELi0EEERT_
FNA:109,1,_ZN3fmt3v126detail5valueINS0_7contextEEC1INSt3__16chrono8durationIiNS6_5ratioILl1ELl1000000000000000EEEEELi0EEERT_
FNA:109,1,_ZN3fmt3v126detail5valueINS0_7contextEEC1INSt3__16chrono8durationIiNS6_5ratioILl1ELl1000000000000EEEEELi0EEERT_
FNA:109,1,_ZN3fmt3v126detail5valueINS0_7contextEEC1INSt3__16chrono8durationIiNS6_5ratioILl1ELl100EEEEELi0EEERT_
FNA:109,1,_ZN3fmt3v126detail5valueINS0_7contextEEC1INSt3__16chrono8durationIiNS6_5ratioILl1ELl10EEEEELi0EEERT_
FNA:109,1,_ZN3fmt3v126detail5valueINS0_7contextEEC1INSt3__16chrono8durationIiNS6_5ratioILl1ELl1EEEEELi0EEERT_
FNA:109,1,_ZN3fmt3v126detail5valueINS0_7contextEEC1INSt3__16chrono8durationIjNS6_5ratioILl1ELl1EEEEELi0EEERT_
FNA:109,11,_ZN3fmt3v126detail5valueINS0_7contextEEC1INSt3__16chrono8durationIlNS6_5ratioILl3600ELl1EEEEELi0EEERT_
FNA:109,5,_ZN3fmt3v126detail5valueINS0_7contextEEC1INSt3__16chrono8durationIlNS6_5ratioILl60ELl1EEEEELi0EEERT_
FNA:109,3,_ZN3fmt3v126detail5valueINS0_7contextEEC1INSt3__16chrono8durationIlNS6_5ratioILl86400ELl1EEEEELi0EEERT_
FNA:109,1,_ZN3fmt3v126detail5valueINS0_7contextEEC1INSt3__16chrono8durationImNS6_5ratioILl1000000000ELl1EEEEELi0EEERT_
FNA:109,1,_ZN3fmt3v126detail5valueINS0_7contextEEC1INSt3__16chrono8durationIsNS6_5ratioILl1ELl100EEEEELi0EEERT_
FNA:109,3,_ZN3fmt3v126detail5valueINS0_7contextEEC1INSt3__16chrono8durationIxNS6_5ratioILl1ELl1000000000000000000EEEEELi0EEERT_
FNA:109,6,_ZN3fmt3v126detail5valueINS0_7contextEEC1INSt3__16chrono8durationIxNS6_5ratioILl1ELl1000000000EEEEELi0EEERT_
FNA:109,2,_ZN3fmt3v126detail5valueINS0_7contextEEC1INSt3__16chrono8durationIxNS6_5ratioILl1ELl1000000EEEEELi0EEERT_
FNA:109,15,_ZN3fmt3v126detail5valueINS0_7contextEEC1INSt3__16chrono8durationIxNS6_5ratioILl1ELl1000EEEEELi0EEERT_
FNA:109,54,_ZN3fmt3v126detail5valueINS0_7contextEEC1INSt3__16chrono8durationIxNS6_5ratioILl1ELl1EEEEELi0EEERT_
FNA:109,1,_ZN3fmt3v126detail5valueINS0_7contextEEC1INSt3__16chrono8durationIxNS6_5ratioILl1ELl3EEEEELi0EEERT_
FNA:109,1,_ZN3fmt3v126detail5valueINS0_7contextEEC1INSt3__16chrono8durationIxNS6_5ratioILl1ELl7EEEEELi0EEERT_
FNA:109,1,_ZN3fmt3v126detail5valueINS0_7contextEEC1INSt3__16vectorI17basic_test_stringIcENS6_9allocatorIS9_EEEELi0EEERT_
FNA:109,1,_ZN3fmt3v126detail5valueINS0_7contextEEC1INSt3__16vectorI9test_enumNS6_9allocatorIS8_EEEELi0EEERT_
FNA:109,11,_ZN3fmt3v126detail5valueINS0_7contextEEC1INSt3__16vectorINS6_12basic_stringIcNS6_11char_traitsIcEENS6_9allocatorIcEEEENSB_ISD_EEEELi0EEERT_
FNA:109,6,_ZN3fmt3v126detail5valueINS0_7contextEEC1INSt3__16vectorINS7_IcNS6_9allocatorIcEEEENS8_ISA_EEEELi0EEERT_
FNA:109,4,_ZN3fmt3v126detail5valueINS0_7contextEEC1INSt3__16vectorINS7_IiNS6_9allocatorIiEEEENS8_ISA_EEEELi0EEERT_
FNA:109,6,_ZN3fmt3v126detail5valueINS0_7contextEEC1INSt3__16vectorIcNS6_9allocatorIcEEEELi0EEERT_
FNA:109,7,_ZN3fmt3v126detail5valueINS0_7contextEEC1INSt3__16vectorIiNS6_9allocatorIiEEEELi0EEERT_
FNA:109,18,_ZN3fmt3v126detail5valueINS0_7contextEEC1INSt3__17complexIdEELi0EEERT_
FNA:109,1,_ZN3fmt3v126detail5valueINS0_7contextEEC1INSt3__17complexIiEELi0EEERT_
FNA:109,1,_ZN3fmt3v126detail5valueINS0_7contextEEC1IZN34ranges_test_container_adaptor_Test8TestBodyEvE20my_container_adaptorLi0EEERT_
FNL:110,2284,2285
FNA:110,2,_ZN3fmt3v126detail5valueINS0_15generic_contextINS0_14basic_appenderIwEEwEEEC1EPKNS1_14named_arg_infoIwEEm
FNA:110,2,_ZN3fmt3v126detail5valueINS0_15generic_contextINS0_14basic_appenderIwEEwEEEC2EPKNS1_14named_arg_infoIwEEm
FNA:110,27,_ZN3fmt3v126detail5valueINS0_7contextEEC1EPKNS1_14named_arg_infoIcEEm
FNA:110,27,_ZN3fmt3v126detail5valueINS0_7contextEEC2EPKNS1_14named_arg_infoIcEEm
FNL:111,2289,2303
FNA:111,1,_ZN3fmt3v126detail5valueINS0_15generic_contextINS0_14basic_appenderIwEEwEEEC1I15streamable_enumLi0EEERT_NS1_10custom_tagE
FNA:111,2,_ZN3fmt3v126detail5valueINS0_15generic_contextINS0_14basic_appenderIwEEwEEEC1I2tmLi0EEERT_NS1_10custom_tagE
FNA:111,1,_ZN3fmt3v126detail5valueINS0_15generic_contextINS0_14basic_appenderIwEEwEEEC1IN4test22struct_as_wstring_viewELi0EEERT_NS1_10custom_tagE
FNA:111,1,_ZN3fmt3v126detail5valueINS0_15generic_contextINS0_14basic_appenderIwEEwEEEC1INS0_15tuple_join_viewINSt3__15tupleIJwifEEEwEELi0EEERT_NS1_10custom_tagE
FNA:111,2,_ZN3fmt3v126detail5valueINS0_15generic_contextINS0_14basic_appenderIwEEwEEEC1INS0_7weekdayELi0EEERT_NS1_10custom_tagE
FNA:111,1,_ZN3fmt3v126detail5valueINS0_15generic_contextINS0_14basic_appenderIwEEwEEEC1INS0_9join_viewIPiSA_wEELi0EEERT_NS1_10custom_tagE
FNA:111,1,_ZN3fmt3v126detail5valueINS0_15generic_contextINS0_14basic_appenderIwEEwEEEC1INS1_13streamed_viewI28streamable_and_unformattableEELi0EEERT_NS1_10custom_tagE
FNA:111,1,_ZN3fmt3v126detail5valueINS0_15generic_contextINS0_14basic_appenderIwEEwEEEC1INSt3__13mapINS9_12basic_stringIwNS9_11char_traitsIwEENS9_9allocatorIwEEEEiNS9_4lessISG_EENSE_INS9_4pairIKSG_iEEEEEELi0EEERT_NS1_10custom_tagE
FNA:111,3,_ZN3fmt3v126detail5valueINS0_15generic_contextINS0_14basic_appenderIwEEwEEEC1INSt3__16bitsetILm6EEELi0EEERT_NS1_10custom_tagE
FNA:111,2,_ZN3fmt3v126detail5valueINS0_15generic_contextINS0_14basic_appenderIwEEwEEEC1INSt3__16chrono8durationIxNS9_5ratioILl1ELl1EEEEELi0EEERT_NS1_10custom_tagE
FNA:111,2,_ZN3fmt3v126detail5valueINS0_15generic_contextINS0_14basic_appenderIwEEwEEEC1INSt3__16vectorINS9_12basic_stringIwNS9_11char_traitsIwEENS9_9allocatorIwEEEENSE_ISG_EEEELi0EEERT_NS1_10custom_tagE
FNA:111,4,_ZN3fmt3v126detail5valueINS0_15generic_contextINS0_14basic_appenderIwEEwEEEC1INSt3__17complexIdEELi0EEERT_NS1_10custom_tagE
FNA:111,1,_ZN3fmt3v126detail5valueINS0_15generic_contextINS0_14basic_appenderIwEEwEEEC2I15streamable_enumLi0EEERT_NS1_10custom_tagE
FNA:111,2,_ZN3fmt3v126detail5valueINS0_15generic_contextINS0_14basic_appenderIwEEwEEEC2I2tmLi0EEERT_NS1_10custom_tagE
FNA:111,1,_ZN3fmt3v126detail5valueINS0_15generic_contextINS0_14basic_appenderIwEEwEEEC2IN4test22struct_as_wstring_viewELi0EEERT_NS1_10custom_tagE
FNA:111,1,_ZN3fmt3v126detail5valueINS0_15generic_contextINS0_14basic_appenderIwEEwEEEC2INS0_15tuple_join_viewINSt3__15tupleIJwifEEEwEELi0EEERT_NS1_10custom_tagE
FNA:111,2,_ZN3fmt3v126detail5valueINS0_15generic_contextINS0_14basic_appenderIwEEwEEEC2INS0_7weekdayELi0EEERT_NS1_10custom_tagE
FNA:111,1,_ZN3fmt3v126detail5valueINS0_15generic_contextINS0_14basic_appenderIwEEwEEEC2INS0_9join_viewIPiSA_wEELi0EEERT_NS1_10custom_tagE
FNA:111,1,_ZN3fmt3v126detail5valueINS0_15generic_contextINS0_14basic_appenderIwEEwEEEC2INS1_13streamed_viewI28streamable_and_unformattableEELi0EEERT_NS1_10custom_tagE
FNA:111,1,_ZN3fmt3v126detail5valueINS0_15generic_contextINS0_14basic_appenderIwEEwEEEC2INSt3__13mapINS9_12basic_stringIwNS9_11char_traitsIwEENS9_9allocatorIwEEEEiNS9_4lessISG_EENSE_INS9_4pairIKSG_iEEEEEELi0EEERT_NS1_10custom_tagE
FNA:111,3,_ZN3fmt3v126detail5valueINS0_15generic_contextINS0_14basic_appenderIwEEwEEEC2INSt3__16bitsetILm6EEELi0EEERT_NS1_10custom_tagE
FNA:111,2,_ZN3fmt3v126detail5valueINS0_15generic_contextINS0_14basic_appenderIwEEwEEEC2INSt3__16chrono8durationIxNS9_5ratioILl1ELl1EEEEELi0EEERT_NS1_10custom_tagE
FNA:111,2,_ZN3fmt3v126detail5valueINS0_15generic_contextINS0_14basic_appenderIwEEwEEEC2INSt3__16vectorINS9_12basic_stringIwNS9_11char_traitsIwEENS9_9allocatorIwEEEENSE_ISG_EEEELi0EEERT_NS1_10custom_tagE
FNA:111,4,_ZN3fmt3v126detail5valueINS0_15generic_contextINS0_14basic_appenderIwEEwEEEC2INSt3__17complexIdEELi0EEERT_NS1_10custom_tagE
FNA:111,1,_ZN3fmt3v126detail5valueINS0_7contextEEC1I10empty_testLi0EEERT_NS1_10custom_tagE
FNA:111,1,_ZN3fmt3v126detail5valueINS0_7contextEEC1I10tuple_likeLi0EEERT_NS1_10custom_tagE
FNA:111,2,_ZN3fmt3v126detail5valueINS0_7contextEEC1I11test_structLi0EEERT_NS1_10custom_tagE
FNA:111,1,_ZN3fmt3v126detail5valueINS0_7contextEEC1I11unlocalizedLi0EEERT_NS1_10custom_tagE
FNA:111,1,_ZN3fmt3v126detail5valueINS0_7contextEEC1I12copyfmt_testLi0EEERT_NS1_10custom_tagE
FNA:111,100,_ZN3fmt3v126detail5valueINS0_7contextEEC1I12deadlockableLi0EEERT_NS1_10custom_tagE
FNA:111,1,_ZN3fmt3v126detail5valueINS0_7contextEEC1I12fmt_ref_viewINSt3__16vectorINS8_IiNS7_9allocatorIiEEEENS9_ISB_EEEEELi0EEERT_NS1_10custom_tagE
FNA:111,1,_ZN3fmt3v126detail5valueINS0_7contextEEC1I13test_templateIiELi0EEERT_NS1_10custom_tagE
FNA:111,1,_ZN3fmt3v126detail5valueINS0_7contextEEC1I13type_with_getLi0EEERT_NS1_10custom_tagE
FNA:111,1,_ZN3fmt3v126detail5valueINS0_7contextEEC1I15streamable_enumLi0EEERT_NS1_10custom_tagE
FNA:111,1,_ZN3fmt3v126detail5valueINS0_7contextEEC1I15string_viewableLi0EEERT_NS1_10custom_tagE
FNA:111,15,_ZN3fmt3v126detail5valueINS0_7contextEEC1I17basic_test_stringIcELi0EEERT_NS1_10custom_tagE
FNA:111,2,_ZN3fmt3v126detail5valueINS0_7contextEEC1I17noncopyable_rangeIiELi0EEERT_NS1_10custom_tagE
FNA:111,1,_ZN3fmt3v126detail5valueINS0_7contextEEC1I18convertible_to_intLi0EEERT_NS1_10custom_tagE
FNA:111,1,_ZN3fmt3v126detail5valueINS0_7contextEEC1I18movable_iter_rangeLi0EEERT_NS1_10custom_tagE
FNA:111,1,_ZN3fmt3v126detail5valueINS0_7contextEEC1I19check_back_appenderLi0EEERT_NS1_10custom_tagE
FNA:111,2,_ZN3fmt3v126detail5valueINS0_7contextEEC1I20non_const_only_rangeIiELi0EEERT_NS1_10custom_tagE
FNA:111,1,_ZN3fmt3v126detail5valueINS0_7contextEEC1I20nonconst_formattableLi0EEERT_NS1_10custom_tagE
FNA:111,1,_ZN3fmt3v126detail5valueINS0_7contextEEC1I22convertible_to_cstringLi0EEERT_NS1_10custom_tagE
FNA:111,1,_ZN3fmt3v126detail5valueINS0_7contextEEC1I26lvalue_qualified_begin_endLi0EEERT_NS1_10custom_tagE
FNA:111,20565,_ZN3fmt3v126detail5valueINS0_7contextEEC1I2tmLi0EEERT_NS1_10custom_tagE
FNA:111,1,_ZN3fmt3v126detail5valueINS0_7contextEEC1I30convertible_to_std_string_viewLi0EEERT_NS1_10custom_tagE
FNA:111,1,_ZN3fmt3v126detail5valueINS0_7contextEEC1I31convertible_to_nonconst_cstringLi0EEERT_NS1_10custom_tagE
FNA:111,1,_ZN3fmt3v126detail5valueINS0_7contextEEC1I37convertible_to_any_type_with_member_xLi0EEERT_NS1_10custom_tagE
FNA:111,1,_ZN3fmt3v126detail5valueINS0_7contextEEC1I41explicitly_convertible_to_std_string_viewLi0EEERT_NS1_10custom_tagE
FNA:111,2,_ZN3fmt3v126detail5valueINS0_7contextEEC1I4dateLi0EEERT_NS1_10custom_tagE
FNA:111,1,_ZN3fmt3v126detail5valueINS0_7contextEEC1I5pointLi0EEERT_NS1_10custom_tagE
FNA:111,6,_ZN3fmt3v126detail5valueINS0_7contextEEC1I6AnswerLi0EEERT_NS1_10custom_tagE
FNA:111,1,_ZN3fmt3v126detail5valueINS0_7contextEEC1I7tieableLi0EEERT_NS1_10custom_tagE
FNA:111,1,_ZN3fmt3v126detail5valueINS0_7contextEEC1I7ustringLi0EEERT_NS1_10custom_tagE
FNA:111,2,_ZN3fmt3v126detail5valueINS0_7contextEEC1I7zstringLi0EEERT_NS1_10custom_tagE
FNA:111,1,_ZN3fmt3v126detail5valueINS0_7contextEEC1I8flat_setINSt3__112basic_stringIcNS7_11char_traitsIcEENS7_9allocatorIcEEEEELi0EEERT_NS1_10custom_tagE
FNA:111,3,_ZN3fmt3v126detail5valueINS0_7contextEEC1IA2_PKcLi0EEERT_NS1_10custom_tagE
FNA:111,1,_ZN3fmt3v126detail5valueINS0_7contextEEC1IA3_A2_iLi0EEERT_NS1_10custom_tagE
FNA:111,1,_ZN3fmt3v126detail5valueINS0_7contextEEC1IA6_iLi0EEERT_NS1_10custom_tagE
FNA:111,6,_ZN3fmt3v126detail5valueINS0_7contextEEC1IK11custom_typeLi0EEERT_NS1_10custom_tagE
FNA:111,2,_ZN3fmt3v126detail5valueINS0_7contextEEC1IK13to_stringableLi0EEERT_NS1_10custom_tagE
FNA:111,1,_ZN3fmt3v126detail5valueINS0_7contextEEC1IK13vector_stringLi0EEERT_NS1_10custom_tagE
FNA:111,0,_ZN3fmt3v126detail5valueINS0_7contextEEC1IK14copy_throwableLi0EEERT_NS1_10custom_tagE
FNA:111,1,_ZN3fmt3v126detail5valueINS0_7contextEEC1IK15incomplete_typeLi0EEERT_NS1_10custom_tagE
FNA:111,1,_ZN3fmt3v126detail5valueINS0_7contextEEC1IK19vector_debug_stringLi0EEERT_NS1_10custom_tagE
FNA:111,6,_ZN3fmt3v126detail5valueINS0_7contextEEC1IK2tmLi0EEERT_NS1_10custom_tagE
FNA:111,1,_ZN3fmt3v126detail5valueINS0_7contextEEC1IK34convertible_to_pointer_formattableLi0EEERT_NS1_10custom_tagE
FNA:111,2,_ZN3fmt3v126detail5valueINS0_7contextEEC1IK6AnswerLi0EEERT_NS1_10custom_tagE
FNA:111,0,_ZN3fmt3v126detail5valueINS0_7contextEEC1IK8abstractLi0EEERT_NS1_10custom_tagE
FNA:111,1,_ZN3fmt3v126detail5valueINS0_7contextEEC1IKNSt3__112system_errorELi0EEERT_NS1_10custom_tagE
FNA:111,1,_ZN3fmt3v126detail5valueINS0_7contextEEC1IKNSt3__15stackIiNS6_5dequeIiNS6_9allocatorIiEEEEEELi0EEERT_NS1_10custom_tagE
FNA:111,1,_ZN3fmt3v126detail5valueINS0_7contextEEC1IKNSt3__16atomicIbEELi0EEERT_NS1_10custom_tagE
FNA:111,3,_ZN3fmt3v126detail5valueINS0_7contextEEC1IKNSt3__16chrono8durationIxNS6_5ratioILl1ELl1000EEEEELi0EEERT_NS1_10custom_tagE
FNA:111,7,_ZN3fmt3v126detail5valueINS0_7contextEEC1IKNSt3__16chrono8durationIxNS6_5ratioILl1ELl1EEEEELi0EEERT_NS1_10custom_tagE
FNA:111,1,_ZN3fmt3v126detail5valueINS0_7contextEEC1IKNSt3__16vectorIiNS6_9allocatorIiEEEELi0EEERT_NS1_10custom_tagE
FNA:111,2,_ZN3fmt3v126detail5valueINS0_7contextEEC1IKSt13runtime_errorLi0EEERT_NS1_10custom_tagE
FNA:111,4,_ZN3fmt3v126detail5valueINS0_7contextEEC1IKSt9exceptionLi0EEERT_NS1_10custom_tagE
FNA:111,1,_ZN3fmt3v126detail5valueINS0_7contextEEC1IKSt9type_infoLi0EEERT_NS1_10custom_tagE
FNA:111,1,_ZN3fmt3v126detail5valueINS0_7contextEEC1IN3adl3boxELi0EEERT_NS1_10custom_tagE
FNA:111,1,_ZN3fmt3v126detail5valueINS0_7contextEEC1IN4test21scoped_enum_as_stringELi0EEERT_NS1_10custom_tagE
FNA:111,1,_ZN3fmt3v126detail5valueINS0_7contextEEC1IN4test25struct_as_const_referenceELi0EEERT_NS1_10custom_tagE
FNA:111,1,_ZN3fmt3v126detail5valueINS0_7contextEEC1IN4test26scoped_enum_as_string_viewELi0EEERT_NS1_10custom_tagE
FNA:111,2,_ZN3fmt3v126detail5valueINS0_7contextEEC1IN8fmt_test3abcELi0EEERT_NS1_10custom_tagE
FNA:111,2,_ZN3fmt3v126detail5valueINS0_7contextEEC1INS0_11nested_viewIdcEELi0EEERT_NS1_10custom_tagE
FNA:111,4,_ZN3fmt3v126detail5valueINS0_7contextEEC1INS0_14year_month_dayELi0EEERT_NS1_10custom_tagE
FNA:111,1,_ZN3fmt3v126detail5valueINS0_7contextEEC1INS0_15tuple_join_viewI10tuple_likecEELi0EEERT_NS1_10custom_tagE
FNA:111,1,_ZN3fmt3v126detail5valueINS0_7contextEEC1INS0_15tuple_join_viewINSt3__15tupleIJEEEcEELi0EEERT_NS1_10custom_tagE
FNA:111,1,_ZN3fmt3v126detail5valueINS0_7contextEEC1INS0_15tuple_join_viewINSt3__15tupleIJcRiEEEcEELi0EEERT_NS1_10custom_tagE
FNA:111,1,_ZN3fmt3v126detail5valueINS0_7contextEEC1INS0_15tuple_join_viewINSt3__15tupleIJcifEEEcEELi0EEERT_NS1_10custom_tagE
FNA:111,1,_ZN3fmt3v126detail5valueINS0_7contextEEC1INS0_15tuple_join_viewINSt3__15tupleIJfEEEcEELi0EEERT_NS1_10custom_tagE
FNA:111,5,_ZN3fmt3v126detail5valueINS0_7contextEEC1INS0_17group_digits_viewIiEELi0EEERT_NS1_10custom_tagE
FNA:111,2,_ZN3fmt3v126detail5valueINS0_7contextEEC1INS0_3dayELi0EEERT_NS1_10custom_tagE
FNA:111,3,_ZN3fmt3v126detail5valueINS0_7contextEEC1INS0_4yearELi0EEERT_NS1_10custom_tagE
FNA:111,1,_ZN3fmt3v126detail5valueINS0_7contextEEC1INS0_5bytesELi0EEERT_NS1_10custom_tagE
FNA:111,6,_ZN3fmt3v126detail5valueINS0_7contextEEC1INS0_5monthELi0EEERT_NS1_10custom_tagE
FNA:111,6,_ZN3fmt3v126detail5valueINS0_7contextEEC1INS0_7weekdayELi0EEERT_NS1_10custom_tagE
FNA:111,1,_ZN3fmt3v126detail5valueINS0_7contextEEC1INS0_9join_viewI28noncopyable_istream_iteratorNSt3__116istream_iteratorIicNS8_11char_traitsIcEElEEcEELi0EEERT_NS1_10custom_tagE
FNA:111,1,_ZN3fmt3v126detail5valueINS0_7contextEEC1INS0_9join_viewINSt3__111__wrap_iterIP17basic_test_stringIcEEESC_cEELi0EEERT_NS1_10custom_tagE
FNA:111,1,_ZN3fmt3v126detail5valueINS0_7contextEEC1INS0_9join_viewINSt3__111__wrap_iterIP9test_enumEESB_cEELi0EEERT_NS1_10custom_tagE
FNA:111,3,_ZN3fmt3v126detail5valueINS0_7contextEEC1INS0_9join_viewINSt3__111__wrap_iterIPKiEESB_cEELi0EEERT_NS1_10custom_tagE
FNA:111,2,_ZN3fmt3v126detail5valueINS0_7contextEEC1INS0_9join_viewINSt3__111__wrap_iterIPfEESA_cEELi0EEERT_NS1_10custom_tagE
FNA:111,4,_ZN3fmt3v126detail5valueINS0_7contextEEC1INS0_9join_viewINSt3__111__wrap_iterIPiEESA_cEELi0EEERT_NS1_10custom_tagE
FNA:111,1,_ZN3fmt3v126detail5valueINS0_7contextEEC1INS0_9join_viewINSt3__116istream_iteratorIicNS7_11char_traitsIcEElEESB_cEELi0EEERT_NS1_10custom_tagE
FNA:111,1,_ZN3fmt3v126detail5valueINS0_7contextEEC1INS0_9join_viewIPKPKcSA_cEELi0EEERT_NS1_10custom_tagE
FNA:111,1,_ZN3fmt3v126detail5valueINS0_7contextEEC1INS0_9join_viewIPKc16zstring_sentinelcEELi0EEERT_NS1_10custom_tagE
FNA:111,3,_ZN3fmt3v126detail5valueINS0_7contextEEC1INS0_9join_viewIPKiS8_cEELi0EEERT_NS1_10custom_tagE
FNA:111,1,_ZN3fmt3v126detail5valueINS0_7contextEEC1INS0_9join_viewIPPvS8_cEELi0EEERT_NS1_10custom_tagE
FNA:111,6,_ZN3fmt3v126detail5valueINS0_7contextEEC1INS0_9join_viewIPiS7_cEELi0EEERT_NS1_10custom_tagE
FNA:111,3,_ZN3fmt3v126detail5valueINS0_7contextEEC1INS1_10styled_argIA4_cEELi0EEERT_NS1_10custom_tagE
FNA:111,1,_ZN3fmt3v126detail5valueINS0_7contextEEC1INS1_10styled_argIA5_cEELi0EEERT_NS1_10custom_tagE
FNA:111,1,_ZN3fmt3v126detail5valueINS0_7contextEEC1INS1_13streamed_viewI28streamable_and_unformattableEELi0EEERT_NS1_10custom_tagE
FNA:111,7,_ZN3fmt3v126detail5valueINS0_7contextEEC1INSt3__110error_codeELi0EEERT_NS1_10custom_tagE
FNA:111,1,_ZN3fmt3v126detail5valueINS0_7contextEEC1INSt3__111__thread_idELi0EEERT_NS1_10custom_tagE
FNA:111,1,_ZN3fmt3v126detail5valueINS0_7contextEEC1INSt3__114priority_queueIiNS6_6vectorIiNS6_9allocatorIiEEEENS6_4lessIiEEEELi0EEERT_NS1_10custom_tagE
FNA:111,2,_ZN3fmt3v126detail5valueINS0_7contextEEC1INSt3__115__bit_referenceINS6_6vectorIbNS6_9allocatorIbEEEELb1EEELi0EEERT_NS1_10custom_tagE
FNA:111,2,_ZN3fmt3v126detail5valueINS0_7contextEEC1INSt3__115__bit_referenceINS6_8__bitsetILm1ELm2EEELb1EEELi0EEERT_NS1_10custom_tagE
FNA:111,1,_ZN3fmt3v126detail5valueINS0_7contextEEC1INSt3__117reference_wrapperI26type_with_format_as_stringEELi0EEERT_NS1_10custom_tagE
FNA:111,1,_ZN3fmt3v126detail5valueINS0_7contextEEC1INSt3__117reference_wrapperIK26type_with_format_as_stringEELi0EEERT_NS1_10custom_tagE
FNA:111,1,_ZN3fmt3v126detail5valueINS0_7contextEEC1INSt3__117reference_wrapperIKiEELi0EEERT_NS1_10custom_tagE
FNA:111,1,_ZN3fmt3v126detail5valueINS0_7contextEEC1INSt3__117reference_wrapperIiEELi0EEERT_NS1_10custom_tagE
FNA:111,2,_ZN3fmt3v126detail5valueINS0_7contextEEC1INSt3__121__bit_const_referenceINS6_6vectorIbNS6_9allocatorIbEEEEEELi0EEERT_NS1_10custom_tagE
FNA:111,2,_ZN3fmt3v126detail5valueINS0_7contextEEC1INSt3__121__bit_const_referenceINS6_8__bitsetILm1ELm2EEEEELi0EEERT_NS1_10custom_tagE
FNA:111,1,_ZN3fmt3v126detail5valueINS0_7contextEEC1INSt3__13mapINS6_10error_codeEiNS6_4lessIS8_EENS6_9allocatorINS6_4pairIKS8_iEEEEEELi0EEERT_NS1_10custom_tagE
FNA:111,2,_ZN3fmt3v126detail5valueINS0_7contextEEC1INSt3__13mapINS6_12basic_stringIcNS6_11char_traitsIcEENS6_9allocatorIcEEEEiNS6_4lessISD_EENSB_INS6_4pairIKSD_iEEEEEELi0EEERT_NS1_10custom_tagE
FNA:111,1,_ZN3fmt3v126detail5valueINS0_7contextEEC1INSt3__13mapIi14test_map_valueNS6_4lessIiEENS6_9allocatorINS6_4pairIKiS8_EEEEEELi0EEERT_NS1_10custom_tagE
FNA:111,1,_ZN3fmt3v126detail5valueINS0_7contextEEC1INSt3__13setINS6_12basic_stringIcNS6_11char_traitsIcEENS6_9allocatorIcEEEENS6_4lessISD_EENSB_ISD_EEEELi0EEERT_NS1_10custom_tagE
FNA:111,3,_ZN3fmt3v126detail5valueINS0_7contextEEC1INSt3__14pairIifEELi0EEERT_NS1_10custom_tagE
FNA:111,1,_ZN3fmt3v126detail5valueINS0_7contextEEC1INSt3__15queueIiNS6_5dequeIiNS6_9allocatorIiEEEEEELi0EEERT_NS1_10custom_tagE
FNA:111,1,_ZN3fmt3v126detail5valueINS0_7contextEEC1INSt3__15stackIcNS6_12basic_stringIcNS6_11char_traitsIcEENS6_9allocatorIcEEEEEELi0EEERT_NS1_10custom_tagE
FNA:111,1,_ZN3fmt3v126detail5valueINS0_7contextEEC1INSt3__15stackIiNS6_5dequeIiNS6_9allocatorIiEEEEEELi0EEERT_NS1_10custom_tagE
FNA:111,1,_ZN3fmt3v126detail5valueINS0_7contextEEC1INSt3__15tupleIJEEELi0EEERT_NS1_10custom_tagE
FNA:111,2,_ZN3fmt3v126detail5valueINS0_7contextEEC1INSt3__15tupleIJifNS6_12basic_stringIcNS6_11char_traitsIcEENS6_9allocatorIcEEEEcEEELi0EEERT_NS1_10custom_tagE
FNA:111,1,_ZN3fmt3v126detail5valueINS0_7contextEEC1INSt3__16atomicIbEELi0EEERT_NS1_10custom_tagE
FNA:111,3,_ZN3fmt3v126detail5valueINS0_7contextEEC1INSt3__16bitsetILm6EEELi0EEERT_NS1_10custom_tagE
FNA:111,60,_ZN3fmt3v126detail5valueINS0_7contextEEC1INSt3__16chrono10time_pointINS1_7local_tENS7_8durationIxNS6_5ratioILl1ELl1EEEEEEELi0EEERT_NS1_10custom_tagE
FNA:111,2,_ZN3fmt3v126detail5valueINS0_7contextEEC1INSt3__16chrono10time_pointINS7_12system_clockENS7_8durationIdNS6_5ratioILl1ELl1EEEEEEELi0EEERT_NS1_10custom_tagE
FNA:111,1,_ZN3fmt3v126detail5valueINS0_7contextEEC1INSt3__16chrono10time_pointINS7_12system_clockENS7_8durationIdNS6_5ratioILl1ELl3EEEEEEELi0EEERT_NS1_10custom_tagE
FNA:111,1,_ZN3fmt3v126detail5valueINS0_7contextEEC1INSt3__16chrono10time_pointINS7_12system_clockENS7_8durationIiNS6_5ratioILl63ELl1EEEEEEELi0EEERT_NS1_10custom_tagE
FNA:111,1,_ZN3fmt3v126detail5valueINS0_7contextEEC1INSt3__16chrono10time_pointINS7_12system_clockENS7_8durationIiNS6_5ratioILl9ELl1EEEEEEELi0EEERT_NS1_10custom_tagE
FNA:111,1,_ZN3fmt3v126detail5valueINS0_7contextEEC1INSt3__16chrono10time_pointINS7_12system_clockENS7_8durationIlNS6_5ratioILl60ELl1EEEEEEELi0EEERT_NS1_10custom_tagE
FNA:111,2,_ZN3fmt3v126detail5valueINS0_7contextEEC1INSt3__16chrono10time_pointINS7_12system_clockENS7_8durationIxNS6_5ratioILl1ELl1000000000EEEEEEELi0EEERT_NS1_10custom_tagE
FNA:111,10,_ZN3fmt3v126detail5valueINS0_7contextEEC1INSt3__16chrono10time_pointINS7_12system_clockENS7_8durationIxNS6_5ratioILl1ELl1000000EEEEEEELi0EEERT_NS1_10custom_tagE
FNA:111,7,_ZN3fmt3v126detail5valueINS0_7contextEEC1INSt3__16chrono10time_pointINS7_12system_clockENS7_8durationIxNS6_5ratioILl1ELl1000EEEEEEELi0EEERT_NS1_10custom_tagE
FNA:111,63,_ZN3fmt3v126detail5valueINS0_7contextEEC1INSt3__16chrono10time_pointINS7_12system_clockENS7_8durationIxNS6_5ratioILl1ELl1EEEEEEELi0EEERT_NS1_10custom_tagE
FNA:111,1,_ZN3fmt3v126detail5valueINS0_7contextEEC1INSt3__16chrono10time_pointINS7_12system_clockENS7_8durationIxNS6_5ratioILl1ELl3EEEEEEELi0EEERT_NS1_10custom_tagE
FNA:111,1,_ZN3fmt3v126detail5valueINS0_7contextEEC1INSt3__16chrono10time_pointINS7_12system_clockENS7_8durationIxNS6_5ratioILl31556952ELl1EEEEEEELi0EEERT_NS1_10custom_tagE
FNA:111,1,_ZN3fmt3v126detail5valueINS0_7contextEEC1INSt3__16chrono8durationIaNS6_5ratioILl1ELl1000EEEEELi0EEERT_NS1_10custom_tagE
FNA:111,1,_ZN3fmt3v126detail5valueINS0_7contextEEC1INSt3__16chrono8durationIaNS6_5ratioILl1ELl100EEEEELi0EEERT_NS1_10custom_tagE
FNA:111,2,_ZN3fmt3v126detail5valueINS0_7contextEEC1INSt3__16chrono8durationIcNS6_5ratioILl1000000ELl1EEEEELi0EEERT_NS1_10custom_tagE
FNA:111,7,_ZN3fmt3v126detail5valueINS0_7contextEEC1INSt3__16chrono8durationIdNS6_5ratioILl1ELl1000000000EEEEELi0EEERT_NS1_10custom_tagE
FNA:111,38,_ZN3fmt3v126detail5valueINS0_7contextEEC1INSt3__16chrono8durationIdNS6_5ratioILl1ELl1000EEEEELi0EEERT_NS1_10custom_tagE
FNA:111,10,_ZN3fmt3v126detail5valueINS0_7contextEEC1INSt3__16chrono8durationIdNS6_5ratioILl1ELl1EEEEELi0EEERT_NS1_10custom_tagE
FNA:111,1,_ZN3fmt3v126detail5valueINS0_7contextEEC1INSt3__16chrono8durationIfNS6_5ratioILl1000000000000000000ELl1EEEEELi0EEERT_NS1_10custom_tagE
FNA:111,1,_ZN3fmt3v126detail5valueINS0_7contextEEC1INSt3__16chrono8durationIfNS6_5ratioILl1ELl1000000000000000000EEEEELi0EEERT_NS1_10custom_tagE
FNA:111,1,_ZN3fmt3v126detail5valueINS0_7contextEEC1INSt3__16chrono8durationIfNS6_5ratioILl1ELl1000000000000EEEEELi0EEERT_NS1_10custom_tagE
FNA:111,2,_ZN3fmt3v126detail5valueINS0_7contextEEC1INSt3__16chrono8durationIfNS6_5ratioILl1ELl1000EEEEELi0EEERT_NS1_10custom_tagE
FNA:111,2,_ZN3fmt3v126detail5valueINS0_7contextEEC1INSt3__16chrono8durationIfNS6_5ratioILl1ELl1EEEEELi0EEERT_NS1_10custom_tagE
FNA:111,1,_ZN3fmt3v126detail5valueINS0_7contextEEC1INSt3__16chrono8durationIiNS6_5ratioILl1000000000000000000ELl1EEEEELi0EEERT_NS1_10custom_tagE
FNA:111,1,_ZN3fmt3v126detail5valueINS0_7contextEEC1INSt3__16chrono8durationIiNS6_5ratioILl1000000000000000ELl1EEEEELi0EEERT_NS1_10custom_tagE
FNA:111,1,_ZN3fmt3v126detail5valueINS0_7contextEEC1INSt3__16chrono8durationIiNS6_5ratioILl1000000000000ELl1EEEEELi0EEERT_NS1_10custom_tagE
FNA:111,1,_ZN3fmt3v126detail5valueINS0_7contextEEC1INSt3__16chrono8durationIiNS6_5ratioILl1000000000ELl1EEEEELi0EEERT_NS1_10custom_tagE
FNA:111,1,_ZN3fmt3v126detail5valueINS0_7contextEEC1INSt3__16chrono8durationIiNS6_5ratioILl1000000ELl1EEEEELi0EEERT_NS1_10custom_tagE
FNA:111,1,_ZN3fmt3v126detail5valueINS0_7contextEEC1INSt3__16chrono8durationIiNS6_5ratioILl1000ELl1EEEEELi0EEERT_NS1_10custom_tagE
FNA:111,1,_ZN3fmt3v126detail5valueINS0_7contextEEC1INSt3__16chrono8durationIiNS6_5ratioILl100ELl1EEEEELi0EEERT_NS1_10custom_tagE
FNA:111,1,_ZN3fmt3v126detail5valueINS0_7contextEEC1INSt3__16chrono8durationIiNS6_5ratioILl10ELl1EEEEELi0EEERT_NS1_10custom_tagE
FNA:111,1,_ZN3fmt3v126detail5valueINS0_7contextEEC1INSt3__16chrono8durationIiNS6_5ratioILl15ELl1EEEEELi0EEERT_NS1_10custom_tagE
FNA:111,1,_ZN3fmt3v126detail5valueINS0_7contextEEC1INSt3__16chrono8durationIiNS6_5ratioILl15ELl4EEEEELi0EEERT_NS1_10custom_tagE
FNA:111,1,_ZN3fmt3v126detail5valueINS0_7contextEEC1INSt3__16chrono8durationIiNS6_5ratioILl1ELl1000000000000000000EEEEELi0EEERT_NS1_10custom_tagE
FNA:111,1,_ZN3fmt3v126detail5valueINS0_7contextEEC1INSt3__16chrono8durationIiNS6_5ratioILl1ELl1000000000000000EEEEELi0EEERT_NS1_10custom_tagE
FNA:111,1,_ZN3fmt3v126detail5valueINS0_7contextEEC1INSt3__16chrono8durationIiNS6_5ratioILl1ELl1000000000000EEEEELi0EEERT_NS1_10custom_tagE
FNA:111,1,_ZN3fmt3v126detail5valueINS0_7contextEEC1INSt3__16chrono8durationIiNS6_5ratioILl1ELl100EEEEELi0EEERT_NS1_10custom_tagE
FNA:111,1,_ZN3fmt3v126detail5valueINS0_7contextEEC1INSt3__16chrono8durationIiNS6_5ratioILl1ELl10EEEEELi0EEERT_NS1_10custom_tagE
FNA:111,1,_ZN3fmt3v126detail5valueINS0_7contextEEC1INSt3__16chrono8durationIiNS6_5ratioILl1ELl1EEEEELi0EEERT_NS1_10custom_tagE
FNA:111,1,_ZN3fmt3v126detail5valueINS0_7contextEEC1INSt3__16chrono8durationIjNS6_5ratioILl1ELl1EEEEELi0EEERT_NS1_10custom_tagE
FNA:111,11,_ZN3fmt3v126detail5valueINS0_7contextEEC1INSt3__16chrono8durationIlNS6_5ratioILl3600ELl1EEEEELi0EEERT_NS1_10custom_tagE
FNA:111,5,_ZN3fmt3v126detail5valueINS0_7contextEEC1INSt3__16chrono8durationIlNS6_5ratioILl60ELl1EEEEELi0EEERT_NS1_10custom_tagE
FNA:111,3,_ZN3fmt3v126detail5valueINS0_7contextEEC1INSt3__16chrono8durationIlNS6_5ratioILl86400ELl1EEEEELi0EEERT_NS1_10custom_tagE
FNA:111,1,_ZN3fmt3v126detail5valueINS0_7contextEEC1INSt3__16chrono8durationImNS6_5ratioILl1000000000ELl1EEEEELi0EEERT_NS1_10custom_tagE
FNA:111,1,_ZN3fmt3v126detail5valueINS0_7contextEEC1INSt3__16chrono8durationIsNS6_5ratioILl1ELl100EEEEELi0EEERT_NS1_10custom_tagE
FNA:111,3,_ZN3fmt3v126detail5valueINS0_7contextEEC1INSt3__16chrono8durationIxNS6_5ratioILl1ELl1000000000000000000EEEEELi0EEERT_NS1_10custom_tagE
FNA:111,6,_ZN3fmt3v126detail5valueINS0_7contextEEC1INSt3__16chrono8durationIxNS6_5ratioILl1ELl1000000000EEEEELi0EEERT_NS1_10custom_tagE
FNA:111,2,_ZN3fmt3v126detail5valueINS0_7contextEEC1INSt3__16chrono8durationIxNS6_5ratioILl1ELl1000000EEEEELi0EEERT_NS1_10custom_tagE
FNA:111,15,_ZN3fmt3v126detail5valueINS0_7contextEEC1INSt3__16chrono8durationIxNS6_5ratioILl1ELl1000EEEEELi0EEERT_NS1_10custom_tagE
FNA:111,54,_ZN3fmt3v126detail5valueINS0_7contextEEC1INSt3__16chrono8durationIxNS6_5ratioILl1ELl1EEEEELi0EEERT_NS1_10custom_tagE
FNA:111,1,_ZN3fmt3v126detail5valueINS0_7contextEEC1INSt3__16chrono8durationIxNS6_5ratioILl1ELl3EEEEELi0EEERT_NS1_10custom_tagE
FNA:111,1,_ZN3fmt3v126detail5valueINS0_7contextEEC1INSt3__16chrono8durationIxNS6_5ratioILl1ELl7EEEEELi0EEERT_NS1_10custom_tagE
FNA:111,1,_ZN3fmt3v126detail5valueINS0_7contextEEC1INSt3__16vectorI17basic_test_stringIcENS6_9allocatorIS9_EEEELi0EEERT_NS1_10custom_tagE
FNA:111,1,_ZN3fmt3v126detail5valueINS0_7contextEEC1INSt3__16vectorI9test_enumNS6_9allocatorIS8_EEEELi0EEERT_NS1_10custom_tagE
FNA:111,11,_ZN3fmt3v126detail5valueINS0_7contextEEC1INSt3__16vectorINS6_12basic_stringIcNS6_11char_traitsIcEENS6_9allocatorIcEEEENSB_ISD_EEEELi0EEERT_NS1_10custom_tagE
FNA:111,6,_ZN3fmt3v126detail5valueINS0_7contextEEC1INSt3__16vectorINS7_IcNS6_9allocatorIcEEEENS8_ISA_EEEELi0EEERT_NS1_10custom_tagE
FNA:111,4,_ZN3fmt3v126detail5valueINS0_7contextEEC1INSt3__16vectorINS7_IiNS6_9allocatorIiEEEENS8_ISA_EEEELi0EEERT_NS1_10custom_tagE
FNA:111,6,_ZN3fmt3v126detail5valueINS0_7contextEEC1INSt3__16vectorIcNS6_9allocatorIcEEEELi0EEERT_NS1_10custom_tagE
FNA:111,7,_ZN3fmt3v126detail5valueINS0_7contextEEC1INSt3__16vectorIiNS6_9allocatorIiEEEELi0EEERT_NS1_10custom_tagE
FNA:111,18,_ZN3fmt3v126detail5valueINS0_7contextEEC1INSt3__17complexIdEELi0EEERT_NS1_10custom_tagE
FNA:111,1,_ZN3fmt3v126detail5valueINS0_7contextEEC1INSt3__17complexIiEELi0EEERT_NS1_10custom_tagE
FNA:111,1,_ZN3fmt3v126detail5valueINS0_7contextEEC1IZN34ranges_test_container_adaptor_Test8TestBodyEvE20my_container_adaptorLi0EEERT_NS1_10custom_tagE
FNA:111,1,_ZN3fmt3v126detail5valueINS0_7contextEEC2I10empty_testLi0EEERT_NS1_10custom_tagE
FNA:111,1,_ZN3fmt3v126detail5valueINS0_7contextEEC2I10tuple_likeLi0EEERT_NS1_10custom_tagE
FNA:111,2,_ZN3fmt3v126detail5valueINS0_7contextEEC2I11test_structLi0EEERT_NS1_10custom_tagE
FNA:111,1,_ZN3fmt3v126detail5valueINS0_7contextEEC2I11unlocalizedLi0EEERT_NS1_10custom_tagE
FNA:111,1,_ZN3fmt3v126detail5valueINS0_7contextEEC2I12copyfmt_testLi0EEERT_NS1_10custom_tagE
FNA:111,100,_ZN3fmt3v126detail5valueINS0_7contextEEC2I12deadlockableLi0EEERT_NS1_10custom_tagE
FNA:111,1,_ZN3fmt3v126detail5valueINS0_7contextEEC2I12fmt_ref_viewINSt3__16vectorINS8_IiNS7_9allocatorIiEEEENS9_ISB_EEEEELi0EEERT_NS1_10custom_tagE
FNA:111,1,_ZN3fmt3v126detail5valueINS0_7contextEEC2I13test_templateIiELi0EEERT_NS1_10custom_tagE
FNA:111,1,_ZN3fmt3v126detail5valueINS0_7contextEEC2I13type_with_getLi0EEERT_NS1_10custom_tagE
FNA:111,1,_ZN3fmt3v126detail5valueINS0_7contextEEC2I15streamable_enumLi0EEERT_NS1_10custom_tagE
FNA:111,1,_ZN3fmt3v126detail5valueINS0_7contextEEC2I15string_viewableLi0EEERT_NS1_10custom_tagE
FNA:111,15,_ZN3fmt3v126detail5valueINS0_7contextEEC2I17basic_test_stringIcELi0EEERT_NS1_10custom_tagE
FNA:111,2,_ZN3fmt3v126detail5valueINS0_7contextEEC2I17noncopyable_rangeIiELi0EEERT_NS1_10custom_tagE
FNA:111,1,_ZN3fmt3v126detail5valueINS0_7contextEEC2I18convertible_to_intLi0EEERT_NS1_10custom_tagE
FNA:111,1,_ZN3fmt3v126detail5valueINS0_7contextEEC2I18movable_iter_rangeLi0EEERT_NS1_10custom_tagE
FNA:111,1,_ZN3fmt3v126detail5valueINS0_7contextEEC2I19check_back_appenderLi0EEERT_NS1_10custom_tagE
FNA:111,2,_ZN3fmt3v126detail5valueINS0_7contextEEC2I20non_const_only_rangeIiELi0EEERT_NS1_10custom_tagE
FNA:111,1,_ZN3fmt3v126detail5valueINS0_7contextEEC2I20nonconst_formattableLi0EEERT_NS1_10custom_tagE
FNA:111,1,_ZN3fmt3v126detail5valueINS0_7contextEEC2I22convertible_to_cstringLi0EEERT_NS1_10custom_tagE
FNA:111,1,_ZN3fmt3v126detail5valueINS0_7contextEEC2I26lvalue_qualified_begin_endLi0EEERT_NS1_10custom_tagE
FNA:111,20565,_ZN3fmt3v126detail5valueINS0_7contextEEC2I2tmLi0EEERT_NS1_10custom_tagE
FNA:111,1,_ZN3fmt3v126detail5valueINS0_7contextEEC2I30convertible_to_std_string_viewLi0EEERT_NS1_10custom_tagE
FNA:111,1,_ZN3fmt3v126detail5valueINS0_7contextEEC2I31convertible_to_nonconst_cstringLi0EEERT_NS1_10custom_tagE
FNA:111,1,_ZN3fmt3v126detail5valueINS0_7contextEEC2I37convertible_to_any_type_with_member_xLi0EEERT_NS1_10custom_tagE
FNA:111,1,_ZN3fmt3v126detail5valueINS0_7contextEEC2I41explicitly_convertible_to_std_string_viewLi0EEERT_NS1_10custom_tagE
FNA:111,2,_ZN3fmt3v126detail5valueINS0_7contextEEC2I4dateLi0EEERT_NS1_10custom_tagE
FNA:111,1,_ZN3fmt3v126detail5valueINS0_7contextEEC2I5pointLi0EEERT_NS1_10custom_tagE
FNA:111,6,_ZN3fmt3v126detail5valueINS0_7contextEEC2I6AnswerLi0EEERT_NS1_10custom_tagE
FNA:111,1,_ZN3fmt3v126detail5valueINS0_7contextEEC2I7tieableLi0EEERT_NS1_10custom_tagE
FNA:111,1,_ZN3fmt3v126detail5valueINS0_7contextEEC2I7ustringLi0EEERT_NS1_10custom_tagE
FNA:111,2,_ZN3fmt3v126detail5valueINS0_7contextEEC2I7zstringLi0EEERT_NS1_10custom_tagE
FNA:111,1,_ZN3fmt3v126detail5valueINS0_7contextEEC2I8flat_setINSt3__112basic_stringIcNS7_11char_traitsIcEENS7_9allocatorIcEEEEELi0EEERT_NS1_10custom_tagE
FNA:111,3,_ZN3fmt3v126detail5valueINS0_7contextEEC2IA2_PKcLi0EEERT_NS1_10custom_tagE
FNA:111,1,_ZN3fmt3v126detail5valueINS0_7contextEEC2IA3_A2_iLi0EEERT_NS1_10custom_tagE
FNA:111,1,_ZN3fmt3v126detail5valueINS0_7contextEEC2IA6_iLi0EEERT_NS1_10custom_tagE
FNA:111,6,_ZN3fmt3v126detail5valueINS0_7contextEEC2IK11custom_typeLi0EEERT_NS1_10custom_tagE
FNA:111,2,_ZN3fmt3v126detail5valueINS0_7contextEEC2IK13to_stringableLi0EEERT_NS1_10custom_tagE
FNA:111,1,_ZN3fmt3v126detail5valueINS0_7contextEEC2IK13vector_stringLi0EEERT_NS1_10custom_tagE
FNA:111,0,_ZN3fmt3v126detail5valueINS0_7contextEEC2IK14copy_throwableLi0EEERT_NS1_10custom_tagE
FNA:111,1,_ZN3fmt3v126detail5valueINS0_7contextEEC2IK15incomplete_typeLi0EEERT_NS1_10custom_tagE
FNA:111,1,_ZN3fmt3v126detail5valueINS0_7contextEEC2IK19vector_debug_stringLi0EEERT_NS1_10custom_tagE
FNA:111,6,_ZN3fmt3v126detail5valueINS0_7contextEEC2IK2tmLi0EEERT_NS1_10custom_tagE
FNA:111,1,_ZN3fmt3v126detail5valueINS0_7contextEEC2IK34convertible_to_pointer_formattableLi0EEERT_NS1_10custom_tagE
FNA:111,2,_ZN3fmt3v126detail5valueINS0_7contextEEC2IK6AnswerLi0EEERT_NS1_10custom_tagE
FNA:111,0,_ZN3fmt3v126detail5valueINS0_7contextEEC2IK8abstractLi0EEERT_NS1_10custom_tagE
FNA:111,1,_ZN3fmt3v126detail5valueINS0_7contextEEC2IKNSt3__112system_errorELi0EEERT_NS1_10custom_tagE
FNA:111,1,_ZN3fmt3v126detail5valueINS0_7contextEEC2IKNSt3__15stackIiNS6_5dequeIiNS6_9allocatorIiEEEEEELi0EEERT_NS1_10custom_tagE
FNA:111,1,_ZN3fmt3v126detail5valueINS0_7contextEEC2IKNSt3__16atomicIbEELi0EEERT_NS1_10custom_tagE
FNA:111,3,_ZN3fmt3v126detail5valueINS0_7contextEEC2IKNSt3__16chrono8durationIxNS6_5ratioILl1ELl1000EEEEELi0EEERT_NS1_10custom_tagE
FNA:111,7,_ZN3fmt3v126detail5valueINS0_7contextEEC2IKNSt3__16chrono8durationIxNS6_5ratioILl1ELl1EEEEELi0EEERT_NS1_10custom_tagE
FNA:111,1,_ZN3fmt3v126detail5valueINS0_7contextEEC2IKNSt3__16vectorIiNS6_9allocatorIiEEEELi0EEERT_NS1_10custom_tagE
FNA:111,2,_ZN3fmt3v126detail5valueINS0_7contextEEC2IKSt13runtime_errorLi0EEERT_NS1_10custom_tagE
FNA:111,4,_ZN3fmt3v126detail5valueINS0_7contextEEC2IKSt9exceptionLi0EEERT_NS1_10custom_tagE
FNA:111,1,_ZN3fmt3v126detail5valueINS0_7contextEEC2IKSt9type_infoLi0EEERT_NS1_10custom_tagE
FNA:111,1,_ZN3fmt3v126detail5valueINS0_7contextEEC2IN3adl3boxELi0EEERT_NS1_10custom_tagE
FNA:111,1,_ZN3fmt3v126detail5valueINS0_7contextEEC2IN4test21scoped_enum_as_stringELi0EEERT_NS1_10custom_tagE
FNA:111,1,_ZN3fmt3v126detail5valueINS0_7contextEEC2IN4test25struct_as_const_referenceELi0EEERT_NS1_10custom_tagE
FNA:111,1,_ZN3fmt3v126detail5valueINS0_7contextEEC2IN4test26scoped_enum_as_string_viewELi0EEERT_NS1_10custom_tagE
FNA:111,2,_ZN3fmt3v126detail5valueINS0_7contextEEC2IN8fmt_test3abcELi0EEERT_NS1_10custom_tagE
FNA:111,2,_ZN3fmt3v126detail5valueINS0_7contextEEC2INS0_11nested_viewIdcEELi0EEERT_NS1_10custom_tagE
FNA:111,4,_ZN3fmt3v126detail5valueINS0_7contextEEC2INS0_14year_month_dayELi0EEERT_NS1_10custom_tagE
FNA:111,1,_ZN3fmt3v126detail5valueINS0_7contextEEC2INS0_15tuple_join_viewI10tuple_likecEELi0EEERT_NS1_10custom_tagE
FNA:111,1,_ZN3fmt3v126detail5valueINS0_7contextEEC2INS0_15tuple_join_viewINSt3__15tupleIJEEEcEELi0EEERT_NS1_10custom_tagE
FNA:111,1,_ZN3fmt3v126detail5valueINS0_7contextEEC2INS0_15tuple_join_viewINSt3__15tupleIJcRiEEEcEELi0EEERT_NS1_10custom_tagE
FNA:111,1,_ZN3fmt3v126detail5valueINS0_7contextEEC2INS0_15tuple_join_viewINSt3__15tupleIJcifEEEcEELi0EEERT_NS1_10custom_tagE
FNA:111,1,_ZN3fmt3v126detail5valueINS0_7contextEEC2INS0_15tuple_join_viewINSt3__15tupleIJfEEEcEELi0EEERT_NS1_10custom_tagE
FNA:111,5,_ZN3fmt3v126detail5valueINS0_7contextEEC2INS0_17group_digits_viewIiEELi0EEERT_NS1_10custom_tagE
FNA:111,2,_ZN3fmt3v126detail5valueINS0_7contextEEC2INS0_3dayELi0EEERT_NS1_10custom_tagE
FNA:111,3,_ZN3fmt3v126detail5valueINS0_7contextEEC2INS0_4yearELi0EEERT_NS1_10custom_tagE
FNA:111,1,_ZN3fmt3v126detail5valueINS0_7contextEEC2INS0_5bytesELi0EEERT_NS1_10custom_tagE
FNA:111,6,_ZN3fmt3v126detail5valueINS0_7contextEEC2INS0_5monthELi0EEERT_NS1_10custom_tagE
FNA:111,6,_ZN3fmt3v126detail5valueINS0_7contextEEC2INS0_7weekdayELi0EEERT_NS1_10custom_tagE
FNA:111,1,_ZN3fmt3v126detail5valueINS0_7contextEEC2INS0_9join_viewI28noncopyable_istream_iteratorNSt3__116istream_iteratorIicNS8_11char_traitsIcEElEEcEELi0EEERT_NS1_10custom_tagE
FNA:111,1,_ZN3fmt3v126detail5valueINS0_7contextEEC2INS0_9join_viewINSt3__111__wrap_iterIP17basic_test_stringIcEEESC_cEELi0EEERT_NS1_10custom_tagE
FNA:111,1,_ZN3fmt3v126detail5valueINS0_7contextEEC2INS0_9join_viewINSt3__111__wrap_iterIP9test_enumEESB_cEELi0EEERT_NS1_10custom_tagE
FNA:111,3,_ZN3fmt3v126detail5valueINS0_7contextEEC2INS0_9join_viewINSt3__111__wrap_iterIPKiEESB_cEELi0EEERT_NS1_10custom_tagE
FNA:111,2,_ZN3fmt3v126detail5valueINS0_7contextEEC2INS0_9join_viewINSt3__111__wrap_iterIPfEESA_cEELi0EEERT_NS1_10custom_tagE
FNA:111,4,_ZN3fmt3v126detail5valueINS0_7contextEEC2INS0_9join_viewINSt3__111__wrap_iterIPiEESA_cEELi0EEERT_NS1_10custom_tagE
FNA:111,1,_ZN3fmt3v126detail5valueINS0_7contextEEC2INS0_9join_viewINSt3__116istream_iteratorIicNS7_11char_traitsIcEElEESB_cEELi0EEERT_NS1_10custom_tagE
FNA:111,1,_ZN3fmt3v126detail5valueINS0_7contextEEC2INS0_9join_viewIPKPKcSA_cEELi0EEERT_NS1_10custom_tagE
FNA:111,1,_ZN3fmt3v126detail5valueINS0_7contextEEC2INS0_9join_viewIPKc16zstring_sentinelcEELi0EEERT_NS1_10custom_tagE
FNA:111,3,_ZN3fmt3v126detail5valueINS0_7contextEEC2INS0_9join_viewIPKiS8_cEELi0EEERT_NS1_10custom_tagE
FNA:111,1,_ZN3fmt3v126detail5valueINS0_7contextEEC2INS0_9join_viewIPPvS8_cEELi0EEERT_NS1_10custom_tagE
FNA:111,6,_ZN3fmt3v126detail5valueINS0_7contextEEC2INS0_9join_viewIPiS7_cEELi0EEERT_NS1_10custom_tagE
FNA:111,3,_ZN3fmt3v126detail5valueINS0_7contextEEC2INS1_10styled_argIA4_cEELi0EEERT_NS1_10custom_tagE
FNA:111,1,_ZN3fmt3v126detail5valueINS0_7contextEEC2INS1_10styled_argIA5_cEELi0EEERT_NS1_10custom_tagE
FNA:111,1,_ZN3fmt3v126detail5valueINS0_7contextEEC2INS1_13streamed_viewI28streamable_and_unformattableEELi0EEERT_NS1_10custom_tagE
FNA:111,7,_ZN3fmt3v126detail5valueINS0_7contextEEC2INSt3__110error_codeELi0EEERT_NS1_10custom_tagE
FNA:111,1,_ZN3fmt3v126detail5valueINS0_7contextEEC2INSt3__111__thread_idELi0EEERT_NS1_10custom_tagE
FNA:111,1,_ZN3fmt3v126detail5valueINS0_7contextEEC2INSt3__114priority_queueIiNS6_6vectorIiNS6_9allocatorIiEEEENS6_4lessIiEEEELi0EEERT_NS1_10custom_tagE
FNA:111,2,_ZN3fmt3v126detail5valueINS0_7contextEEC2INSt3__115__bit_referenceINS6_6vectorIbNS6_9allocatorIbEEEELb1EEELi0EEERT_NS1_10custom_tagE
FNA:111,2,_ZN3fmt3v126detail5valueINS0_7contextEEC2INSt3__115__bit_referenceINS6_8__bitsetILm1ELm2EEELb1EEELi0EEERT_NS1_10custom_tagE
FNA:111,1,_ZN3fmt3v126detail5valueINS0_7contextEEC2INSt3__117reference_wrapperI26type_with_format_as_stringEELi0EEERT_NS1_10custom_tagE
FNA:111,1,_ZN3fmt3v126detail5valueINS0_7contextEEC2INSt3__117reference_wrapperIK26type_with_format_as_stringEELi0EEERT_NS1_10custom_tagE
FNA:111,1,_ZN3fmt3v126detail5valueINS0_7contextEEC2INSt3__117reference_wrapperIKiEELi0EEERT_NS1_10custom_tagE
FNA:111,1,_ZN3fmt3v126detail5valueINS0_7contextEEC2INSt3__117reference_wrapperIiEELi0EEERT_NS1_10custom_tagE
FNA:111,2,_ZN3fmt3v126detail5valueINS0_7contextEEC2INSt3__121__bit_const_referenceINS6_6vectorIbNS6_9allocatorIbEEEEEELi0EEERT_NS1_10custom_tagE
FNA:111,2,_ZN3fmt3v126detail5valueINS0_7contextEEC2INSt3__121__bit_const_referenceINS6_8__bitsetILm1ELm2EEEEELi0EEERT_NS1_10custom_tagE
FNA:111,1,_ZN3fmt3v126detail5valueINS0_7contextEEC2INSt3__13mapINS6_10error_codeEiNS6_4lessIS8_EENS6_9allocatorINS6_4pairIKS8_iEEEEEELi0EEERT_NS1_10custom_tagE
FNA:111,2,_ZN3fmt3v126detail5valueINS0_7contextEEC2INSt3__13mapINS6_12basic_stringIcNS6_11char_traitsIcEENS6_9allocatorIcEEEEiNS6_4lessISD_EENSB_INS6_4pairIKSD_iEEEEEELi0EEERT_NS1_10custom_tagE
FNA:111,1,_ZN3fmt3v126detail5valueINS0_7contextEEC2INSt3__13mapIi14test_map_valueNS6_4lessIiEENS6_9allocatorINS6_4pairIKiS8_EEEEEELi0EEERT_NS1_10custom_tagE
FNA:111,1,_ZN3fmt3v126detail5valueINS0_7contextEEC2INSt3__13setINS6_12basic_stringIcNS6_11char_traitsIcEENS6_9allocatorIcEEEENS6_4lessISD_EENSB_ISD_EEEELi0EEERT_NS1_10custom_tagE
FNA:111,3,_ZN3fmt3v126detail5valueINS0_7contextEEC2INSt3__14pairIifEELi0EEERT_NS1_10custom_tagE
FNA:111,1,_ZN3fmt3v126detail5valueINS0_7contextEEC2INSt3__15queueIiNS6_5dequeIiNS6_9allocatorIiEEEEEELi0EEERT_NS1_10custom_tagE
FNA:111,1,_ZN3fmt3v126detail5valueINS0_7contextEEC2INSt3__15stackIcNS6_12basic_stringIcNS6_11char_traitsIcEENS6_9allocatorIcEEEEEELi0EEERT_NS1_10custom_tagE
FNA:111,1,_ZN3fmt3v126detail5valueINS0_7contextEEC2INSt3__15stackIiNS6_5dequeIiNS6_9allocatorIiEEEEEELi0EEERT_NS1_10custom_tagE
FNA:111,1,_ZN3fmt3v126detail5valueINS0_7contextEEC2INSt3__15tupleIJEEELi0EEERT_NS1_10custom_tagE
FNA:111,2,_ZN3fmt3v126detail5valueINS0_7contextEEC2INSt3__15tupleIJifNS6_12basic_stringIcNS6_11char_traitsIcEENS6_9allocatorIcEEEEcEEELi0EEERT_NS1_10custom_tagE
FNA:111,1,_ZN3fmt3v126detail5valueINS0_7contextEEC2INSt3__16atomicIbEELi0EEERT_NS1_10custom_tagE
FNA:111,3,_ZN3fmt3v126detail5valueINS0_7contextEEC2INSt3__16bitsetILm6EEELi0EEERT_NS1_10custom_tagE
FNA:111,60,_ZN3fmt3v126detail5valueINS0_7contextEEC2INSt3__16chrono10time_pointINS1_7local_tENS7_8durationIxNS6_5ratioILl1ELl1EEEEEEELi0EEERT_NS1_10custom_tagE
FNA:111,2,_ZN3fmt3v126detail5valueINS0_7contextEEC2INSt3__16chrono10time_pointINS7_12system_clockENS7_8durationIdNS6_5ratioILl1ELl1EEEEEEELi0EEERT_NS1_10custom_tagE
FNA:111,1,_ZN3fmt3v126detail5valueINS0_7contextEEC2INSt3__16chrono10time_pointINS7_12system_clockENS7_8durationIdNS6_5ratioILl1ELl3EEEEEEELi0EEERT_NS1_10custom_tagE
FNA:111,1,_ZN3fmt3v126detail5valueINS0_7contextEEC2INSt3__16chrono10time_pointINS7_12system_clockENS7_8durationIiNS6_5ratioILl63ELl1EEEEEEELi0EEERT_NS1_10custom_tagE
FNA:111,1,_ZN3fmt3v126detail5valueINS0_7contextEEC2INSt3__16chrono10time_pointINS7_12system_clockENS7_8durationIiNS6_5ratioILl9ELl1EEEEEEELi0EEERT_NS1_10custom_tagE
FNA:111,1,_ZN3fmt3v126detail5valueINS0_7contextEEC2INSt3__16chrono10time_pointINS7_12system_clockENS7_8durationIlNS6_5ratioILl60ELl1EEEEEEELi0EEERT_NS1_10custom_tagE
FNA:111,2,_ZN3fmt3v126detail5valueINS0_7contextEEC2INSt3__16chrono10time_pointINS7_12system_clockENS7_8durationIxNS6_5ratioILl1ELl1000000000EEEEEEELi0EEERT_NS1_10custom_tagE
FNA:111,10,_ZN3fmt3v126detail5valueINS0_7contextEEC2INSt3__16chrono10time_pointINS7_12system_clockENS7_8durationIxNS6_5ratioILl1ELl1000000EEEEEEELi0EEERT_NS1_10custom_tagE
FNA:111,7,_ZN3fmt3v126detail5valueINS0_7contextEEC2INSt3__16chrono10time_pointINS7_12system_clockENS7_8durationIxNS6_5ratioILl1ELl1000EEEEEEELi0EEERT_NS1_10custom_tagE
FNA:111,63,_ZN3fmt3v126detail5valueINS0_7contextEEC2INSt3__16chrono10time_pointINS7_12system_clockENS7_8durationIxNS6_5ratioILl1ELl1EEEEEEELi0EEERT_NS1_10custom_tagE
FNA:111,1,_ZN3fmt3v126detail5valueINS0_7contextEEC2INSt3__16chrono10time_pointINS7_12system_clockENS7_8durationIxNS6_5ratioILl1ELl3EEEEEEELi0EEERT_NS1_10custom_tagE
FNA:111,1,_ZN3fmt3v126detail5valueINS0_7contextEEC2INSt3__16chrono10time_pointINS7_12system_clockENS7_8durationIxNS6_5ratioILl31556952ELl1EEEEEEELi0EEERT_NS1_10custom_tagE
FNA:111,1,_ZN3fmt3v126detail5valueINS0_7contextEEC2INSt3__16chrono8durationIaNS6_5ratioILl1ELl1000EEEEELi0EEERT_NS1_10custom_tagE
FNA:111,1,_ZN3fmt3v126detail5valueINS0_7contextEEC2INSt3__16chrono8durationIaNS6_5ratioILl1ELl100EEEEELi0EEERT_NS1_10custom_tagE
FNA:111,2,_ZN3fmt3v126detail5valueINS0_7contextEEC2INSt3__16chrono8durationIcNS6_5ratioILl1000000ELl1EEEEELi0EEERT_NS1_10custom_tagE
FNA:111,7,_ZN3fmt3v126detail5valueINS0_7contextEEC2INSt3__16chrono8durationIdNS6_5ratioILl1ELl1000000000EEEEELi0EEERT_NS1_10custom_tagE
FNA:111,38,_ZN3fmt3v126detail5valueINS0_7contextEEC2INSt3__16chrono8durationIdNS6_5ratioILl1ELl1000EEEEELi0EEERT_NS1_10custom_tagE
FNA:111,10,_ZN3fmt3v126detail5valueINS0_7contextEEC2INSt3__16chrono8durationIdNS6_5ratioILl1ELl1EEEEELi0EEERT_NS1_10custom_tagE
FNA:111,1,_ZN3fmt3v126detail5valueINS0_7contextEEC2INSt3__16chrono8durationIfNS6_5ratioILl1000000000000000000ELl1EEEEELi0EEERT_NS1_10custom_tagE
FNA:111,1,_ZN3fmt3v126detail5valueINS0_7contextEEC2INSt3__16chrono8durationIfNS6_5ratioILl1ELl1000000000000000000EEEEELi0EEERT_NS1_10custom_tagE
FNA:111,1,_ZN3fmt3v126detail5valueINS0_7contextEEC2INSt3__16chrono8durationIfNS6_5ratioILl1ELl1000000000000EEEEELi0EEERT_NS1_10custom_tagE
FNA:111,2,_ZN3fmt3v126detail5valueINS0_7contextEEC2INSt3__16chrono8durationIfNS6_5ratioILl1ELl1000EEEEELi0EEERT_NS1_10custom_tagE
FNA:111,2,_ZN3fmt3v126detail5valueINS0_7contextEEC2INSt3__16chrono8durationIfNS6_5ratioILl1ELl1EEEEELi0EEERT_NS1_10custom_tagE
FNA:111,1,_ZN3fmt3v126detail5valueINS0_7contextEEC2INSt3__16chrono8durationIiNS6_5ratioILl1000000000000000000ELl1EEEEELi0EEERT_NS1_10custom_tagE
FNA:111,1,_ZN3fmt3v126detail5valueINS0_7contextEEC2INSt3__16chrono8durationIiNS6_5ratioILl1000000000000000ELl1EEEEELi0EEERT_NS1_10custom_tagE
FNA:111,1,_ZN3fmt3v126detail5valueINS0_7contextEEC2INSt3__16chrono8durationIiNS6_5ratioILl1000000000000ELl1EEEEELi0EEERT_NS1_10custom_tagE
FNA:111,1,_ZN3fmt3v126detail5valueINS0_7contextEEC2INSt3__16chrono8durationIiNS6_5ratioILl1000000000ELl1EEEEELi0EEERT_NS1_10custom_tagE
FNA:111,1,_ZN3fmt3v126detail5valueINS0_7contextEEC2INSt3__16chrono8durationIiNS6_5ratioILl1000000ELl1EEEEELi0EEERT_NS1_10custom_tagE
FNA:111,1,_ZN3fmt3v126detail5valueINS0_7contextEEC2INSt3__16chrono8durationIiNS6_5ratioILl1000ELl1EEEEELi0EEERT_NS1_10custom_tagE
FNA:111,1,_ZN3fmt3v126detail5valueINS0_7contextEEC2INSt3__16chrono8durationIiNS6_5ratioILl100ELl1EEEEELi0EEERT_NS1_10custom_tagE
FNA:111,1,_ZN3fmt3v126detail5valueINS0_7contextEEC2INSt3__16chrono8durationIiNS6_5ratioILl10ELl1EEEEELi0EEERT_NS1_10custom_tagE
FNA:111,1,_ZN3fmt3v126detail5valueINS0_7contextEEC2INSt3__16chrono8durationIiNS6_5ratioILl15ELl1EEEEELi0EEERT_NS1_10custom_tagE
FNA:111,1,_ZN3fmt3v126detail5valueINS0_7contextEEC2INSt3__16chrono8durationIiNS6_5ratioILl15ELl4EEEEELi0EEERT_NS1_10custom_tagE
FNA:111,1,_ZN3fmt3v126detail5valueINS0_7contextEEC2INSt3__16chrono8durationIiNS6_5ratioILl1ELl1000000000000000000EEEEELi0EEERT_NS1_10custom_tagE
FNA:111,1,_ZN3fmt3v126detail5valueINS0_7contextEEC2INSt3__16chrono8durationIiNS6_5ratioILl1ELl1000000000000000EEEEELi0EEERT_NS1_10custom_tagE
FNA:111,1,_ZN3fmt3v126detail5valueINS0_7contextEEC2INSt3__16chrono8durationIiNS6_5ratioILl1ELl1000000000000EEEEELi0EEERT_NS1_10custom_tagE
FNA:111,1,_ZN3fmt3v126detail5valueINS0_7contextEEC2INSt3__16chrono8durationIiNS6_5ratioILl1ELl100EEEEELi0EEERT_NS1_10custom_tagE
FNA:111,1,_ZN3fmt3v126detail5valueINS0_7contextEEC2INSt3__16chrono8durationIiNS6_5ratioILl1ELl10EEEEELi0EEERT_NS1_10custom_tagE
FNA:111,1,_ZN3fmt3v126detail5valueINS0_7contextEEC2INSt3__16chrono8durationIiNS6_5ratioILl1ELl1EEEEELi0EEERT_NS1_10custom_tagE
FNA:111,1,_ZN3fmt3v126detail5valueINS0_7contextEEC2INSt3__16chrono8durationIjNS6_5ratioILl1ELl1EEEEELi0EEERT_NS1_10custom_tagE
FNA:111,11,_ZN3fmt3v126detail5valueINS0_7contextEEC2INSt3__16chrono8durationIlNS6_5ratioILl3600ELl1EEEEELi0EEERT_NS1_10custom_tagE
FNA:111,5,_ZN3fmt3v126detail5valueINS0_7contextEEC2INSt3__16chrono8durationIlNS6_5ratioILl60ELl1EEEEELi0EEERT_NS1_10custom_tagE
FNA:111,3,_ZN3fmt3v126detail5valueINS0_7contextEEC2INSt3__16chrono8durationIlNS6_5ratioILl86400ELl1EEEEELi0EEERT_NS1_10custom_tagE
FNA:111,1,_ZN3fmt3v126detail5valueINS0_7contextEEC2INSt3__16chrono8durationImNS6_5ratioILl1000000000ELl1EEEEELi0EEERT_NS1_10custom_tagE
FNA:111,1,_ZN3fmt3v126detail5valueINS0_7contextEEC2INSt3__16chrono8durationIsNS6_5ratioILl1ELl100EEEEELi0EEERT_NS1_10custom_tagE
FNA:111,3,_ZN3fmt3v126detail5valueINS0_7contextEEC2INSt3__16chrono8durationIxNS6_5ratioILl1ELl1000000000000000000EEEEELi0EEERT_NS1_10custom_tagE
FNA:111,6,_ZN3fmt3v126detail5valueINS0_7contextEEC2INSt3__16chrono8durationIxNS6_5ratioILl1ELl1000000000EEEEELi0EEERT_NS1_10custom_tagE
FNA:111,2,_ZN3fmt3v126detail5valueINS0_7contextEEC2INSt3__16chrono8durationIxNS6_5ratioILl1ELl1000000EEEEELi0EEERT_NS1_10custom_tagE
FNA:111,15,_ZN3fmt3v126detail5valueINS0_7contextEEC2INSt3__16chrono8durationIxNS6_5ratioILl1ELl1000EEEEELi0EEERT_NS1_10custom_tagE
FNA:111,54,_ZN3fmt3v126detail5valueINS0_7contextEEC2INSt3__16chrono8durationIxNS6_5ratioILl1ELl1EEEEELi0EEERT_NS1_10custom_tagE
FNA:111,1,_ZN3fmt3v126detail5valueINS0_7contextEEC2INSt3__16chrono8durationIxNS6_5ratioILl1ELl3EEEEELi0EEERT_NS1_10custom_tagE
FNA:111,1,_ZN3fmt3v126detail5valueINS0_7contextEEC2INSt3__16chrono8durationIxNS6_5ratioILl1ELl7EEEEELi0EEERT_NS1_10custom_tagE
FNA:111,1,_ZN3fmt3v126detail5valueINS0_7contextEEC2INSt3__16vectorI17basic_test_stringIcENS6_9allocatorIS9_EEEELi0EEERT_NS1_10custom_tagE
FNA:111,1,_ZN3fmt3v126detail5valueINS0_7contextEEC2INSt3__16vectorI9test_enumNS6_9allocatorIS8_EEEELi0EEERT_NS1_10custom_tagE
FNA:111,11,_ZN3fmt3v126detail5valueINS0_7contextEEC2INSt3__16vectorINS6_12basic_stringIcNS6_11char_traitsIcEENS6_9allocatorIcEEEENSB_ISD_EEEELi0EEERT_NS1_10custom_tagE
FNA:111,6,_ZN3fmt3v126detail5valueINS0_7contextEEC2INSt3__16vectorINS7_IcNS6_9allocatorIcEEEENS8_ISA_EEEELi0EEERT_NS1_10custom_tagE
FNA:111,4,_ZN3fmt3v126detail5valueINS0_7contextEEC2INSt3__16vectorINS7_IiNS6_9allocatorIiEEEENS8_ISA_EEEELi0EEERT_NS1_10custom_tagE
FNA:111,6,_ZN3fmt3v126detail5valueINS0_7contextEEC2INSt3__16vectorIcNS6_9allocatorIcEEEELi0EEERT_NS1_10custom_tagE
FNA:111,7,_ZN3fmt3v126detail5valueINS0_7contextEEC2INSt3__16vectorIiNS6_9allocatorIiEEEELi0EEERT_NS1_10custom_tagE
FNA:111,18,_ZN3fmt3v126detail5valueINS0_7contextEEC2INSt3__17complexIdEELi0EEERT_NS1_10custom_tagE
FNA:111,1,_ZN3fmt3v126detail5valueINS0_7contextEEC2INSt3__17complexIiEELi0EEERT_NS1_10custom_tagE
FNA:111,1,_ZN3fmt3v126detail5valueINS0_7contextEEC2IZN34ranges_test_container_adaptor_Test8TestBodyEvE20my_container_adaptorLi0EEERT_NS1_10custom_tagE
FNL:112,2314,2323
FNA:112,1,_ZN3fmt3v126detail5valueINS0_15generic_contextINS0_14basic_appenderIwEEwEEE13format_customI15streamable_enumEEvPvRNS0_13parse_contextIwEERS6_
FNA:112,2,_ZN3fmt3v126detail5valueINS0_15generic_contextINS0_14basic_appenderIwEEwEEE13format_customI2tmEEvPvRNS0_13parse_contextIwEERS6_
FNA:112,1,_ZN3fmt3v126detail5valueINS0_15generic_contextINS0_14basic_appenderIwEEwEEE13format_customIN4test22struct_as_wstring_viewEEEvPvRNS0_13parse_contextIwEERS6_
FNA:112,1,_ZN3fmt3v126detail5valueINS0_15generic_contextINS0_14basic_appenderIwEEwEEE13format_customINS0_15tuple_join_viewINSt3__15tupleIJwifEEEwEEEEvPvRNS0_13parse_contextIwEERS6_
FNA:112,2,_ZN3fmt3v126detail5valueINS0_15generic_contextINS0_14basic_appenderIwEEwEEE13format_customINS0_7weekdayEEEvPvRNS0_13parse_contextIwEERS6_
FNA:112,1,_ZN3fmt3v126detail5valueINS0_15generic_contextINS0_14basic_appenderIwEEwEEE13format_customINS0_9join_viewIPiSA_wEEEEvPvRNS0_13parse_contextIwEERS6_
FNA:112,1,_ZN3fmt3v126detail5valueINS0_15generic_contextINS0_14basic_appenderIwEEwEEE13format_customINS1_13streamed_viewI28streamable_and_unformattableEEEEvPvRNS0_13parse_contextIwEERS6_
FNA:112,1,_ZN3fmt3v126detail5valueINS0_15generic_contextINS0_14basic_appenderIwEEwEEE13format_customINSt3__13mapINS9_12basic_stringIwNS9_11char_traitsIwEENS9_9allocatorIwEEEEiNS9_4lessISG_EENSE_INS9_4pairIKSG_iEEEEEEEEvPvRNS0_13parse_contextIwEERS6_
FNA:112,3,_ZN3fmt3v126detail5valueINS0_15generic_contextINS0_14basic_appenderIwEEwEEE13format_customINSt3__16bitsetILm6EEEEEvPvRNS0_13parse_contextIwEERS6_
FNA:112,2,_ZN3fmt3v126detail5valueINS0_15generic_contextINS0_14basic_appenderIwEEwEEE13format_customINSt3__16chrono8durationIxNS9_5ratioILl1ELl1EEEEEEEvPvRNS0_13parse_contextIwEERS6_
FNA:112,2,_ZN3fmt3v126detail5valueINS0_15generic_contextINS0_14basic_appenderIwEEwEEE13format_customINSt3__16vectorINS9_12basic_stringIwNS9_11char_traitsIwEENS9_9allocatorIwEEEENSE_ISG_EEEEEEvPvRNS0_13parse_contextIwEERS6_
FNA:112,4,_ZN3fmt3v126detail5valueINS0_15generic_contextINS0_14basic_appenderIwEEwEEE13format_customINSt3__17complexIdEEEEvPvRNS0_13parse_contextIwEERS6_
FNA:112,1,_ZN3fmt3v126detail5valueINS0_7contextEE13format_customI10empty_testEEvPvRNS0_13parse_contextIcEERS3_
FNA:112,1,_ZN3fmt3v126detail5valueINS0_7contextEE13format_customI10tuple_likeEEvPvRNS0_13parse_contextIcEERS3_
FNA:112,6,_ZN3fmt3v126detail5valueINS0_7contextEE13format_customI11custom_typeEEvPvRNS0_13parse_contextIcEERS3_
FNA:112,2,_ZN3fmt3v126detail5valueINS0_7contextEE13format_customI11test_structEEvPvRNS0_13parse_contextIcEERS3_
FNA:112,1,_ZN3fmt3v126detail5valueINS0_7contextEE13format_customI11unlocalizedEEvPvRNS0_13parse_contextIcEERS3_
FNA:112,1,_ZN3fmt3v126detail5valueINS0_7contextEE13format_customI12copyfmt_testEEvPvRNS0_13parse_contextIcEERS3_
FNA:112,100,_ZN3fmt3v126detail5valueINS0_7contextEE13format_customI12deadlockableEEvPvRNS0_13parse_contextIcEERS3_
FNA:112,1,_ZN3fmt3v126detail5valueINS0_7contextEE13format_customI12fmt_ref_viewINSt3__16vectorINS8_IiNS7_9allocatorIiEEEENS9_ISB_EEEEEEEvPvRNS0_13parse_contextIcEERS3_
FNA:112,1,_ZN3fmt3v126detail5valueINS0_7contextEE13format_customI13test_templateIiEEEvPvRNS0_13parse_contextIcEERS3_
FNA:112,0,_ZN3fmt3v126detail5valueINS0_7contextEE13format_customI13to_stringableEEvPvRNS0_13parse_contextIcEERS3_
FNA:112,1,_ZN3fmt3v126detail5valueINS0_7contextEE13format_customI13type_with_getEEvPvRNS0_13parse_contextIcEERS3_
FNA:112,1,_ZN3fmt3v126detail5valueINS0_7contextEE13format_customI13vector_stringEEvPvRNS0_13parse_contextIcEERS3_
FNA:112,0,_ZN3fmt3v126detail5valueINS0_7contextEE13format_customI14copy_throwableEEvPvRNS0_13parse_contextIcEERS3_
FNA:112,1,_ZN3fmt3v126detail5valueINS0_7contextEE13format_customI15incomplete_typeEEvPvRNS0_13parse_contextIcEERS3_
FNA:112,1,_ZN3fmt3v126detail5valueINS0_7contextEE13format_customI15streamable_enumEEvPvRNS0_13parse_contextIcEERS3_
FNA:112,1,_ZN3fmt3v126detail5valueINS0_7contextEE13format_customI15string_viewableEEvPvRNS0_13parse_contextIcEERS3_
FNA:112,15,_ZN3fmt3v126detail5valueINS0_7contextEE13format_customI17basic_test_stringIcEEEvPvRNS0_13parse_contextIcEERS3_
FNA:112,2,_ZN3fmt3v126detail5valueINS0_7contextEE13format_customI17noncopyable_rangeIiEEEvPvRNS0_13parse_contextIcEERS3_
FNA:112,1,_ZN3fmt3v126detail5valueINS0_7contextEE13format_customI18convertible_to_intEEvPvRNS0_13parse_contextIcEERS3_
FNA:112,1,_ZN3fmt3v126detail5valueINS0_7contextEE13format_customI18movable_iter_rangeEEvPvRNS0_13parse_contextIcEERS3_
FNA:112,1,_ZN3fmt3v126detail5valueINS0_7contextEE13format_customI19check_back_appenderEEvPvRNS0_13parse_contextIcEERS3_
FNA:112,1,_ZN3fmt3v126detail5valueINS0_7contextEE13format_customI19vector_debug_stringEEvPvRNS0_13parse_contextIcEERS3_
FNA:112,2,_ZN3fmt3v126detail5valueINS0_7contextEE13format_customI20non_const_only_rangeIiEEEvPvRNS0_13parse_contextIcEERS3_
FNA:112,1,_ZN3fmt3v126detail5valueINS0_7contextEE13format_customI20nonconst_formattableEEvPvRNS0_13parse_contextIcEERS3_
FNA:112,1,_ZN3fmt3v126detail5valueINS0_7contextEE13format_customI22convertible_to_cstringEEvPvRNS0_13parse_contextIcEERS3_
FNA:112,1,_ZN3fmt3v126detail5valueINS0_7contextEE13format_customI26lvalue_qualified_begin_endEEvPvRNS0_13parse_contextIcEERS3_
FNA:112,20571,_ZN3fmt3v126detail5valueINS0_7contextEE13format_customI2tmEEvPvRNS0_13parse_contextIcEERS3_
FNA:112,1,_ZN3fmt3v126detail5valueINS0_7contextEE13format_customI30convertible_to_std_string_viewEEvPvRNS0_13parse_contextIcEERS3_
FNA:112,1,_ZN3fmt3v126detail5valueINS0_7contextEE13format_customI31convertible_to_nonconst_cstringEEvPvRNS0_13parse_contextIcEERS3_
FNA:112,1,_ZN3fmt3v126detail5valueINS0_7contextEE13format_customI34convertible_to_pointer_formattableEEvPvRNS0_13parse_contextIcEERS3_
FNA:112,1,_ZN3fmt3v126detail5valueINS0_7contextEE13format_customI37convertible_to_any_type_with_member_xEEvPvRNS0_13parse_contextIcEERS3_
FNA:112,1,_ZN3fmt3v126detail5valueINS0_7contextEE13format_customI41explicitly_convertible_to_std_string_viewEEvPvRNS0_13parse_contextIcEERS3_
FNA:112,2,_ZN3fmt3v126detail5valueINS0_7contextEE13format_customI4dateEEvPvRNS0_13parse_contextIcEERS3_
FNA:112,1,_ZN3fmt3v126detail5valueINS0_7contextEE13format_customI5pointEEvPvRNS0_13parse_contextIcEERS3_
FNA:112,8,_ZN3fmt3v126detail5valueINS0_7contextEE13format_customI6AnswerEEvPvRNS0_13parse_contextIcEERS3_
FNA:112,1,_ZN3fmt3v126detail5valueINS0_7contextEE13format_customI7tieableEEvPvRNS0_13parse_contextIcEERS3_
FNA:112,1,_ZN3fmt3v126detail5valueINS0_7contextEE13format_customI7ustringEEvPvRNS0_13parse_contextIcEERS3_
FNA:112,2,_ZN3fmt3v126detail5valueINS0_7contextEE13format_customI7zstringEEvPvRNS0_13parse_contextIcEERS3_
FNA:112,0,_ZN3fmt3v126detail5valueINS0_7contextEE13format_customI8abstractEEvPvRNS0_13parse_contextIcEERS3_
FNA:112,1,_ZN3fmt3v126detail5valueINS0_7contextEE13format_customI8flat_setINSt3__112basic_stringIcNS7_11char_traitsIcEENS7_9allocatorIcEEEEEEEvPvRNS0_13parse_contextIcEERS3_
FNA:112,3,_ZN3fmt3v126detail5valueINS0_7contextEE13format_customIA2_PKcEEvPvRNS0_13parse_contextIcEERS3_
FNA:112,1,_ZN3fmt3v126detail5valueINS0_7contextEE13format_customIA3_A2_iEEvPvRNS0_13parse_contextIcEERS3_
FNA:112,1,_ZN3fmt3v126detail5valueINS0_7contextEE13format_customIA6_iEEvPvRNS0_13parse_contextIcEERS3_
FNA:112,1,_ZN3fmt3v126detail5valueINS0_7contextEE13format_customIN3adl3boxEEEvPvRNS0_13parse_contextIcEERS3_
FNA:112,1,_ZN3fmt3v126detail5valueINS0_7contextEE13format_customIN4test21scoped_enum_as_stringEEEvPvRNS0_13parse_contextIcEERS3_
FNA:112,1,_ZN3fmt3v126detail5valueINS0_7contextEE13format_customIN4test25struct_as_const_referenceEEEvPvRNS0_13parse_contextIcEERS3_
FNA:112,1,_ZN3fmt3v126detail5valueINS0_7contextEE13format_customIN4test26scoped_enum_as_string_viewEEEvPvRNS0_13parse_contextIcEERS3_
FNA:112,2,_ZN3fmt3v126detail5valueINS0_7contextEE13format_customIN8fmt_test3abcEEEvPvRNS0_13parse_contextIcEERS3_
FNA:112,2,_ZN3fmt3v126detail5valueINS0_7contextEE13format_customINS0_11nested_viewIdcEEEEvPvRNS0_13parse_contextIcEERS3_
FNA:112,4,_ZN3fmt3v126detail5valueINS0_7contextEE13format_customINS0_14year_month_dayEEEvPvRNS0_13parse_contextIcEERS3_
FNA:112,1,_ZN3fmt3v126detail5valueINS0_7contextEE13format_customINS0_15tuple_join_viewI10tuple_likecEEEEvPvRNS0_13parse_contextIcEERS3_
FNA:112,1,_ZN3fmt3v126detail5valueINS0_7contextEE13format_customINS0_15tuple_join_viewINSt3__15tupleIJEEEcEEEEvPvRNS0_13parse_contextIcEERS3_
FNA:112,1,_ZN3fmt3v126detail5valueINS0_7contextEE13format_customINS0_15tuple_join_viewINSt3__15tupleIJcRiEEEcEEEEvPvRNS0_13parse_contextIcEERS3_
FNA:112,1,_ZN3fmt3v126detail5valueINS0_7contextEE13format_customINS0_15tuple_join_viewINSt3__15tupleIJcifEEEcEEEEvPvRNS0_13parse_contextIcEERS3_
FNA:112,1,_ZN3fmt3v126detail5valueINS0_7contextEE13format_customINS0_15tuple_join_viewINSt3__15tupleIJfEEEcEEEEvPvRNS0_13parse_contextIcEERS3_
FNA:112,5,_ZN3fmt3v126detail5valueINS0_7contextEE13format_customINS0_17group_digits_viewIiEEEEvPvRNS0_13parse_contextIcEERS3_
FNA:112,2,_ZN3fmt3v126detail5valueINS0_7contextEE13format_customINS0_3dayEEEvPvRNS0_13parse_contextIcEERS3_
FNA:112,3,_ZN3fmt3v126detail5valueINS0_7contextEE13format_customINS0_4yearEEEvPvRNS0_13parse_contextIcEERS3_
FNA:112,1,_ZN3fmt3v126detail5valueINS0_7contextEE13format_customINS0_5bytesEEEvPvRNS0_13parse_contextIcEERS3_
FNA:112,6,_ZN3fmt3v126detail5valueINS0_7contextEE13format_customINS0_5monthEEEvPvRNS0_13parse_contextIcEERS3_
FNA:112,6,_ZN3fmt3v126detail5valueINS0_7contextEE13format_customINS0_7weekdayEEEvPvRNS0_13parse_contextIcEERS3_
FNA:112,1,_ZN3fmt3v126detail5valueINS0_7contextEE13format_customINS0_9join_viewI28noncopyable_istream_iteratorNSt3__116istream_iteratorIicNS8_11char_traitsIcEElEEcEEEEvPvRNS0_13parse_contextIcEERS3_
FNA:112,1,_ZN3fmt3v126detail5valueINS0_7contextEE13format_customINS0_9join_viewINSt3__111__wrap_iterIP17basic_test_stringIcEEESC_cEEEEvPvRNS0_13parse_contextIcEERS3_
FNA:112,1,_ZN3fmt3v126detail5valueINS0_7contextEE13format_customINS0_9join_viewINSt3__111__wrap_iterIP9test_enumEESB_cEEEEvPvRNS0_13parse_contextIcEERS3_
FNA:112,3,_ZN3fmt3v126detail5valueINS0_7contextEE13format_customINS0_9join_viewINSt3__111__wrap_iterIPKiEESB_cEEEEvPvRNS0_13parse_contextIcEERS3_
FNA:112,2,_ZN3fmt3v126detail5valueINS0_7contextEE13format_customINS0_9join_viewINSt3__111__wrap_iterIPfEESA_cEEEEvPvRNS0_13parse_contextIcEERS3_
FNA:112,4,_ZN3fmt3v126detail5valueINS0_7contextEE13format_customINS0_9join_viewINSt3__111__wrap_iterIPiEESA_cEEEEvPvRNS0_13parse_contextIcEERS3_
FNA:112,1,_ZN3fmt3v126detail5valueINS0_7contextEE13format_customINS0_9join_viewINSt3__116istream_iteratorIicNS7_11char_traitsIcEElEESB_cEEEEvPvRNS0_13parse_contextIcEERS3_
FNA:112,1,_ZN3fmt3v126detail5valueINS0_7contextEE13format_customINS0_9join_viewIPKPKcSA_cEEEEvPvRNS0_13parse_contextIcEERS3_
FNA:112,1,_ZN3fmt3v126detail5valueINS0_7contextEE13format_customINS0_9join_viewIPKc16zstring_sentinelcEEEEvPvRNS0_13parse_contextIcEERS3_
FNA:112,3,_ZN3fmt3v126detail5valueINS0_7contextEE13format_customINS0_9join_viewIPKiS8_cEEEEvPvRNS0_13parse_contextIcEERS3_
FNA:112,1,_ZN3fmt3v126detail5valueINS0_7contextEE13format_customINS0_9join_viewIPPvS8_cEEEEvS7_RNS0_13parse_contextIcEERS3_
FNA:112,6,_ZN3fmt3v126detail5valueINS0_7contextEE13format_customINS0_9join_viewIPiS7_cEEEEvPvRNS0_13parse_contextIcEERS3_
FNA:112,3,_ZN3fmt3v126detail5valueINS0_7contextEE13format_customINS1_10styled_argIA4_cEEEEvPvRNS0_13parse_contextIcEERS3_
FNA:112,1,_ZN3fmt3v126detail5valueINS0_7contextEE13format_customINS1_10styled_argIA5_cEEEEvPvRNS0_13parse_contextIcEERS3_
FNA:112,1,_ZN3fmt3v126detail5valueINS0_7contextEE13format_customINS1_13streamed_viewI28streamable_and_unformattableEEEEvPvRNS0_13parse_contextIcEERS3_
FNA:112,7,_ZN3fmt3v126detail5valueINS0_7contextEE13format_customINSt3__110error_codeEEEvPvRNS0_13parse_contextIcEERS3_
FNA:112,1,_ZN3fmt3v126detail5valueINS0_7contextEE13format_customINSt3__111__thread_idEEEvPvRNS0_13parse_contextIcEERS3_
FNA:112,1,_ZN3fmt3v126detail5valueINS0_7contextEE13format_customINSt3__112system_errorEEEvPvRNS0_13parse_contextIcEERS3_
FNA:112,1,_ZN3fmt3v126detail5valueINS0_7contextEE13format_customINSt3__114priority_queueIiNS6_6vectorIiNS6_9allocatorIiEEEENS6_4lessIiEEEEEEvPvRNS0_13parse_contextIcEERS3_
FNA:112,2,_ZN3fmt3v126detail5valueINS0_7contextEE13format_customINSt3__115__bit_referenceINS6_6vectorIbNS6_9allocatorIbEEEELb1EEEEEvPvRNS0_13parse_contextIcEERS3_
FNA:112,2,_ZN3fmt3v126detail5valueINS0_7contextEE13format_customINSt3__115__bit_referenceINS6_8__bitsetILm1ELm2EEELb1EEEEEvPvRNS0_13parse_contextIcEERS3_
FNA:112,1,_ZN3fmt3v126detail5valueINS0_7contextEE13format_customINSt3__117reference_wrapperI26type_with_format_as_stringEEEEvPvRNS0_13parse_contextIcEERS3_
FNA:112,1,_ZN3fmt3v126detail5valueINS0_7contextEE13format_customINSt3__117reference_wrapperIK26type_with_format_as_stringEEEEvPvRNS0_13parse_contextIcEERS3_
FNA:112,1,_ZN3fmt3v126detail5valueINS0_7contextEE13format_customINSt3__117reference_wrapperIKiEEEEvPvRNS0_13parse_contextIcEERS3_
FNA:112,1,_ZN3fmt3v126detail5valueINS0_7contextEE13format_customINSt3__117reference_wrapperIiEEEEvPvRNS0_13parse_contextIcEERS3_
FNA:112,2,_ZN3fmt3v126detail5valueINS0_7contextEE13format_customINSt3__121__bit_const_referenceINS6_6vectorIbNS6_9allocatorIbEEEEEEEEvPvRNS0_13parse_contextIcEERS3_
FNA:112,2,_ZN3fmt3v126detail5valueINS0_7contextEE13format_customINSt3__121__bit_const_referenceINS6_8__bitsetILm1ELm2EEEEEEEvPvRNS0_13parse_contextIcEERS3_
FNA:112,1,_ZN3fmt3v126detail5valueINS0_7contextEE13format_customINSt3__13mapINS6_10error_codeEiNS6_4lessIS8_EENS6_9allocatorINS6_4pairIKS8_iEEEEEEEEvPvRNS0_13parse_contextIcEERS3_
FNA:112,2,_ZN3fmt3v126detail5valueINS0_7contextEE13format_customINSt3__13mapINS6_12basic_stringIcNS6_11char_traitsIcEENS6_9allocatorIcEEEEiNS6_4lessISD_EENSB_INS6_4pairIKSD_iEEEEEEEEvPvRNS0_13parse_contextIcEERS3_
FNA:112,1,_ZN3fmt3v126detail5valueINS0_7contextEE13format_customINSt3__13mapIi14test_map_valueNS6_4lessIiEENS6_9allocatorINS6_4pairIKiS8_EEEEEEEEvPvRNS0_13parse_contextIcEERS3_
FNA:112,1,_ZN3fmt3v126detail5valueINS0_7contextEE13format_customINSt3__13setINS6_12basic_stringIcNS6_11char_traitsIcEENS6_9allocatorIcEEEENS6_4lessISD_EENSB_ISD_EEEEEEvPvRNS0_13parse_contextIcEERS3_
FNA:112,3,_ZN3fmt3v126detail5valueINS0_7contextEE13format_customINSt3__14pairIifEEEEvPvRNS0_13parse_contextIcEERS3_
FNA:112,1,_ZN3fmt3v126detail5valueINS0_7contextEE13format_customINSt3__15queueIiNS6_5dequeIiNS6_9allocatorIiEEEEEEEEvPvRNS0_13parse_contextIcEERS3_
FNA:112,1,_ZN3fmt3v126detail5valueINS0_7contextEE13format_customINSt3__15stackIcNS6_12basic_stringIcNS6_11char_traitsIcEENS6_9allocatorIcEEEEEEEEvPvRNS0_13parse_contextIcEERS3_
FNA:112,2,_ZN3fmt3v126detail5valueINS0_7contextEE13format_customINSt3__15stackIiNS6_5dequeIiNS6_9allocatorIiEEEEEEEEvPvRNS0_13parse_contextIcEERS3_
FNA:112,1,_ZN3fmt3v126detail5valueINS0_7contextEE13format_customINSt3__15tupleIJEEEEEvPvRNS0_13parse_contextIcEERS3_
FNA:112,2,_ZN3fmt3v126detail5valueINS0_7contextEE13format_customINSt3__15tupleIJifNS6_12basic_stringIcNS6_11char_traitsIcEENS6_9allocatorIcEEEEcEEEEEvPvRNS0_13parse_contextIcEERS3_
FNA:112,2,_ZN3fmt3v126detail5valueINS0_7contextEE13format_customINSt3__16atomicIbEEEEvPvRNS0_13parse_contextIcEERS3_
FNA:112,3,_ZN3fmt3v126detail5valueINS0_7contextEE13format_customINSt3__16bitsetILm6EEEEEvPvRNS0_13parse_contextIcEERS3_
FNA:112,60,_ZN3fmt3v126detail5valueINS0_7contextEE13format_customINSt3__16chrono10time_pointINS1_7local_tENS7_8durationIxNS6_5ratioILl1ELl1EEEEEEEEEvPvRNS0_13parse_contextIcEERS3_
FNA:112,2,_ZN3fmt3v126detail5valueINS0_7contextEE13format_customINSt3__16chrono10time_pointINS7_12system_clockENS7_8durationIdNS6_5ratioILl1ELl1EEEEEEEEEvPvRNS0_13parse_contextIcEERS3_
FNA:112,1,_ZN3fmt3v126detail5valueINS0_7contextEE13format_customINSt3__16chrono10time_pointINS7_12system_clockENS7_8durationIdNS6_5ratioILl1ELl3EEEEEEEEEvPvRNS0_13parse_contextIcEERS3_
FNA:112,1,_ZN3fmt3v126detail5valueINS0_7contextEE13format_customINSt3__16chrono10time_pointINS7_12system_clockENS7_8durationIiNS6_5ratioILl63ELl1EEEEEEEEEvPvRNS0_13parse_contextIcEERS3_
FNA:112,1,_ZN3fmt3v126detail5valueINS0_7contextEE13format_customINSt3__16chrono10time_pointINS7_12system_clockENS7_8durationIiNS6_5ratioILl9ELl1EEEEEEEEEvPvRNS0_13parse_contextIcEERS3_
FNA:112,1,_ZN3fmt3v126detail5valueINS0_7contextEE13format_customINSt3__16chrono10time_pointINS7_12system_clockENS7_8durationIlNS6_5ratioILl60ELl1EEEEEEEEEvPvRNS0_13parse_contextIcEERS3_
FNA:112,2,_ZN3fmt3v126detail5valueINS0_7contextEE13format_customINSt3__16chrono10time_pointINS7_12system_clockENS7_8durationIxNS6_5ratioILl1ELl1000000000EEEEEEEEEvPvRNS0_13parse_contextIcEERS3_
FNA:112,10,_ZN3fmt3v126detail5valueINS0_7contextEE13format_customINSt3__16chrono10time_pointINS7_12system_clockENS7_8durationIxNS6_5ratioILl1ELl1000000EEEEEEEEEvPvRNS0_13parse_contextIcEERS3_
FNA:112,7,_ZN3fmt3v126detail5valueINS0_7contextEE13format_customINSt3__16chrono10time_pointINS7_12system_clockENS7_8durationIxNS6_5ratioILl1ELl1000EEEEEEEEEvPvRNS0_13parse_contextIcEERS3_
FNA:112,63,_ZN3fmt3v126detail5valueINS0_7contextEE13format_customINSt3__16chrono10time_pointINS7_12system_clockENS7_8durationIxNS6_5ratioILl1ELl1EEEEEEEEEvPvRNS0_13parse_contextIcEERS3_
FNA:112,1,_ZN3fmt3v126detail5valueINS0_7contextEE13format_customINSt3__16chrono10time_pointINS7_12system_clockENS7_8durationIxNS6_5ratioILl1ELl3EEEEEEEEEvPvRNS0_13parse_contextIcEERS3_
FNA:112,1,_ZN3fmt3v126detail5valueINS0_7contextEE13format_customINSt3__16chrono10time_pointINS7_12system_clockENS7_8durationIxNS6_5ratioILl31556952ELl1EEEEEEEEEvPvRNS0_13parse_contextIcEERS3_
FNA:112,1,_ZN3fmt3v126detail5valueINS0_7contextEE13format_customINSt3__16chrono8durationIaNS6_5ratioILl1ELl1000EEEEEEEvPvRNS0_13parse_contextIcEERS3_
FNA:112,1,_ZN3fmt3v126detail5valueINS0_7contextEE13format_customINSt3__16chrono8durationIaNS6_5ratioILl1ELl100EEEEEEEvPvRNS0_13parse_contextIcEERS3_
FNA:112,2,_ZN3fmt3v126detail5valueINS0_7contextEE13format_customINSt3__16chrono8durationIcNS6_5ratioILl1000000ELl1EEEEEEEvPvRNS0_13parse_contextIcEERS3_
FNA:112,7,_ZN3fmt3v126detail5valueINS0_7contextEE13format_customINSt3__16chrono8durationIdNS6_5ratioILl1ELl1000000000EEEEEEEvPvRNS0_13parse_contextIcEERS3_
FNA:112,38,_ZN3fmt3v126detail5valueINS0_7contextEE13format_customINSt3__16chrono8durationIdNS6_5ratioILl1ELl1000EEEEEEEvPvRNS0_13parse_contextIcEERS3_
FNA:112,10,_ZN3fmt3v126detail5valueINS0_7contextEE13format_customINSt3__16chrono8durationIdNS6_5ratioILl1ELl1EEEEEEEvPvRNS0_13parse_contextIcEERS3_
FNA:112,1,_ZN3fmt3v126detail5valueINS0_7contextEE13format_customINSt3__16chrono8durationIfNS6_5ratioILl1000000000000000000ELl1EEEEEEEvPvRNS0_13parse_contextIcEERS3_
FNA:112,1,_ZN3fmt3v126detail5valueINS0_7contextEE13format_customINSt3__16chrono8durationIfNS6_5ratioILl1ELl1000000000000000000EEEEEEEvPvRNS0_13parse_contextIcEERS3_
FNA:112,1,_ZN3fmt3v126detail5valueINS0_7contextEE13format_customINSt3__16chrono8durationIfNS6_5ratioILl1ELl1000000000000EEEEEEEvPvRNS0_13parse_contextIcEERS3_
FNA:112,2,_ZN3fmt3v126detail5valueINS0_7contextEE13format_customINSt3__16chrono8durationIfNS6_5ratioILl1ELl1000EEEEEEEvPvRNS0_13parse_contextIcEERS3_
FNA:112,2,_ZN3fmt3v126detail5valueINS0_7contextEE13format_customINSt3__16chrono8durationIfNS6_5ratioILl1ELl1EEEEEEEvPvRNS0_13parse_contextIcEERS3_
FNA:112,1,_ZN3fmt3v126detail5valueINS0_7contextEE13format_customINSt3__16chrono8durationIiNS6_5ratioILl1000000000000000000ELl1EEEEEEEvPvRNS0_13parse_contextIcEERS3_
FNA:112,1,_ZN3fmt3v126detail5valueINS0_7contextEE13format_customINSt3__16chrono8durationIiNS6_5ratioILl1000000000000000ELl1EEEEEEEvPvRNS0_13parse_contextIcEERS3_
FNA:112,1,_ZN3fmt3v126detail5valueINS0_7contextEE13format_customINSt3__16chrono8durationIiNS6_5ratioILl1000000000000ELl1EEEEEEEvPvRNS0_13parse_contextIcEERS3_
FNA:112,1,_ZN3fmt3v126detail5valueINS0_7contextEE13format_customINSt3__16chrono8durationIiNS6_5ratioILl1000000000ELl1EEEEEEEvPvRNS0_13parse_contextIcEERS3_
FNA:112,1,_ZN3fmt3v126detail5valueINS0_7contextEE13format_customINSt3__16chrono8durationIiNS6_5ratioILl1000000ELl1EEEEEEEvPvRNS0_13parse_contextIcEERS3_
FNA:112,1,_ZN3fmt3v126detail5valueINS0_7contextEE13format_customINSt3__16chrono8durationIiNS6_5ratioILl1000ELl1EEEEEEEvPvRNS0_13parse_contextIcEERS3_
FNA:112,1,_ZN3fmt3v126detail5valueINS0_7contextEE13format_customINSt3__16chrono8durationIiNS6_5ratioILl100ELl1EEEEEEEvPvRNS0_13parse_contextIcEERS3_
FNA:112,1,_ZN3fmt3v126detail5valueINS0_7contextEE13format_customINSt3__16chrono8durationIiNS6_5ratioILl10ELl1EEEEEEEvPvRNS0_13parse_contextIcEERS3_
FNA:112,1,_ZN3fmt3v126detail5valueINS0_7contextEE13format_customINSt3__16chrono8durationIiNS6_5ratioILl15ELl1EEEEEEEvPvRNS0_13parse_contextIcEERS3_
FNA:112,1,_ZN3fmt3v126detail5valueINS0_7contextEE13format_customINSt3__16chrono8durationIiNS6_5ratioILl15ELl4EEEEEEEvPvRNS0_13parse_contextIcEERS3_
FNA:112,1,_ZN3fmt3v126detail5valueINS0_7contextEE13format_customINSt3__16chrono8durationIiNS6_5ratioILl1ELl1000000000000000000EEEEEEEvPvRNS0_13parse_contextIcEERS3_
FNA:112,1,_ZN3fmt3v126detail5valueINS0_7contextEE13format_customINSt3__16chrono8durationIiNS6_5ratioILl1ELl1000000000000000EEEEEEEvPvRNS0_13parse_contextIcEERS3_
FNA:112,1,_ZN3fmt3v126detail5valueINS0_7contextEE13format_customINSt3__16chrono8durationIiNS6_5ratioILl1ELl1000000000000EEEEEEEvPvRNS0_13parse_contextIcEERS3_
FNA:112,1,_ZN3fmt3v126detail5valueINS0_7contextEE13format_customINSt3__16chrono8durationIiNS6_5ratioILl1ELl100EEEEEEEvPvRNS0_13parse_contextIcEERS3_
FNA:112,1,_ZN3fmt3v126detail5valueINS0_7contextEE13format_customINSt3__16chrono8durationIiNS6_5ratioILl1ELl10EEEEEEEvPvRNS0_13parse_contextIcEERS3_
FNA:112,1,_ZN3fmt3v126detail5valueINS0_7contextEE13format_customINSt3__16chrono8durationIiNS6_5ratioILl1ELl1EEEEEEEvPvRNS0_13parse_contextIcEERS3_
FNA:112,1,_ZN3fmt3v126detail5valueINS0_7contextEE13format_customINSt3__16chrono8durationIjNS6_5ratioILl1ELl1EEEEEEEvPvRNS0_13parse_contextIcEERS3_
FNA:112,11,_ZN3fmt3v126detail5valueINS0_7contextEE13format_customINSt3__16chrono8durationIlNS6_5ratioILl3600ELl1EEEEEEEvPvRNS0_13parse_contextIcEERS3_
FNA:112,5,_ZN3fmt3v126detail5valueINS0_7contextEE13format_customINSt3__16chrono8durationIlNS6_5ratioILl60ELl1EEEEEEEvPvRNS0_13parse_contextIcEERS3_
FNA:112,3,_ZN3fmt3v126detail5valueINS0_7contextEE13format_customINSt3__16chrono8durationIlNS6_5ratioILl86400ELl1EEEEEEEvPvRNS0_13parse_contextIcEERS3_
FNA:112,1,_ZN3fmt3v126detail5valueINS0_7contextEE13format_customINSt3__16chrono8durationImNS6_5ratioILl1000000000ELl1EEEEEEEvPvRNS0_13parse_contextIcEERS3_
FNA:112,1,_ZN3fmt3v126detail5valueINS0_7contextEE13format_customINSt3__16chrono8durationIsNS6_5ratioILl1ELl100EEEEEEEvPvRNS0_13parse_contextIcEERS3_
FNA:112,3,_ZN3fmt3v126detail5valueINS0_7contextEE13format_customINSt3__16chrono8durationIxNS6_5ratioILl1ELl1000000000000000000EEEEEEEvPvRNS0_13parse_contextIcEERS3_
FNA:112,6,_ZN3fmt3v126detail5valueINS0_7contextEE13format_customINSt3__16chrono8durationIxNS6_5ratioILl1ELl1000000000EEEEEEEvPvRNS0_13parse_contextIcEERS3_
FNA:112,2,_ZN3fmt3v126detail5valueINS0_7contextEE13format_customINSt3__16chrono8durationIxNS6_5ratioILl1ELl1000000EEEEEEEvPvRNS0_13parse_contextIcEERS3_
FNA:112,18,_ZN3fmt3v126detail5valueINS0_7contextEE13format_customINSt3__16chrono8durationIxNS6_5ratioILl1ELl1000EEEEEEEvPvRNS0_13parse_contextIcEERS3_
FNA:112,62,_ZN3fmt3v126detail5valueINS0_7contextEE13format_customINSt3__16chrono8durationIxNS6_5ratioILl1ELl1EEEEEEEvPvRNS0_13parse_contextIcEERS3_
FNA:112,1,_ZN3fmt3v126detail5valueINS0_7contextEE13format_customINSt3__16chrono8durationIxNS6_5ratioILl1ELl3EEEEEEEvPvRNS0_13parse_contextIcEERS3_
FNA:112,1,_ZN3fmt3v126detail5valueINS0_7contextEE13format_customINSt3__16chrono8durationIxNS6_5ratioILl1ELl7EEEEEEEvPvRNS0_13parse_contextIcEERS3_
FNA:112,1,_ZN3fmt3v126detail5valueINS0_7contextEE13format_customINSt3__16vectorI17basic_test_stringIcENS6_9allocatorIS9_EEEEEEvPvRNS0_13parse_contextIcEERS3_
FNA:112,1,_ZN3fmt3v126detail5valueINS0_7contextEE13format_customINSt3__16vectorI9test_enumNS6_9allocatorIS8_EEEEEEvPvRNS0_13parse_contextIcEERS3_
FNA:112,11,_ZN3fmt3v126detail5valueINS0_7contextEE13format_customINSt3__16vectorINS6_12basic_stringIcNS6_11char_traitsIcEENS6_9allocatorIcEEEENSB_ISD_EEEEEEvPvRNS0_13parse_contextIcEERS3_
FNA:112,6,_ZN3fmt3v126detail5valueINS0_7contextEE13format_customINSt3__16vectorINS7_IcNS6_9allocatorIcEEEENS8_ISA_EEEEEEvPvRNS0_13parse_contextIcEERS3_
FNA:112,4,_ZN3fmt3v126detail5valueINS0_7contextEE13format_customINSt3__16vectorINS7_IiNS6_9allocatorIiEEEENS8_ISA_EEEEEEvPvRNS0_13parse_contextIcEERS3_
FNA:112,6,_ZN3fmt3v126detail5valueINS0_7contextEE13format_customINSt3__16vectorIcNS6_9allocatorIcEEEEEEvPvRNS0_13parse_contextIcEERS3_
FNA:112,8,_ZN3fmt3v126detail5valueINS0_7contextEE13format_customINSt3__16vectorIiNS6_9allocatorIiEEEEEEvPvRNS0_13parse_contextIcEERS3_
FNA:112,18,_ZN3fmt3v126detail5valueINS0_7contextEE13format_customINSt3__17complexIdEEEEvPvRNS0_13parse_contextIcEERS3_
FNA:112,1,_ZN3fmt3v126detail5valueINS0_7contextEE13format_customINSt3__17complexIiEEEEvPvRNS0_13parse_contextIcEERS3_
FNA:112,2,_ZN3fmt3v126detail5valueINS0_7contextEE13format_customISt13runtime_errorEEvPvRNS0_13parse_contextIcEERS3_
FNA:112,4,_ZN3fmt3v126detail5valueINS0_7contextEE13format_customISt9exceptionEEvPvRNS0_13parse_contextIcEERS3_
FNA:112,1,_ZN3fmt3v126detail5valueINS0_7contextEE13format_customISt9type_infoEEvPvRNS0_13parse_contextIcEERS3_
FNA:112,1,_ZN3fmt3v126detail5valueINS0_7contextEE13format_customIZN34ranges_test_container_adaptor_Test8TestBodyEvE20my_container_adaptorEEvPvRNS0_13parse_contextIcEERS3_
FNL:113,2372,2377
FNA:113,1,_ZN3fmt3v126detail15named_arg_storeINS0_15generic_contextINS0_14basic_appenderIwEEwEELi3ELi3ELy460EEC1IJNS1_9named_argIwA5_wEENS9_IwA4_wEENS9_IwiEEEEEDpRT_
FNA:113,1,_ZN3fmt3v126detail15named_arg_storeINS0_15generic_contextINS0_14basic_appenderIwEEwEELi3ELi3ELy460EEC1IJNS1_9named_argIwRA5_KwEENS9_IwRA4_SA_EENS9_IwiEEEEEDpRT_
FNA:113,1,_ZN3fmt3v126detail15named_arg_storeINS0_15generic_contextINS0_14basic_appenderIwEEwEELi3ELi3ELy460EEC2IJNS1_9named_argIwA5_wEENS9_IwA4_wEENS9_IwiEEEEEDpRT_
FNA:113,1,_ZN3fmt3v126detail15named_arg_storeINS0_15generic_contextINS0_14basic_appenderIwEEwEELi3ELi3ELy460EEC2IJNS1_9named_argIwRA5_KwEENS9_IwRA4_SA_EENS9_IwiEEEEEDpRT_
FNA:113,1,_ZN3fmt3v126detail15named_arg_storeINS0_7contextELi16ELi16ELy9223372036854775824EEC1IJNS1_9named_argIciEES7_S7_S7_S7_S7_S7_S7_S7_S7_S7_S7_S7_S7_S7_S7_EEEDpRT_
FNA:113,1,_ZN3fmt3v126detail15named_arg_storeINS0_7contextELi16ELi16ELy9223372036854775824EEC2IJNS1_9named_argIciEES7_S7_S7_S7_S7_S7_S7_S7_S7_S7_S7_S7_S7_S7_S7_EEEDpRT_
FNA:113,1,_ZN3fmt3v126detail15named_arg_storeINS0_7contextELi1ELi1ELy15EEC1IJNS1_9named_argIc6AnswerEEEEEDpRT_
FNA:113,1,_ZN3fmt3v126detail15named_arg_storeINS0_7contextELi1ELi1ELy15EEC2IJNS1_9named_argIc6AnswerEEEEEDpRT_
FNA:113,1,_ZN3fmt3v126detail15named_arg_storeINS0_7contextELi1ELi1ELy1EEC1IJNS1_9named_argIciEEEEEDpRT_
FNA:113,1,_ZN3fmt3v126detail15named_arg_storeINS0_7contextELi1ELi1ELy1EEC2IJNS1_9named_argIciEEEEEDpRT_
FNA:113,1,_ZN3fmt3v126detail15named_arg_storeINS0_7contextELi2ELi1ELy17EEC1IJNS1_9named_argIciEEiEEEDpRT_
FNA:113,2,_ZN3fmt3v126detail15named_arg_storeINS0_7contextELi2ELi1ELy17EEC1IJiNS1_9named_argIciEEEEEDpRT_
FNA:113,1,_ZN3fmt3v126detail15named_arg_storeINS0_7contextELi2ELi1ELy17EEC2IJNS1_9named_argIciEEiEEEDpRT_
FNA:113,2,_ZN3fmt3v126detail15named_arg_storeINS0_7contextELi2ELi1ELy17EEC2IJiNS1_9named_argIciEEEEEDpRT_
FNA:113,1,_ZN3fmt3v126detail15named_arg_storeINS0_7contextELi2ELi1ELy28EEC1IJA4_KcNS1_9named_argIciEEEEEDpRT_
FNA:113,1,_ZN3fmt3v126detail15named_arg_storeINS0_7contextELi2ELi1ELy28EEC2IJA4_KcNS1_9named_argIciEEEEEDpRT_
FNA:113,2,_ZN3fmt3v126detail15named_arg_storeINS0_7contextELi2ELi2ELy17EEC1IJNS1_9named_argIciEES7_EEEDpRT_
FNA:113,2,_ZN3fmt3v126detail15named_arg_storeINS0_7contextELi2ELi2ELy17EEC2IJNS1_9named_argIciEES7_EEEDpRT_
FNA:113,1,_ZN3fmt3v126detail15named_arg_storeINS0_7contextELi3ELi3ELy456EEC1IJNS1_9named_argIccEENS6_IcA2_cEENS6_IciEEEEEDpRT_
FNA:113,1,_ZN3fmt3v126detail15named_arg_storeINS0_7contextELi3ELi3ELy456EEC2IJNS1_9named_argIccEENS6_IcA2_cEENS6_IciEEEEEDpRT_
FNA:113,1,_ZN3fmt3v126detail15named_arg_storeINS0_7contextELi3ELi3ELy460EEC1IJNS1_9named_argIcA5_cEENS6_IcA4_cEENS6_IciEEEEEDpRT_
FNA:113,1,_ZN3fmt3v126detail15named_arg_storeINS0_7contextELi3ELi3ELy460EEC1IJNS1_9named_argIcRA5_KcEENS6_IcRA4_S7_EENS6_IciEEEEEDpRT_
FNA:113,1,_ZN3fmt3v126detail15named_arg_storeINS0_7contextELi3ELi3ELy460EEC2IJNS1_9named_argIcA5_cEENS6_IcA4_cEENS6_IciEEEEEDpRT_
FNA:113,1,_ZN3fmt3v126detail15named_arg_storeINS0_7contextELi3ELi3ELy460EEC2IJNS1_9named_argIcRA5_KcEENS6_IcRA4_S7_EENS6_IciEEEEEDpRT_
FNL:114,2390,2390
FNA:114,2,_ZNK3fmt3v126detail15named_arg_storeINS0_15generic_contextINS0_14basic_appenderIwEEwEELi3ELi3ELy460EEcvPKNS1_5valueIS6_EEEv
FNA:114,1,_ZNK3fmt3v126detail15named_arg_storeINS0_7contextELi16ELi16ELy9223372036854775824EEcvPKNS0_16basic_format_argIS3_EEEv
FNA:114,1,_ZNK3fmt3v126detail15named_arg_storeINS0_7contextELi1ELi1ELy15EEcvPKNS1_5valueIS3_EEEv
FNA:114,1,_ZNK3fmt3v126detail15named_arg_storeINS0_7contextELi1ELi1ELy1EEcvPKNS1_5valueIS3_EEEv
FNA:114,3,_ZNK3fmt3v126detail15named_arg_storeINS0_7contextELi2ELi1ELy17EEcvPKNS1_5valueIS3_EEEv
FNA:114,1,_ZNK3fmt3v126detail15named_arg_storeINS0_7contextELi2ELi1ELy28EEcvPKNS1_5valueIS3_EEEv
FNA:114,1,_ZNK3fmt3v126detail15named_arg_storeINS0_7contextELi2ELi2ELy17EEcvPKNS1_5valueIS3_EEEv
FNA:114,1,_ZNK3fmt3v126detail15named_arg_storeINS0_7contextELi3ELi3ELy456EEcvPKNS1_5valueIS3_EEEv
FNA:114,2,_ZNK3fmt3v126detail15named_arg_storeINS0_7contextELi3ELi3ELy460EEcvPKNS1_5valueIS3_EEEv
FNL:115,2408
FNA:115,71,_ZN3fmt3v126detail16native_formatterINS0_17basic_string_viewIcEEcLNS1_4typeE13EEC2Ev
FNA:115,9,_ZN3fmt3v126detail16native_formatterINS0_17basic_string_viewIwEEwLNS1_4typeE13EEC2Ev
FNA:115,5,_ZN3fmt3v126detail16native_formatterIPKccLNS1_4typeE12EEC2Ev
FNA:115,1,_ZN3fmt3v126detail16native_formatterIPKvcLNS1_4typeE14EEC2Ev
FNA:115,10,_ZN3fmt3v126detail16native_formatterIbcLNS1_4typeE7EEC2Ev
FNA:115,20,_ZN3fmt3v126detail16native_formatterIccLNS1_4typeE8EEC2Ev
FNA:115,2,_ZN3fmt3v126detail16native_formatterIdcLNS1_4typeE10EEC2Ev
FNA:115,9,_ZN3fmt3v126detail16native_formatterIfcLNS1_4typeE9EEC2Ev
FNA:115,1,_ZN3fmt3v126detail16native_formatterIfwLNS1_4typeE9EEC2Ev
FNA:115,82,_ZN3fmt3v126detail16native_formatterIicLNS1_4typeE1EEC2Ev
FNA:115,3,_ZN3fmt3v126detail16native_formatterIiwLNS1_4typeE1EEC2Ev
FNA:115,1,_ZN3fmt3v126detail16native_formatterIwwLNS1_4typeE8EEC2Ev
FNL:116,2415,2420
FNA:116,69,_ZN3fmt3v126detail16native_formatterINS0_17basic_string_viewIcEEcLNS1_4typeE13EE5parseERNS0_13parse_contextIcEE
FNA:116,8,_ZN3fmt3v126detail16native_formatterINS0_17basic_string_viewIwEEwLNS1_4typeE13EE5parseERNS0_13parse_contextIwEE
FNA:116,5,_ZN3fmt3v126detail16native_formatterIPKccLNS1_4typeE12EE5parseERNS0_13parse_contextIcEE
FNA:116,1,_ZN3fmt3v126detail16native_formatterIPKvcLNS1_4typeE14EE5parseERNS0_13parse_contextIcEE
FNA:116,10,_ZN3fmt3v126detail16native_formatterIbcLNS1_4typeE7EE5parseERNS0_13parse_contextIcEE
FNA:116,14,_ZN3fmt3v126detail16native_formatterIccLNS1_4typeE8EE5parseERNS0_13parse_contextIcEE
FNA:116,2,_ZN3fmt3v126detail16native_formatterIdcLNS1_4typeE10EE5parseERNS0_13parse_contextIcEE
FNA:116,7,_ZN3fmt3v126detail16native_formatterIfcLNS1_4typeE9EE5parseERNS0_13parse_contextIcEE
FNA:116,74,_ZN3fmt3v126detail16native_formatterIicLNS1_4typeE1EE5parseERNS0_13parse_contextIcEE
FNA:116,2,_ZN3fmt3v126detail16native_formatterIiwLNS1_4typeE1EE5parseERNS0_13parse_contextIwEE
FNL:117,2425,2427
FNA:117,20,_ZN3fmt3v126detail16native_formatterINS0_17basic_string_viewIcEEcLNS1_4typeE13EE16set_debug_formatILS5_13ELi0EEEvb
FNA:117,3,_ZN3fmt3v126detail16native_formatterINS0_17basic_string_viewIwEEwLNS1_4typeE13EE16set_debug_formatILS5_13ELi0EEEvb
FNA:117,4,_ZN3fmt3v126detail16native_formatterIPKccLNS1_4typeE12EE16set_debug_formatILS5_12ELi0EEEvb
FNA:117,22,_ZN3fmt3v126detail16native_formatterIccLNS1_4typeE8EE16set_debug_formatILS3_8ELi0EEEvb
FNL:118,2442,2443
FNA:118,1,_ZN3fmt3v126detail10is_lockingIRA3_KcEEbv
FNL:119,2463,2470
FNA:119,68177,_ZN3fmt3v1213parse_contextIcE15do_check_arg_idEi
FNA:119,61,_ZN3fmt3v1213parse_contextIwE15do_check_arg_idEi
FNL:120,2473,2477
FNA:120,103,_ZN3fmt3v1213parse_contextIcE18check_dynamic_specEi
FNA:120,0,_ZN3fmt3v1213parse_contextIwE18check_dynamic_specEi
FNL:121,2490,2490
FNA:121,116818,_ZN3fmt3v1214basic_appenderIcEC1ERNS0_6detail6bufferIcEE
FNA:121,116818,_ZN3fmt3v1214basic_appenderIcEC2ERNS0_6detail6bufferIcEE
FNA:121,72,_ZN3fmt3v1214basic_appenderIwEC1ERNS0_6detail6bufferIwEE
FNA:121,72,_ZN3fmt3v1214basic_appenderIwEC2ERNS0_6detail6bufferIwEE
FNL:122,2492,2494
FNA:122,172921,_ZN3fmt3v1214basic_appenderIcEaSEc
FNA:122,161,_ZN3fmt3v1214basic_appenderIwEaSEw
FNL:123,2496,2496
FNA:123,172921,_ZN3fmt3v1214basic_appenderIcEdeEv
FNA:123,161,_ZN3fmt3v1214basic_appenderIwEdeEv
FNL:124,2497,2497
FNA:124,25,_ZN3fmt3v1214basic_appenderIcEppEv
FNA:124,0,_ZN3fmt3v1214basic_appenderIwEppEv
FNL:125,2498,2498
FNA:125,172896,_ZN3fmt3v1214basic_appenderIcEppEi
FNA:125,161,_ZN3fmt3v1214basic_appenderIwEppEi
FNL:126,2518,2518
FNA:126,13,_ZN3fmt3v1216basic_format_argINS0_15generic_contextINS0_14basic_appenderIwEEwEEE6handleC1ENS0_6detail12custom_valueIS5_EE
FNA:126,13,_ZN3fmt3v1216basic_format_argINS0_15generic_contextINS0_14basic_appenderIwEEwEEE6handleC2ENS0_6detail12custom_valueIS5_EE
FNA:126,0,_ZN3fmt3v1216basic_format_argINS0_20basic_printf_contextIcEEE6handleC1ENS0_6detail12custom_valueIS3_EE
FNA:126,0,_ZN3fmt3v1216basic_format_argINS0_20basic_printf_contextIcEEE6handleC2ENS0_6detail12custom_valueIS3_EE
FNA:126,0,_ZN3fmt3v1216basic_format_argINS0_20basic_printf_contextIwEEE6handleC1ENS0_6detail12custom_valueIS3_EE
FNA:126,0,_ZN3fmt3v1216basic_format_argINS0_20basic_printf_contextIwEEE6handleC2ENS0_6detail12custom_valueIS3_EE
FNA:126,302,_ZN3fmt3v1216basic_format_argINS0_7contextEE6handleC1ENS0_6detail12custom_valueIS2_EE
FNA:126,302,_ZN3fmt3v1216basic_format_argINS0_7contextEE6handleC2ENS0_6detail12custom_valueIS2_EE
FNL:127,2520,2522
FNA:127,13,_ZNK3fmt3v1216basic_format_argINS0_15generic_contextINS0_14basic_appenderIwEEwEEE6handle6formatERNS0_13parse_contextIwEERS5_
FNA:127,0,_ZNK3fmt3v1216basic_format_argINS0_20basic_printf_contextIcEEE6handle6formatERNS0_13parse_contextIcEERS3_
FNA:127,0,_ZNK3fmt3v1216basic_format_argINS0_20basic_printf_contextIwEEE6handle6formatERNS0_13parse_contextIwEERS3_
FNA:127,302,_ZNK3fmt3v1216basic_format_argINS0_7contextEE6handle6formatERNS0_13parse_contextIcEERS2_
FNL:128,2525,2525
FNA:128,67,_ZN3fmt3v1216basic_format_argINS0_15generic_contextINS0_14basic_appenderIwEEwEEEC1Ev
FNA:128,67,_ZN3fmt3v1216basic_format_argINS0_15generic_contextINS0_14basic_appenderIwEEwEEEC2Ev
FNA:128,2474,_ZN3fmt3v1216basic_format_argINS0_20basic_printf_contextIcEEEC1Ev
FNA:128,2474,_ZN3fmt3v1216basic_format_argINS0_20basic_printf_contextIcEEEC2Ev
FNA:128,2,_ZN3fmt3v1216basic_format_argINS0_20basic_printf_contextIwEEEC1Ev
FNA:128,2,_ZN3fmt3v1216basic_format_argINS0_20basic_printf_contextIwEEEC2Ev
FNA:128,92413,_ZN3fmt3v1216basic_format_argINS0_7contextEEC1Ev
FNA:128,92413,_ZN3fmt3v1216basic_format_argINS0_7contextEEC2Ev
FNL:129,2526,2527
FNA:129,16,_ZN3fmt3v1216basic_format_argINS0_7contextEEC1EPKNS0_6detail14named_arg_infoIcEEm
FNA:129,16,_ZN3fmt3v1216basic_format_argINS0_7contextEEC2EPKNS0_6detail14named_arg_infoIcEEm
FNL:130,2529,2530
FNA:130,3,_ZN3fmt3v1216basic_format_argINS0_20basic_printf_contextIcEEEC1IRNS0_17basic_string_viewIcEEEEOT_
FNA:130,0,_ZN3fmt3v1216basic_format_argINS0_20basic_printf_contextIcEEEC1IbEEOT_
FNA:130,26,_ZN3fmt3v1216basic_format_argINS0_20basic_printf_contextIcEEEC1IcEEOT_
FNA:130,0,_ZN3fmt3v1216basic_format_argINS0_20basic_printf_contextIcEEEC1IhEEOT_
FNA:130,418,_ZN3fmt3v1216basic_format_argINS0_20basic_printf_contextIcEEEC1IiEEOT_
FNA:130,1165,_ZN3fmt3v1216basic_format_argINS0_20basic_printf_contextIcEEEC1IjEEOT_
FNA:130,0,_ZN3fmt3v1216basic_format_argINS0_20basic_printf_contextIcEEEC1IoEEOT_
FNA:130,406,_ZN3fmt3v1216basic_format_argINS0_20basic_printf_contextIcEEEC1IxEEOT_
FNA:130,360,_ZN3fmt3v1216basic_format_argINS0_20basic_printf_contextIcEEEC1IyEEOT_
FNA:130,3,_ZN3fmt3v1216basic_format_argINS0_20basic_printf_contextIcEEEC2IRNS0_17basic_string_viewIcEEEEOT_
FNA:130,0,_ZN3fmt3v1216basic_format_argINS0_20basic_printf_contextIcEEEC2IbEEOT_
FNA:130,26,_ZN3fmt3v1216basic_format_argINS0_20basic_printf_contextIcEEEC2IcEEOT_
FNA:130,0,_ZN3fmt3v1216basic_format_argINS0_20basic_printf_contextIcEEEC2IhEEOT_
FNA:130,418,_ZN3fmt3v1216basic_format_argINS0_20basic_printf_contextIcEEEC2IiEEOT_
FNA:130,1165,_ZN3fmt3v1216basic_format_argINS0_20basic_printf_contextIcEEEC2IjEEOT_
FNA:130,0,_ZN3fmt3v1216basic_format_argINS0_20basic_printf_contextIcEEEC2IoEEOT_
FNA:130,406,_ZN3fmt3v1216basic_format_argINS0_20basic_printf_contextIcEEEC2IxEEOT_
FNA:130,360,_ZN3fmt3v1216basic_format_argINS0_20basic_printf_contextIcEEEC2IyEEOT_
FNA:130,0,_ZN3fmt3v1216basic_format_argINS0_20basic_printf_contextIwEEEC1IRNS0_17basic_string_viewIwEEEEOT_
FNA:130,0,_ZN3fmt3v1216basic_format_argINS0_20basic_printf_contextIwEEEC1IbEEOT_
FNA:130,1,_ZN3fmt3v1216basic_format_argINS0_20basic_printf_contextIwEEEC1IiEEOT_
FNA:130,0,_ZN3fmt3v1216basic_format_argINS0_20basic_printf_contextIwEEEC1IjEEOT_
FNA:130,0,_ZN3fmt3v1216basic_format_argINS0_20basic_printf_contextIwEEEC1IoEEOT_
FNA:130,0,_ZN3fmt3v1216basic_format_argINS0_20basic_printf_contextIwEEEC1IwEEOT_
FNA:130,0,_ZN3fmt3v1216basic_format_argINS0_20basic_printf_contextIwEEEC1IxEEOT_
FNA:130,0,_ZN3fmt3v1216basic_format_argINS0_20basic_printf_contextIwEEEC1IyEEOT_
FNA:130,0,_ZN3fmt3v1216basic_format_argINS0_20basic_printf_contextIwEEEC2IRNS0_17basic_string_viewIwEEEEOT_
FNA:130,0,_ZN3fmt3v1216basic_format_argINS0_20basic_printf_contextIwEEEC2IbEEOT_
FNA:130,1,_ZN3fmt3v1216basic_format_argINS0_20basic_printf_contextIwEEEC2IiEEOT_
FNA:130,0,_ZN3fmt3v1216basic_format_argINS0_20basic_printf_contextIwEEEC2IjEEOT_
FNA:130,0,_ZN3fmt3v1216basic_format_argINS0_20basic_printf_contextIwEEEC2IoEEOT_
FNA:130,0,_ZN3fmt3v1216basic_format_argINS0_20basic_printf_contextIwEEEC2IwEEOT_
FNA:130,0,_ZN3fmt3v1216basic_format_argINS0_20basic_printf_contextIwEEEC2IxEEOT_
FNA:130,0,_ZN3fmt3v1216basic_format_argINS0_20basic_printf_contextIwEEEC2IyEEOT_
FNA:130,1,_ZN3fmt3v1216basic_format_argINS0_7contextEEC1I8big_enumEEOT_
FNA:130,0,_ZN3fmt3v1216basic_format_argINS0_7contextEEC1IR10slow_floatEEOT_
FNA:130,1,_ZN3fmt3v1216basic_format_argINS0_7contextEEC1IR11test_structEEOT_
FNA:130,0,_ZN3fmt3v1216basic_format_argINS0_7contextEEC1IR13double_doubleEEOT_
FNA:130,2,_ZN3fmt3v1216basic_format_argINS0_7contextEEC1IRA11_KcEEOT_
FNA:130,1,_ZN3fmt3v1216basic_format_argINS0_7contextEEC1IRA15_KcEEOT_
FNA:130,6,_ZN3fmt3v1216basic_format_argINS0_7contextEEC1IRK11custom_typeEEOT_
FNA:130,2,_ZN3fmt3v1216basic_format_argINS0_7contextEEC1IRK13to_stringableEEOT_
FNA:130,0,_ZN3fmt3v1216basic_format_argINS0_7contextEEC1IRK14copy_throwableEEOT_
FNA:130,1,_ZN3fmt3v1216basic_format_argINS0_7contextEEC1IRKNS0_17basic_string_viewIcEEEEOT_
FNA:130,7,_ZN3fmt3v1216basic_format_argINS0_7contextEEC1IRKNSt3__112basic_stringIcNS5_11char_traitsIcEENS5_9allocatorIcEEEEEEOT_
FNA:130,2,_ZN3fmt3v1216basic_format_argINS0_7contextEEC1IRKfEEOT_
FNA:130,69,_ZN3fmt3v1216basic_format_argINS0_7contextEEC1IRKiEEOT_
FNA:130,16,_ZN3fmt3v1216basic_format_argINS0_7contextEEC1IRNS0_6detail9named_argIciEEEEOT_
FNA:130,1,_ZN3fmt3v1216basic_format_argINS0_7contextEEC1IRNSt3__112basic_stringIcNS5_11char_traitsIcEENS5_9allocatorIcEEEEEEOT_
FNA:130,1,_ZN3fmt3v1216basic_format_argINS0_7contextEEC1IRPKvEEOT_
FNA:130,1,_ZN3fmt3v1216basic_format_argINS0_7contextEEC1IRPVKvEEOT_
FNA:130,1,_ZN3fmt3v1216basic_format_argINS0_7contextEEC1IRPVvEEOT_
FNA:130,1,_ZN3fmt3v1216basic_format_argINS0_7contextEEC1IRPcEEOT_
FNA:130,1,_ZN3fmt3v1216basic_format_argINS0_7contextEEC1IRPvEEOT_
FNA:130,3,_ZN3fmt3v1216basic_format_argINS0_7contextEEC1IRaEEOT_
FNA:130,3,_ZN3fmt3v1216basic_format_argINS0_7contextEEC1IRbEEOT_
FNA:130,8,_ZN3fmt3v1216basic_format_argINS0_7contextEEC1IRcEEOT_
FNA:130,12,_ZN3fmt3v1216basic_format_argINS0_7contextEEC1IRdEEOT_
FNA:130,3,_ZN3fmt3v1216basic_format_argINS0_7contextEEC1IReEEOT_
FNA:130,3,_ZN3fmt3v1216basic_format_argINS0_7contextEEC1IRfEEOT_
FNA:130,3,_ZN3fmt3v1216basic_format_argINS0_7contextEEC1IRhEEOT_
FNA:130,40,_ZN3fmt3v1216basic_format_argINS0_7contextEEC1IRiEEOT_
FNA:130,5,_ZN3fmt3v1216basic_format_argINS0_7contextEEC1IRjEEOT_
FNA:130,3,_ZN3fmt3v1216basic_format_argINS0_7contextEEC1IRlEEOT_
FNA:130,3,_ZN3fmt3v1216basic_format_argINS0_7contextEEC1IRmEEOT_
FNA:130,0,_ZN3fmt3v1216basic_format_argINS0_7contextEEC1IRnEEOT_
FNA:130,0,_ZN3fmt3v1216basic_format_argINS0_7contextEEC1IRoEEOT_
FNA:130,3,_ZN3fmt3v1216basic_format_argINS0_7contextEEC1IRsEEOT_
FNA:130,3,_ZN3fmt3v1216basic_format_argINS0_7contextEEC1IRtEEOT_
FNA:130,3,_ZN3fmt3v1216basic_format_argINS0_7contextEEC1IRxEEOT_
FNA:130,3,_ZN3fmt3v1216basic_format_argINS0_7contextEEC1IRyEEOT_
FNA:130,1,_ZN3fmt3v1216basic_format_argINS0_7contextEEC2I8big_enumEEOT_
FNA:130,0,_ZN3fmt3v1216basic_format_argINS0_7contextEEC2IR10slow_floatEEOT_
FNA:130,1,_ZN3fmt3v1216basic_format_argINS0_7contextEEC2IR11test_structEEOT_
FNA:130,0,_ZN3fmt3v1216basic_format_argINS0_7contextEEC2IR13double_doubleEEOT_
FNA:130,2,_ZN3fmt3v1216basic_format_argINS0_7contextEEC2IRA11_KcEEOT_
FNA:130,1,_ZN3fmt3v1216basic_format_argINS0_7contextEEC2IRA15_KcEEOT_
FNA:130,6,_ZN3fmt3v1216basic_format_argINS0_7contextEEC2IRK11custom_typeEEOT_
FNA:130,2,_ZN3fmt3v1216basic_format_argINS0_7contextEEC2IRK13to_stringableEEOT_
FNA:130,0,_ZN3fmt3v1216basic_format_argINS0_7contextEEC2IRK14copy_throwableEEOT_
FNA:130,1,_ZN3fmt3v1216basic_format_argINS0_7contextEEC2IRKNS0_17basic_string_viewIcEEEEOT_
FNA:130,7,_ZN3fmt3v1216basic_format_argINS0_7contextEEC2IRKNSt3__112basic_stringIcNS5_11char_traitsIcEENS5_9allocatorIcEEEEEEOT_
FNA:130,2,_ZN3fmt3v1216basic_format_argINS0_7contextEEC2IRKfEEOT_
FNA:130,69,_ZN3fmt3v1216basic_format_argINS0_7contextEEC2IRKiEEOT_
FNA:130,16,_ZN3fmt3v1216basic_format_argINS0_7contextEEC2IRNS0_6detail9named_argIciEEEEOT_
FNA:130,1,_ZN3fmt3v1216basic_format_argINS0_7contextEEC2IRNSt3__112basic_stringIcNS5_11char_traitsIcEENS5_9allocatorIcEEEEEEOT_
FNA:130,1,_ZN3fmt3v1216basic_format_argINS0_7contextEEC2IRPKvEEOT_
FNA:130,1,_ZN3fmt3v1216basic_format_argINS0_7contextEEC2IRPVKvEEOT_
FNA:130,1,_ZN3fmt3v1216basic_format_argINS0_7contextEEC2IRPVvEEOT_
FNA:130,1,_ZN3fmt3v1216basic_format_argINS0_7contextEEC2IRPcEEOT_
FNA:130,1,_ZN3fmt3v1216basic_format_argINS0_7contextEEC2IRPvEEOT_
FNA:130,3,_ZN3fmt3v1216basic_format_argINS0_7contextEEC2IRaEEOT_
FNA:130,3,_ZN3fmt3v1216basic_format_argINS0_7contextEEC2IRbEEOT_
FNA:130,8,_ZN3fmt3v1216basic_format_argINS0_7contextEEC2IRcEEOT_
FNA:130,12,_ZN3fmt3v1216basic_format_argINS0_7contextEEC2IRdEEOT_
FNA:130,3,_ZN3fmt3v1216basic_format_argINS0_7contextEEC2IReEEOT_
FNA:130,3,_ZN3fmt3v1216basic_format_argINS0_7contextEEC2IRfEEOT_
FNA:130,3,_ZN3fmt3v1216basic_format_argINS0_7contextEEC2IRhEEOT_
FNA:130,40,_ZN3fmt3v1216basic_format_argINS0_7contextEEC2IRiEEOT_
FNA:130,5,_ZN3fmt3v1216basic_format_argINS0_7contextEEC2IRjEEOT_
FNA:130,3,_ZN3fmt3v1216basic_format_argINS0_7contextEEC2IRlEEOT_
FNA:130,3,_ZN3fmt3v1216basic_format_argINS0_7contextEEC2IRmEEOT_
FNA:130,0,_ZN3fmt3v1216basic_format_argINS0_7contextEEC2IRnEEOT_
FNA:130,0,_ZN3fmt3v1216basic_format_argINS0_7contextEEC2IRoEEOT_
FNA:130,3,_ZN3fmt3v1216basic_format_argINS0_7contextEEC2IRsEEOT_
FNA:130,3,_ZN3fmt3v1216basic_format_argINS0_7contextEEC2IRtEEOT_
FNA:130,3,_ZN3fmt3v1216basic_format_argINS0_7contextEEC2IRxEEOT_
FNA:130,3,_ZN3fmt3v1216basic_format_argINS0_7contextEEC2IRyEEOT_
FNL:131,2532,2533
FNA:131,19,_ZNK3fmt3v1216basic_format_argINS0_15generic_contextINS0_14basic_appenderIwEEwEEEcvbEv
FNA:131,2474,_ZNK3fmt3v1216basic_format_argINS0_20basic_printf_contextIcEEEcvbEv
FNA:131,2,_ZNK3fmt3v1216basic_format_argINS0_20basic_printf_contextIwEEEcvbEv
FNA:131,22861,_ZNK3fmt3v1216basic_format_argINS0_7contextEEcvbEv
FNL:132,2535,2535
FNA:132,11,_ZNK3fmt3v1216basic_format_argINS0_15generic_contextINS0_14basic_appenderIwEEwEEE4typeEv
FNA:132,5068,_ZNK3fmt3v1216basic_format_argINS0_20basic_printf_contextIcEEE4typeEv
FNA:132,4,_ZNK3fmt3v1216basic_format_argINS0_20basic_printf_contextIwEEE4typeEv
FNA:132,1791,_ZNK3fmt3v1216basic_format_argINS0_7contextEE4typeEv
FNL:133,2543,2564
FNA:133,9,_ZNK3fmt3v1216basic_format_argINS0_15generic_contextINS0_14basic_appenderIwEEwEEE5visitINS0_6detail13arg_formatterIwEEEEDTclfp_Li0EEEOT_
FNA:133,0,_ZNK3fmt3v1216basic_format_argINS0_15generic_contextINS0_14basic_appenderIwEEwEEE5visitINS0_6detail19dynamic_spec_getterEEEDTclfp_Li0EEEOT_
FNA:133,48,_ZNK3fmt3v1216basic_format_argINS0_15generic_contextINS0_14basic_appenderIwEEwEEE5visitINS0_6detail21default_arg_formatterIwEEEEDTclfp_Li0EEEOT_
FNA:133,3,_ZNK3fmt3v1216basic_format_argINS0_20basic_printf_contextIcEEE5visitINS0_6detail11get_cstringIcEEEEDTclfp_Li0EEEOT_
FNA:133,48,_ZNK3fmt3v1216basic_format_argINS0_20basic_printf_contextIcEEE5visitINS0_6detail11is_zero_intEEEDTclfp_Li0EEEOT_
FNA:133,582,_ZNK3fmt3v1216basic_format_argINS0_20basic_printf_contextIcEEE5visitINS0_6detail13arg_converterIaS3_EEEEDTclfp_Li0EEEOT_
FNA:133,684,_ZNK3fmt3v1216basic_format_argINS0_20basic_printf_contextIcEEE5visitINS0_6detail13arg_converterIlS3_EEEEDTclfp_Li0EEEOT_
FNA:133,180,_ZNK3fmt3v1216basic_format_argINS0_20basic_printf_contextIcEEE5visitINS0_6detail13arg_converterImS3_EEEEDTclfp_Li0EEEOT_
FNA:133,384,_ZNK3fmt3v1216basic_format_argINS0_20basic_printf_contextIcEEE5visitINS0_6detail13arg_converterIsS3_EEEEDTclfp_Li0EEEOT_
FNA:133,276,_ZNK3fmt3v1216basic_format_argINS0_20basic_printf_contextIcEEE5visitINS0_6detail13arg_converterIvS3_EEEEDTclfp_Li0EEEOT_
FNA:133,348,_ZNK3fmt3v1216basic_format_argINS0_20basic_printf_contextIcEEE5visitINS0_6detail13arg_converterIxS3_EEEEDTclfp_Li0EEEOT_
FNA:133,26,_ZNK3fmt3v1216basic_format_argINS0_20basic_printf_contextIcEEE5visitINS0_6detail14char_converterIS3_EEEEDTclfp_Li0EEEOT_
FNA:133,2455,_ZNK3fmt3v1216basic_format_argINS0_20basic_printf_contextIcEEE5visitINS0_6detail20printf_arg_formatterIcEEEEDTclfp_Li0EEEOT_
FNA:133,4,_ZNK3fmt3v1216basic_format_argINS0_20basic_printf_contextIcEEE5visitINS0_6detail20printf_width_handlerEEEDTclfp_Li0EEEOT_
FNA:133,6,_ZNK3fmt3v1216basic_format_argINS0_20basic_printf_contextIcEEE5visitINS0_6detail24printf_precision_handlerEEEDTclfp_Li0EEEOT_
FNA:133,0,_ZNK3fmt3v1216basic_format_argINS0_20basic_printf_contextIwEEE5visitINS0_6detail11get_cstringIwEEEEDTclfp_Li0EEEOT_
FNA:133,0,_ZNK3fmt3v1216basic_format_argINS0_20basic_printf_contextIwEEE5visitINS0_6detail11is_zero_intEEEDTclfp_Li0EEEOT_
FNA:133,0,_ZNK3fmt3v1216basic_format_argINS0_20basic_printf_contextIwEEE5visitINS0_6detail13arg_converterIaS3_EEEEDTclfp_Li0EEEOT_
FNA:133,0,_ZNK3fmt3v1216basic_format_argINS0_20basic_printf_contextIwEEE5visitINS0_6detail13arg_converterIlS3_EEEEDTclfp_Li0EEEOT_
FNA:133,0,_ZNK3fmt3v1216basic_format_argINS0_20basic_printf_contextIwEEE5visitINS0_6detail13arg_converterImS3_EEEEDTclfp_Li0EEEOT_
FNA:133,0,_ZNK3fmt3v1216basic_format_argINS0_20basic_printf_contextIwEEE5visitINS0_6detail13arg_converterIsS3_EEEEDTclfp_Li0EEEOT_
FNA:133,2,_ZNK3fmt3v1216basic_format_argINS0_20basic_printf_contextIwEEE5visitINS0_6detail13arg_converterIvS3_EEEEDTclfp_Li0EEEOT_
FNA:133,0,_ZNK3fmt3v1216basic_format_argINS0_20basic_printf_contextIwEEE5visitINS0_6detail13arg_converterIxS3_EEEEDTclfp_Li0EEEOT_
FNA:133,0,_ZNK3fmt3v1216basic_format_argINS0_20basic_printf_contextIwEEE5visitINS0_6detail14char_converterIS3_EEEEDTclfp_Li0EEEOT_
FNA:133,2,_ZNK3fmt3v1216basic_format_argINS0_20basic_printf_contextIwEEE5visitINS0_6detail20printf_arg_formatterIwEEEEDTclfp_Li0EEEOT_
FNA:133,0,_ZNK3fmt3v1216basic_format_argINS0_20basic_printf_contextIwEEE5visitINS0_6detail20printf_width_handlerEEEDTclfp_Li0EEEOT_
FNA:133,0,_ZNK3fmt3v1216basic_format_argINS0_20basic_printf_contextIwEEE5visitINS0_6detail24printf_precision_handlerEEEDTclfp_Li0EEEOT_
FNA:133,512,_ZNK3fmt3v1216basic_format_argINS0_7contextEE5visitINS0_6detail13arg_formatterIcEEEEDTclfp_Li0EEEOT_
FNA:133,100,_ZNK3fmt3v1216basic_format_argINS0_7contextEE5visitINS0_6detail19dynamic_spec_getterEEEDTclfp_Li0EEEOT_
FNA:133,69551,_ZNK3fmt3v1216basic_format_argINS0_7contextEE5visitINS0_6detail21default_arg_formatterIcEEEEDTclfp_Li0EEEOT_
FNA:133,2,_ZNK3fmt3v1216basic_format_argINS0_7contextEE5visitIRN12format_facet13int_formatterEEEDTclfp_Li0EEEOT_
FNA:133,1,_ZNK3fmt3v1216basic_format_argINS0_7contextEE5visitIRN7testing10StrictMockI12mock_visitorINS0_17basic_string_viewIcEEEEEEEDTclfp_Li0EEEOT_
FNA:133,1,_ZNK3fmt3v1216basic_format_argINS0_7contextEE5visitIRN7testing10StrictMockI12mock_visitorINS0_9monostateEEEEEEDTclfp_Li0EEEOT_
FNA:133,1,_ZNK3fmt3v1216basic_format_argINS0_7contextEE5visitIRN7testing10StrictMockI12mock_visitorINS3_6handleEEEEEEDTclfp_Li0EEEOT_
FNA:133,1,_ZNK3fmt3v1216basic_format_argINS0_7contextEE5visitIRN7testing10StrictMockI12mock_visitorIPKcEEEEEDTclfp_Li0EEEOT_
FNA:133,4,_ZNK3fmt3v1216basic_format_argINS0_7contextEE5visitIRN7testing10StrictMockI12mock_visitorIPKvEEEEEDTclfp_Li0EEEOT_
FNA:133,3,_ZNK3fmt3v1216basic_format_argINS0_7contextEE5visitIRN7testing10StrictMockI12mock_visitorIbEEEEEDTclfp_Li0EEEOT_
FNA:133,1,_ZNK3fmt3v1216basic_format_argINS0_7contextEE5visitIRN7testing10StrictMockI12mock_visitorIcEEEEEDTclfp_Li0EEEOT_
FNA:133,3,_ZNK3fmt3v1216basic_format_argINS0_7contextEE5visitIRN7testing10StrictMockI12mock_visitorIdEEEEEDTclfp_Li0EEEOT_
FNA:133,3,_ZNK3fmt3v1216basic_format_argINS0_7contextEE5visitIRN7testing10StrictMockI12mock_visitorIeEEEEEDTclfp_Li0EEEOT_
FNA:133,3,_ZNK3fmt3v1216basic_format_argINS0_7contextEE5visitIRN7testing10StrictMockI12mock_visitorIfEEEEEDTclfp_Li0EEEOT_
FNA:133,9,_ZNK3fmt3v1216basic_format_argINS0_7contextEE5visitIRN7testing10StrictMockI12mock_visitorIiEEEEEDTclfp_Li0EEEOT_
FNA:133,9,_ZNK3fmt3v1216basic_format_argINS0_7contextEE5visitIRN7testing10StrictMockI12mock_visitorIjEEEEEDTclfp_Li0EEEOT_
FNA:133,6,_ZNK3fmt3v1216basic_format_argINS0_7contextEE5visitIRN7testing10StrictMockI12mock_visitorIxEEEEEDTclfp_Li0EEEOT_
FNA:133,6,_ZNK3fmt3v1216basic_format_argINS0_7contextEE5visitIRN7testing10StrictMockI12mock_visitorIyEEEEEDTclfp_Li0EEEOT_
FNA:133,28,_ZNK3fmt3v1216basic_format_argINS0_7contextEE5visitIRNS0_6detail10loc_writerIcEEEEDTclfp_Li0EEEOT_
FNA:133,8,_ZNK3fmt3v1216basic_format_argINS0_7contextEE5visitIRNS0_6detail10loc_writerIwEEEEDTclfp_Li0EEEOT_
FNL:134,2566,2573
FNA:134,19,_ZN3fmt3v1216basic_format_argINS0_15generic_contextINS0_14basic_appenderIwEEwEEE13format_customEPKwRNS0_13parse_contextIwEERS5_
FNA:134,22753,_ZN3fmt3v1216basic_format_argINS0_7contextEE13format_customEPKcRNS0_13parse_contextIcEERS2_
FNL:135,2601,2602
FNA:135,75,_ZNK3fmt3v1217basic_format_argsINS0_15generic_contextINS0_14basic_appenderIwEEwEEE9is_packedEv
FNA:135,2474,_ZNK3fmt3v1217basic_format_argsINS0_20basic_printf_contextIcEEE9is_packedEv
FNA:135,2,_ZNK3fmt3v1217basic_format_argsINS0_20basic_printf_contextIwEEE9is_packedEv
FNA:135,92487,_ZNK3fmt3v1217basic_format_argsINS0_7contextEE9is_packedEv
FNL:136,2604,2605
FNA:136,8,_ZNK3fmt3v1217basic_format_argsINS0_15generic_contextINS0_14basic_appenderIwEEwEEE14has_named_argsEv
FNA:136,32,_ZNK3fmt3v1217basic_format_argsINS0_7contextEE14has_named_argsEv
FNL:137,2608,2612
FNA:137,67,_ZNK3fmt3v1217basic_format_argsINS0_15generic_contextINS0_14basic_appenderIwEEwEEE4typeEi
FNA:137,2470,_ZNK3fmt3v1217basic_format_argsINS0_20basic_printf_contextIcEEE4typeEi
FNA:137,2,_ZNK3fmt3v1217basic_format_argsINS0_20basic_printf_contextIwEEE4typeEi
FNA:137,92357,_ZNK3fmt3v1217basic_format_argsINS0_7contextEE4typeEi
FNL:138,2621,2621
FNA:138,13,_ZN3fmt3v1217basic_format_argsINS0_15generic_contextINS0_14basic_appenderIwEEwEEEC1Ev
FNA:138,13,_ZN3fmt3v1217basic_format_argsINS0_15generic_contextINS0_14basic_appenderIwEEwEEEC2Ev
FNA:138,334,_ZN3fmt3v1217basic_format_argsINS0_7contextEEC1Ev
FNA:138,334,_ZN3fmt3v1217basic_format_argsINS0_7contextEEC2Ev
FNL:139,2626,2629
FNA:139,1,_ZN3fmt3v1217basic_format_argsINS0_15generic_contextINS0_14basic_appenderIwEEwEEEC1ILi0ELi0ELy0ELi0EEERKNS0_6detail16format_arg_storeIS5_XT_EXT0_EXT1_EEE
FNA:139,2,_ZN3fmt3v1217basic_format_argsINS0_15generic_contextINS0_14basic_appenderIwEEwEEEC1ILi1ELi0ELy10ELi0EEERKNS0_6detail16format_arg_storeIS5_XT_EXT0_EXT1_EEE
FNA:139,3,_ZN3fmt3v1217basic_format_argsINS0_15generic_contextINS0_14basic_appenderIwEEwEEEC1ILi1ELi0ELy12ELi0EEERKNS0_6detail16format_arg_storeIS5_XT_EXT0_EXT1_EEE
FNA:139,1,_ZN3fmt3v1217basic_format_argsINS0_15generic_contextINS0_14basic_appenderIwEEwEEEC1ILi1ELi0ELy13ELi0EEERKNS0_6detail16format_arg_storeIS5_XT_EXT0_EXT1_EEE
FNA:139,21,_ZN3fmt3v1217basic_format_argsINS0_15generic_contextINS0_14basic_appenderIwEEwEEEC1ILi1ELi0ELy15ELi0EEERKNS0_6detail16format_arg_storeIS5_XT_EXT0_EXT1_EEE
FNA:139,20,_ZN3fmt3v1217basic_format_argsINS0_15generic_contextINS0_14basic_appenderIwEEwEEEC1ILi1ELi0ELy1ELi0EEERKNS0_6detail16format_arg_storeIS5_XT_EXT0_EXT1_EEE
FNA:139,1,_ZN3fmt3v1217basic_format_argsINS0_15generic_contextINS0_14basic_appenderIwEEwEEEC1ILi1ELi0ELy2ELi0EEERKNS0_6detail16format_arg_storeIS5_XT_EXT0_EXT1_EEE
FNA:139,1,_ZN3fmt3v1217basic_format_argsINS0_15generic_contextINS0_14basic_appenderIwEEwEEEC1ILi1ELi0ELy7ELi0EEERKNS0_6detail16format_arg_storeIS5_XT_EXT0_EXT1_EEE
FNA:139,4,_ZN3fmt3v1217basic_format_argsINS0_15generic_contextINS0_14basic_appenderIwEEwEEEC1ILi1ELi0ELy8ELi0EEERKNS0_6detail16format_arg_storeIS5_XT_EXT0_EXT1_EEE
FNA:139,1,_ZN3fmt3v1217basic_format_argsINS0_15generic_contextINS0_14basic_appenderIwEEwEEEC1ILi2ELi0ELy129ELi0EEERKNS0_6detail16format_arg_storeIS5_XT_EXT0_EXT1_EEE
FNA:139,1,_ZN3fmt3v1217basic_format_argsINS0_15generic_contextINS0_14basic_appenderIwEEwEEEC1ILi2ELi0ELy136ELi0EEERKNS0_6detail16format_arg_storeIS5_XT_EXT0_EXT1_EEE
FNA:139,1,_ZN3fmt3v1217basic_format_argsINS0_15generic_contextINS0_14basic_appenderIwEEwEEEC1ILi2ELi0ELy28ELi0EEERKNS0_6detail16format_arg_storeIS5_XT_EXT0_EXT1_EEE
FNA:139,2,_ZN3fmt3v1217basic_format_argsINS0_15generic_contextINS0_14basic_appenderIwEEwEEEC1ILi3ELi3ELy460ELi0EEERKNS0_6detail16format_arg_storeIS5_XT_EXT0_EXT1_EEE
FNA:139,1,_ZN3fmt3v1217basic_format_argsINS0_15generic_contextINS0_14basic_appenderIwEEwEEEC2ILi0ELi0ELy0ELi0EEERKNS0_6detail16format_arg_storeIS5_XT_EXT0_EXT1_EEE
FNA:139,2,_ZN3fmt3v1217basic_format_argsINS0_15generic_contextINS0_14basic_appenderIwEEwEEEC2ILi1ELi0ELy10ELi0EEERKNS0_6detail16format_arg_storeIS5_XT_EXT0_EXT1_EEE
FNA:139,3,_ZN3fmt3v1217basic_format_argsINS0_15generic_contextINS0_14basic_appenderIwEEwEEEC2ILi1ELi0ELy12ELi0EEERKNS0_6detail16format_arg_storeIS5_XT_EXT0_EXT1_EEE
FNA:139,1,_ZN3fmt3v1217basic_format_argsINS0_15generic_contextINS0_14basic_appenderIwEEwEEEC2ILi1ELi0ELy13ELi0EEERKNS0_6detail16format_arg_storeIS5_XT_EXT0_EXT1_EEE
FNA:139,21,_ZN3fmt3v1217basic_format_argsINS0_15generic_contextINS0_14basic_appenderIwEEwEEEC2ILi1ELi0ELy15ELi0EEERKNS0_6detail16format_arg_storeIS5_XT_EXT0_EXT1_EEE
FNA:139,20,_ZN3fmt3v1217basic_format_argsINS0_15generic_contextINS0_14basic_appenderIwEEwEEEC2ILi1ELi0ELy1ELi0EEERKNS0_6detail16format_arg_storeIS5_XT_EXT0_EXT1_EEE
FNA:139,1,_ZN3fmt3v1217basic_format_argsINS0_15generic_contextINS0_14basic_appenderIwEEwEEEC2ILi1ELi0ELy2ELi0EEERKNS0_6detail16format_arg_storeIS5_XT_EXT0_EXT1_EEE
FNA:139,1,_ZN3fmt3v1217basic_format_argsINS0_15generic_contextINS0_14basic_appenderIwEEwEEEC2ILi1ELi0ELy7ELi0EEERKNS0_6detail16format_arg_storeIS5_XT_EXT0_EXT1_EEE
FNA:139,4,_ZN3fmt3v1217basic_format_argsINS0_15generic_contextINS0_14basic_appenderIwEEwEEEC2ILi1ELi0ELy8ELi0EEERKNS0_6detail16format_arg_storeIS5_XT_EXT0_EXT1_EEE
FNA:139,1,_ZN3fmt3v1217basic_format_argsINS0_15generic_contextINS0_14basic_appenderIwEEwEEEC2ILi2ELi0ELy129ELi0EEERKNS0_6detail16format_arg_storeIS5_XT_EXT0_EXT1_EEE
FNA:139,1,_ZN3fmt3v1217basic_format_argsINS0_15generic_contextINS0_14basic_appenderIwEEwEEEC2ILi2ELi0ELy136ELi0EEERKNS0_6detail16format_arg_storeIS5_XT_EXT0_EXT1_EEE
FNA:139,1,_ZN3fmt3v1217basic_format_argsINS0_15generic_contextINS0_14basic_appenderIwEEwEEEC2ILi2ELi0ELy28ELi0EEERKNS0_6detail16format_arg_storeIS5_XT_EXT0_EXT1_EEE
FNA:139,2,_ZN3fmt3v1217basic_format_argsINS0_15generic_contextINS0_14basic_appenderIwEEwEEEC2ILi3ELi3ELy460ELi0EEERKNS0_6detail16format_arg_storeIS5_XT_EXT0_EXT1_EEE
FNA:139,11,_ZN3fmt3v1217basic_format_argsINS0_20basic_printf_contextIcEEEC1ILi0ELi0ELy0ELi0EEERKNS0_6detail16format_arg_storeIS3_XT_EXT0_EXT1_EEE
FNA:139,66,_ZN3fmt3v1217basic_format_argsINS0_20basic_printf_contextIcEEEC1ILi1ELi0ELy10ELi0EEERKNS0_6detail16format_arg_storeIS3_XT_EXT0_EXT1_EEE
FNA:139,4,_ZN3fmt3v1217basic_format_argsINS0_20basic_printf_contextIcEEEC1ILi1ELi0ELy11ELi0EEERKNS0_6detail16format_arg_storeIS3_XT_EXT0_EXT1_EEE
FNA:139,21,_ZN3fmt3v1217basic_format_argsINS0_20basic_printf_contextIcEEEC1ILi1ELi0ELy12ELi0EEERKNS0_6detail16format_arg_storeIS3_XT_EXT0_EXT1_EEE
FNA:139,6,_ZN3fmt3v1217basic_format_argsINS0_20basic_printf_contextIcEEEC1ILi1ELi0ELy14ELi0EEERKNS0_6detail16format_arg_storeIS3_XT_EXT0_EXT1_EEE
FNA:139,901,_ZN3fmt3v1217basic_format_argsINS0_20basic_printf_contextIcEEEC1ILi1ELi0ELy1ELi0EEERKNS0_6detail16format_arg_storeIS3_XT_EXT0_EXT1_EEE
FNA:139,480,_ZN3fmt3v1217basic_format_argsINS0_20basic_printf_contextIcEEEC1ILi1ELi0ELy2ELi0EEERKNS0_6detail16format_arg_storeIS3_XT_EXT0_EXT1_EEE
FNA:139,542,_ZN3fmt3v1217basic_format_argsINS0_20basic_printf_contextIcEEEC1ILi1ELi0ELy3ELi0EEERKNS0_6detail16format_arg_storeIS3_XT_EXT0_EXT1_EEE
FNA:139,360,_ZN3fmt3v1217basic_format_argsINS0_20basic_printf_contextIcEEEC1ILi1ELi0ELy4ELi0EEERKNS0_6detail16format_arg_storeIS3_XT_EXT0_EXT1_EEE
FNA:139,2,_ZN3fmt3v1217basic_format_argsINS0_20basic_printf_contextIcEEEC1ILi1ELi0ELy7ELi0EEERKNS0_6detail16format_arg_storeIS3_XT_EXT0_EXT1_EEE
FNA:139,50,_ZN3fmt3v1217basic_format_argsINS0_20basic_printf_contextIcEEEC1ILi1ELi0ELy8ELi0EEERKNS0_6detail16format_arg_storeIS3_XT_EXT0_EXT1_EEE
FNA:139,1,_ZN3fmt3v1217basic_format_argsINS0_20basic_printf_contextIcEEEC1ILi2ELi0ELy161ELi0EEERKNS0_6detail16format_arg_storeIS3_XT_EXT0_EXT1_EEE
FNA:139,12,_ZN3fmt3v1217basic_format_argsINS0_20basic_printf_contextIcEEEC1ILi2ELi0ELy17ELi0EEERKNS0_6detail16format_arg_storeIS3_XT_EXT0_EXT1_EEE
FNA:139,2,_ZN3fmt3v1217basic_format_argsINS0_20basic_printf_contextIcEEEC1ILi2ELi0ELy18ELi0EEERKNS0_6detail16format_arg_storeIS3_XT_EXT0_EXT1_EEE
FNA:139,1,_ZN3fmt3v1217basic_format_argsINS0_20basic_printf_contextIcEEEC1ILi2ELi0ELy193ELi0EEERKNS0_6detail16format_arg_storeIS3_XT_EXT0_EXT1_EEE
FNA:139,1,_ZN3fmt3v1217basic_format_argsINS0_20basic_printf_contextIcEEEC1ILi2ELi0ELy19ELi0EEERKNS0_6detail16format_arg_storeIS3_XT_EXT0_EXT1_EEE
FNA:139,1,_ZN3fmt3v1217basic_format_argsINS0_20basic_printf_contextIcEEEC1ILi2ELi0ELy200ELi0EEERKNS0_6detail16format_arg_storeIS3_XT_EXT0_EXT1_EEE
FNA:139,1,_ZN3fmt3v1217basic_format_argsINS0_20basic_printf_contextIcEEEC1ILi2ELi0ELy204ELi0EEERKNS0_6detail16format_arg_storeIS3_XT_EXT0_EXT1_EEE
FNA:139,2,_ZN3fmt3v1217basic_format_argsINS0_20basic_printf_contextIcEEEC1ILi2ELi0ELy26ELi0EEERKNS0_6detail16format_arg_storeIS3_XT_EXT0_EXT1_EEE
FNA:139,2,_ZN3fmt3v1217basic_format_argsINS0_20basic_printf_contextIcEEEC1ILi2ELi0ELy28ELi0EEERKNS0_6detail16format_arg_storeIS3_XT_EXT0_EXT1_EEE
FNA:139,1,_ZN3fmt3v1217basic_format_argsINS0_20basic_printf_contextIcEEEC1ILi3ELi0ELy2184ELi0EEERKNS0_6detail16format_arg_storeIS3_XT_EXT0_EXT1_EEE
FNA:139,1,_ZN3fmt3v1217basic_format_argsINS0_20basic_printf_contextIcEEEC1ILi3ELi0ELy460ELi0EEERKNS0_6detail16format_arg_storeIS3_XT_EXT0_EXT1_EEE
FNA:139,11,_ZN3fmt3v1217basic_format_argsINS0_20basic_printf_contextIcEEEC2ILi0ELi0ELy0ELi0EEERKNS0_6detail16format_arg_storeIS3_XT_EXT0_EXT1_EEE
FNA:139,66,_ZN3fmt3v1217basic_format_argsINS0_20basic_printf_contextIcEEEC2ILi1ELi0ELy10ELi0EEERKNS0_6detail16format_arg_storeIS3_XT_EXT0_EXT1_EEE
FNA:139,4,_ZN3fmt3v1217basic_format_argsINS0_20basic_printf_contextIcEEEC2ILi1ELi0ELy11ELi0EEERKNS0_6detail16format_arg_storeIS3_XT_EXT0_EXT1_EEE
FNA:139,21,_ZN3fmt3v1217basic_format_argsINS0_20basic_printf_contextIcEEEC2ILi1ELi0ELy12ELi0EEERKNS0_6detail16format_arg_storeIS3_XT_EXT0_EXT1_EEE
FNA:139,6,_ZN3fmt3v1217basic_format_argsINS0_20basic_printf_contextIcEEEC2ILi1ELi0ELy14ELi0EEERKNS0_6detail16format_arg_storeIS3_XT_EXT0_EXT1_EEE
FNA:139,901,_ZN3fmt3v1217basic_format_argsINS0_20basic_printf_contextIcEEEC2ILi1ELi0ELy1ELi0EEERKNS0_6detail16format_arg_storeIS3_XT_EXT0_EXT1_EEE
FNA:139,480,_ZN3fmt3v1217basic_format_argsINS0_20basic_printf_contextIcEEEC2ILi1ELi0ELy2ELi0EEERKNS0_6detail16format_arg_storeIS3_XT_EXT0_EXT1_EEE
FNA:139,542,_ZN3fmt3v1217basic_format_argsINS0_20basic_printf_contextIcEEEC2ILi1ELi0ELy3ELi0EEERKNS0_6detail16format_arg_storeIS3_XT_EXT0_EXT1_EEE
FNA:139,360,_ZN3fmt3v1217basic_format_argsINS0_20basic_printf_contextIcEEEC2ILi1ELi0ELy4ELi0EEERKNS0_6detail16format_arg_storeIS3_XT_EXT0_EXT1_EEE
FNA:139,2,_ZN3fmt3v1217basic_format_argsINS0_20basic_printf_contextIcEEEC2ILi1ELi0ELy7ELi0EEERKNS0_6detail16format_arg_storeIS3_XT_EXT0_EXT1_EEE
FNA:139,50,_ZN3fmt3v1217basic_format_argsINS0_20basic_printf_contextIcEEEC2ILi1ELi0ELy8ELi0EEERKNS0_6detail16format_arg_storeIS3_XT_EXT0_EXT1_EEE
FNA:139,1,_ZN3fmt3v1217basic_format_argsINS0_20basic_printf_contextIcEEEC2ILi2ELi0ELy161ELi0EEERKNS0_6detail16format_arg_storeIS3_XT_EXT0_EXT1_EEE
FNA:139,12,_ZN3fmt3v1217basic_format_argsINS0_20basic_printf_contextIcEEEC2ILi2ELi0ELy17ELi0EEERKNS0_6detail16format_arg_storeIS3_XT_EXT0_EXT1_EEE
FNA:139,2,_ZN3fmt3v1217basic_format_argsINS0_20basic_printf_contextIcEEEC2ILi2ELi0ELy18ELi0EEERKNS0_6detail16format_arg_storeIS3_XT_EXT0_EXT1_EEE
FNA:139,1,_ZN3fmt3v1217basic_format_argsINS0_20basic_printf_contextIcEEEC2ILi2ELi0ELy193ELi0EEERKNS0_6detail16format_arg_storeIS3_XT_EXT0_EXT1_EEE
FNA:139,1,_ZN3fmt3v1217basic_format_argsINS0_20basic_printf_contextIcEEEC2ILi2ELi0ELy19ELi0EEERKNS0_6detail16format_arg_storeIS3_XT_EXT0_EXT1_EEE
FNA:139,1,_ZN3fmt3v1217basic_format_argsINS0_20basic_printf_contextIcEEEC2ILi2ELi0ELy200ELi0EEERKNS0_6detail16format_arg_storeIS3_XT_EXT0_EXT1_EEE
FNA:139,1,_ZN3fmt3v1217basic_format_argsINS0_20basic_printf_contextIcEEEC2ILi2ELi0ELy204ELi0EEERKNS0_6detail16format_arg_storeIS3_XT_EXT0_EXT1_EEE
FNA:139,2,_ZN3fmt3v1217basic_format_argsINS0_20basic_printf_contextIcEEEC2ILi2ELi0ELy26ELi0EEERKNS0_6detail16format_arg_storeIS3_XT_EXT0_EXT1_EEE
FNA:139,2,_ZN3fmt3v1217basic_format_argsINS0_20basic_printf_contextIcEEEC2ILi2ELi0ELy28ELi0EEERKNS0_6detail16format_arg_storeIS3_XT_EXT0_EXT1_EEE
FNA:139,1,_ZN3fmt3v1217basic_format_argsINS0_20basic_printf_contextIcEEEC2ILi3ELi0ELy2184ELi0EEERKNS0_6detail16format_arg_storeIS3_XT_EXT0_EXT1_EEE
FNA:139,1,_ZN3fmt3v1217basic_format_argsINS0_20basic_printf_contextIcEEEC2ILi3ELi0ELy460ELi0EEERKNS0_6detail16format_arg_storeIS3_XT_EXT0_EXT1_EEE
FNA:139,1,_ZN3fmt3v1217basic_format_argsINS0_20basic_printf_contextIwEEEC1ILi2ELi0ELy193ELi0EEERKNS0_6detail16format_arg_storeIS3_XT_EXT0_EXT1_EEE
FNA:139,1,_ZN3fmt3v1217basic_format_argsINS0_20basic_printf_contextIwEEEC2ILi2ELi0ELy193ELi0EEERKNS0_6detail16format_arg_storeIS3_XT_EXT0_EXT1_EEE
FNA:139,1092,_ZN3fmt3v1217basic_format_argsINS0_7contextEEC1ILi0ELi0ELy0ELi0EEERKNS0_6detail16format_arg_storeIS2_XT_EXT0_EXT1_EEE
FNA:139,1,_ZN3fmt3v1217basic_format_argsINS0_7contextEEC1ILi15ELi0ELy76861433640456465ELi0EEERKNS0_6detail16format_arg_storeIS2_XT_EXT0_EXT1_EEE
FNA:139,2460,_ZN3fmt3v1217basic_format_argsINS0_7contextEEC1ILi1ELi0ELy10ELi0EEERKNS0_6detail16format_arg_storeIS2_XT_EXT0_EXT1_EEE
FNA:139,28,_ZN3fmt3v1217basic_format_argsINS0_7contextEEC1ILi1ELi0ELy11ELi0EEERKNS0_6detail16format_arg_storeIS2_XT_EXT0_EXT1_EEE
FNA:139,2484,_ZN3fmt3v1217basic_format_argsINS0_7contextEEC1ILi1ELi0ELy12ELi0EEERKNS0_6detail16format_arg_storeIS2_XT_EXT0_EXT1_EEE
FNA:139,40456,_ZN3fmt3v1217basic_format_argsINS0_7contextEEC1ILi1ELi0ELy13ELi0EEERKNS0_6detail16format_arg_storeIS2_XT_EXT0_EXT1_EEE
FNA:139,268,_ZN3fmt3v1217basic_format_argsINS0_7contextEEC1ILi1ELi0ELy14ELi0EEERKNS0_6detail16format_arg_storeIS2_XT_EXT0_EXT1_EEE
FNA:139,21217,_ZN3fmt3v1217basic_format_argsINS0_7contextEEC1ILi1ELi0ELy15ELi0EEERKNS0_6detail16format_arg_storeIS2_XT_EXT0_EXT1_EEE
FNA:139,20515,_ZN3fmt3v1217basic_format_argsINS0_7contextEEC1ILi1ELi0ELy1ELi0EEERKNS0_6detail16format_arg_storeIS2_XT_EXT0_EXT1_EEE
FNA:139,104,_ZN3fmt3v1217basic_format_argsINS0_7contextEEC1ILi1ELi0ELy2ELi0EEERKNS0_6detail16format_arg_storeIS2_XT_EXT0_EXT1_EEE
FNA:139,46,_ZN3fmt3v1217basic_format_argsINS0_7contextEEC1ILi1ELi0ELy3ELi0EEERKNS0_6detail16format_arg_storeIS2_XT_EXT0_EXT1_EEE
FNA:139,39,_ZN3fmt3v1217basic_format_argsINS0_7contextEEC1ILi1ELi0ELy4ELi0EEERKNS0_6detail16format_arg_storeIS2_XT_EXT0_EXT1_EEE
FNA:139,19,_ZN3fmt3v1217basic_format_argsINS0_7contextEEC1ILi1ELi0ELy5ELi0EEERKNS0_6detail16format_arg_storeIS2_XT_EXT0_EXT1_EEE
FNA:139,6,_ZN3fmt3v1217basic_format_argsINS0_7contextEEC1ILi1ELi0ELy6ELi0EEERKNS0_6detail16format_arg_storeIS2_XT_EXT0_EXT1_EEE
FNA:139,8,_ZN3fmt3v1217basic_format_argsINS0_7contextEEC1ILi1ELi0ELy7ELi0EEERKNS0_6detail16format_arg_storeIS2_XT_EXT0_EXT1_EEE
FNA:139,4380,_ZN3fmt3v1217basic_format_argsINS0_7contextEEC1ILi1ELi0ELy8ELi0EEERKNS0_6detail16format_arg_storeIS2_XT_EXT0_EXT1_EEE
FNA:139,7,_ZN3fmt3v1217basic_format_argsINS0_7contextEEC1ILi1ELi0ELy9ELi0EEERKNS0_6detail16format_arg_storeIS2_XT_EXT0_EXT1_EEE
FNA:139,1,_ZN3fmt3v1217basic_format_argsINS0_7contextEEC1ILi1ELi1ELy15ELi0EEERKNS0_6detail16format_arg_storeIS2_XT_EXT0_EXT1_EEE
FNA:139,1,_ZN3fmt3v1217basic_format_argsINS0_7contextEEC1ILi1ELi1ELy1ELi0EEERKNS0_6detail16format_arg_storeIS2_XT_EXT0_EXT1_EEE
FNA:139,1,_ZN3fmt3v1217basic_format_argsINS0_7contextEEC1ILi2ELi0ELy129ELi0EEERKNS0_6detail16format_arg_storeIS2_XT_EXT0_EXT1_EEE
FNA:139,4,_ZN3fmt3v1217basic_format_argsINS0_7contextEEC1ILi2ELi0ELy136ELi0EEERKNS0_6detail16format_arg_storeIS2_XT_EXT0_EXT1_EEE
FNA:139,1,_ZN3fmt3v1217basic_format_argsINS0_7contextEEC1ILi2ELi0ELy138ELi0EEERKNS0_6detail16format_arg_storeIS2_XT_EXT0_EXT1_EEE
FNA:139,1,_ZN3fmt3v1217basic_format_argsINS0_7contextEEC1ILi2ELi0ELy161ELi0EEERKNS0_6detail16format_arg_storeIS2_XT_EXT0_EXT1_EEE
FNA:139,4,_ZN3fmt3v1217basic_format_argsINS0_7contextEEC1ILi2ELi0ELy170ELi0EEERKNS0_6detail16format_arg_storeIS2_XT_EXT0_EXT1_EEE
FNA:139,1,_ZN3fmt3v1217basic_format_argsINS0_7contextEEC1ILi2ELi0ELy177ELi0EEERKNS0_6detail16format_arg_storeIS2_XT_EXT0_EXT1_EEE
FNA:139,11,_ZN3fmt3v1217basic_format_argsINS0_7contextEEC1ILi2ELi0ELy17ELi0EEERKNS0_6detail16format_arg_storeIS2_XT_EXT0_EXT1_EEE
FNA:139,3,_ZN3fmt3v1217basic_format_argsINS0_7contextEEC1ILi2ELi0ELy18ELi0EEERKNS0_6detail16format_arg_storeIS2_XT_EXT0_EXT1_EEE
FNA:139,6,_ZN3fmt3v1217basic_format_argsINS0_7contextEEC1ILi2ELi0ELy19ELi0EEERKNS0_6detail16format_arg_storeIS2_XT_EXT0_EXT1_EEE
FNA:139,2,_ZN3fmt3v1217basic_format_argsINS0_7contextEEC1ILi2ELi0ELy204ELi0EEERKNS0_6detail16format_arg_storeIS2_XT_EXT0_EXT1_EEE
FNA:139,3,_ZN3fmt3v1217basic_format_argsINS0_7contextEEC1ILi2ELi0ELy205ELi0EEERKNS0_6detail16format_arg_storeIS2_XT_EXT0_EXT1_EEE
FNA:139,6,_ZN3fmt3v1217basic_format_argsINS0_7contextEEC1ILi2ELi0ELy20ELi0EEERKNS0_6detail16format_arg_storeIS2_XT_EXT0_EXT1_EEE
FNA:139,1,_ZN3fmt3v1217basic_format_argsINS0_7contextEEC1ILi2ELi0ELy221ELi0EEERKNS0_6detail16format_arg_storeIS2_XT_EXT0_EXT1_EEE
FNA:139,1,_ZN3fmt3v1217basic_format_argsINS0_7contextEEC1ILi2ELi0ELy238ELi0EEERKNS0_6detail16format_arg_storeIS2_XT_EXT0_EXT1_EEE
FNA:139,2,_ZN3fmt3v1217basic_format_argsINS0_7contextEEC1ILi2ELi0ELy24ELi0EEERKNS0_6detail16format_arg_storeIS2_XT_EXT0_EXT1_EEE
FNA:139,6,_ZN3fmt3v1217basic_format_argsINS0_7contextEEC1ILi2ELi0ELy255ELi0EEERKNS0_6detail16format_arg_storeIS2_XT_EXT0_EXT1_EEE
FNA:139,1,_ZN3fmt3v1217basic_format_argsINS0_7contextEEC1ILi2ELi0ELy25ELi0EEERKNS0_6detail16format_arg_storeIS2_XT_EXT0_EXT1_EEE
FNA:139,28,_ZN3fmt3v1217basic_format_argsINS0_7contextEEC1ILi2ELi0ELy26ELi0EEERKNS0_6detail16format_arg_storeIS2_XT_EXT0_EXT1_EEE
FNA:139,1,_ZN3fmt3v1217basic_format_argsINS0_7contextEEC1ILi2ELi0ELy27ELi0EEERKNS0_6detail16format_arg_storeIS2_XT_EXT0_EXT1_EEE
FNA:139,12,_ZN3fmt3v1217basic_format_argsINS0_7contextEEC1ILi2ELi0ELy28ELi0EEERKNS0_6detail16format_arg_storeIS2_XT_EXT0_EXT1_EEE
FNA:139,3,_ZN3fmt3v1217basic_format_argsINS0_7contextEEC1ILi2ELi0ELy30ELi0EEERKNS0_6detail16format_arg_storeIS2_XT_EXT0_EXT1_EEE
FNA:139,14,_ZN3fmt3v1217basic_format_argsINS0_7contextEEC1ILi2ELi0ELy31ELi0EEERKNS0_6detail16format_arg_storeIS2_XT_EXT0_EXT1_EEE
FNA:139,1,_ZN3fmt3v1217basic_format_argsINS0_7contextEEC1ILi2ELi0ELy33ELi0EEERKNS0_6detail16format_arg_storeIS2_XT_EXT0_EXT1_EEE
FNA:139,1,_ZN3fmt3v1217basic_format_argsINS0_7contextEEC1ILi2ELi0ELy42ELi0EEERKNS0_6detail16format_arg_storeIS2_XT_EXT0_EXT1_EEE
FNA:139,2,_ZN3fmt3v1217basic_format_argsINS0_7contextEEC1ILi2ELi0ELy49ELi0EEERKNS0_6detail16format_arg_storeIS2_XT_EXT0_EXT1_EEE
FNA:139,2,_ZN3fmt3v1217basic_format_argsINS0_7contextEEC1ILi2ELi0ELy58ELi0EEERKNS0_6detail16format_arg_storeIS2_XT_EXT0_EXT1_EEE
FNA:139,1,_ZN3fmt3v1217basic_format_argsINS0_7contextEEC1ILi2ELi0ELy65ELi0EEERKNS0_6detail16format_arg_storeIS2_XT_EXT0_EXT1_EEE
FNA:139,1,_ZN3fmt3v1217basic_format_argsINS0_7contextEEC1ILi2ELi0ELy74ELi0EEERKNS0_6detail16format_arg_storeIS2_XT_EXT0_EXT1_EEE
FNA:139,3,_ZN3fmt3v1217basic_format_argsINS0_7contextEEC1ILi2ELi1ELy17ELi0EEERKNS0_6detail16format_arg_storeIS2_XT_EXT0_EXT1_EEE
FNA:139,1,_ZN3fmt3v1217basic_format_argsINS0_7contextEEC1ILi2ELi1ELy28ELi0EEERKNS0_6detail16format_arg_storeIS2_XT_EXT0_EXT1_EEE
FNA:139,1,_ZN3fmt3v1217basic_format_argsINS0_7contextEEC1ILi2ELi2ELy17ELi0EEERKNS0_6detail16format_arg_storeIS2_XT_EXT0_EXT1_EEE
FNA:139,4,_ZN3fmt3v1217basic_format_argsINS0_7contextEEC1ILi3ELi0ELy2184ELi0EEERKNS0_6detail16format_arg_storeIS2_XT_EXT0_EXT1_EEE
FNA:139,3,_ZN3fmt3v1217basic_format_argsINS0_7contextEEC1ILi3ELi0ELy273ELi0EEERKNS0_6detail16format_arg_storeIS2_XT_EXT0_EXT1_EEE
FNA:139,13,_ZN3fmt3v1217basic_format_argsINS0_7contextEEC1ILi3ELi0ELy287ELi0EEERKNS0_6detail16format_arg_storeIS2_XT_EXT0_EXT1_EEE
FNA:139,1,_ZN3fmt3v1217basic_format_argsINS0_7contextEEC1ILi3ELi3ELy456ELi0EEERKNS0_6detail16format_arg_storeIS2_XT_EXT0_EXT1_EEE
FNA:139,2,_ZN3fmt3v1217basic_format_argsINS0_7contextEEC1ILi3ELi3ELy460ELi0EEERKNS0_6detail16format_arg_storeIS2_XT_EXT0_EXT1_EEE
FNA:139,1,_ZN3fmt3v1217basic_format_argsINS0_7contextEEC1ILi6ELi0ELy9357850ELi0EEERKNS0_6detail16format_arg_storeIS2_XT_EXT0_EXT1_EEE
FNA:139,1092,_ZN3fmt3v1217basic_format_argsINS0_7contextEEC2ILi0ELi0ELy0ELi0EEERKNS0_6detail16format_arg_storeIS2_XT_EXT0_EXT1_EEE
FNA:139,1,_ZN3fmt3v1217basic_format_argsINS0_7contextEEC2ILi15ELi0ELy76861433640456465ELi0EEERKNS0_6detail16format_arg_storeIS2_XT_EXT0_EXT1_EEE
FNA:139,2460,_ZN3fmt3v1217basic_format_argsINS0_7contextEEC2ILi1ELi0ELy10ELi0EEERKNS0_6detail16format_arg_storeIS2_XT_EXT0_EXT1_EEE
FNA:139,28,_ZN3fmt3v1217basic_format_argsINS0_7contextEEC2ILi1ELi0ELy11ELi0EEERKNS0_6detail16format_arg_storeIS2_XT_EXT0_EXT1_EEE
FNA:139,2484,_ZN3fmt3v1217basic_format_argsINS0_7contextEEC2ILi1ELi0ELy12ELi0EEERKNS0_6detail16format_arg_storeIS2_XT_EXT0_EXT1_EEE
FNA:139,40456,_ZN3fmt3v1217basic_format_argsINS0_7contextEEC2ILi1ELi0ELy13ELi0EEERKNS0_6detail16format_arg_storeIS2_XT_EXT0_EXT1_EEE
FNA:139,268,_ZN3fmt3v1217basic_format_argsINS0_7contextEEC2ILi1ELi0ELy14ELi0EEERKNS0_6detail16format_arg_storeIS2_XT_EXT0_EXT1_EEE
FNA:139,21217,_ZN3fmt3v1217basic_format_argsINS0_7contextEEC2ILi1ELi0ELy15ELi0EEERKNS0_6detail16format_arg_storeIS2_XT_EXT0_EXT1_EEE
FNA:139,20515,_ZN3fmt3v1217basic_format_argsINS0_7contextEEC2ILi1ELi0ELy1ELi0EEERKNS0_6detail16format_arg_storeIS2_XT_EXT0_EXT1_EEE
FNA:139,104,_ZN3fmt3v1217basic_format_argsINS0_7contextEEC2ILi1ELi0ELy2ELi0EEERKNS0_6detail16format_arg_storeIS2_XT_EXT0_EXT1_EEE
FNA:139,46,_ZN3fmt3v1217basic_format_argsINS0_7contextEEC2ILi1ELi0ELy3ELi0EEERKNS0_6detail16format_arg_storeIS2_XT_EXT0_EXT1_EEE
FNA:139,39,_ZN3fmt3v1217basic_format_argsINS0_7contextEEC2ILi1ELi0ELy4ELi0EEERKNS0_6detail16format_arg_storeIS2_XT_EXT0_EXT1_EEE
FNA:139,19,_ZN3fmt3v1217basic_format_argsINS0_7contextEEC2ILi1ELi0ELy5ELi0EEERKNS0_6detail16format_arg_storeIS2_XT_EXT0_EXT1_EEE
FNA:139,6,_ZN3fmt3v1217basic_format_argsINS0_7contextEEC2ILi1ELi0ELy6ELi0EEERKNS0_6detail16format_arg_storeIS2_XT_EXT0_EXT1_EEE
FNA:139,8,_ZN3fmt3v1217basic_format_argsINS0_7contextEEC2ILi1ELi0ELy7ELi0EEERKNS0_6detail16format_arg_storeIS2_XT_EXT0_EXT1_EEE
FNA:139,4380,_ZN3fmt3v1217basic_format_argsINS0_7contextEEC2ILi1ELi0ELy8ELi0EEERKNS0_6detail16format_arg_storeIS2_XT_EXT0_EXT1_EEE
FNA:139,7,_ZN3fmt3v1217basic_format_argsINS0_7contextEEC2ILi1ELi0ELy9ELi0EEERKNS0_6detail16format_arg_storeIS2_XT_EXT0_EXT1_EEE
FNA:139,1,_ZN3fmt3v1217basic_format_argsINS0_7contextEEC2ILi1ELi1ELy15ELi0EEERKNS0_6detail16format_arg_storeIS2_XT_EXT0_EXT1_EEE
FNA:139,1,_ZN3fmt3v1217basic_format_argsINS0_7contextEEC2ILi1ELi1ELy1ELi0EEERKNS0_6detail16format_arg_storeIS2_XT_EXT0_EXT1_EEE
FNA:139,1,_ZN3fmt3v1217basic_format_argsINS0_7contextEEC2ILi2ELi0ELy129ELi0EEERKNS0_6detail16format_arg_storeIS2_XT_EXT0_EXT1_EEE
FNA:139,4,_ZN3fmt3v1217basic_format_argsINS0_7contextEEC2ILi2ELi0ELy136ELi0EEERKNS0_6detail16format_arg_storeIS2_XT_EXT0_EXT1_EEE
FNA:139,1,_ZN3fmt3v1217basic_format_argsINS0_7contextEEC2ILi2ELi0ELy138ELi0EEERKNS0_6detail16format_arg_storeIS2_XT_EXT0_EXT1_EEE
FNA:139,1,_ZN3fmt3v1217basic_format_argsINS0_7contextEEC2ILi2ELi0ELy161ELi0EEERKNS0_6detail16format_arg_storeIS2_XT_EXT0_EXT1_EEE
FNA:139,4,_ZN3fmt3v1217basic_format_argsINS0_7contextEEC2ILi2ELi0ELy170ELi0EEERKNS0_6detail16format_arg_storeIS2_XT_EXT0_EXT1_EEE
FNA:139,1,_ZN3fmt3v1217basic_format_argsINS0_7contextEEC2ILi2ELi0ELy177ELi0EEERKNS0_6detail16format_arg_storeIS2_XT_EXT0_EXT1_EEE
FNA:139,11,_ZN3fmt3v1217basic_format_argsINS0_7contextEEC2ILi2ELi0ELy17ELi0EEERKNS0_6detail16format_arg_storeIS2_XT_EXT0_EXT1_EEE
FNA:139,3,_ZN3fmt3v1217basic_format_argsINS0_7contextEEC2ILi2ELi0ELy18ELi0EEERKNS0_6detail16format_arg_storeIS2_XT_EXT0_EXT1_EEE
FNA:139,6,_ZN3fmt3v1217basic_format_argsINS0_7contextEEC2ILi2ELi0ELy19ELi0EEERKNS0_6detail16format_arg_storeIS2_XT_EXT0_EXT1_EEE
FNA:139,2,_ZN3fmt3v1217basic_format_argsINS0_7contextEEC2ILi2ELi0ELy204ELi0EEERKNS0_6detail16format_arg_storeIS2_XT_EXT0_EXT1_EEE
FNA:139,3,_ZN3fmt3v1217basic_format_argsINS0_7contextEEC2ILi2ELi0ELy205ELi0EEERKNS0_6detail16format_arg_storeIS2_XT_EXT0_EXT1_EEE
FNA:139,6,_ZN3fmt3v1217basic_format_argsINS0_7contextEEC2ILi2ELi0ELy20ELi0EEERKNS0_6detail16format_arg_storeIS2_XT_EXT0_EXT1_EEE
FNA:139,1,_ZN3fmt3v1217basic_format_argsINS0_7contextEEC2ILi2ELi0ELy221ELi0EEERKNS0_6detail16format_arg_storeIS2_XT_EXT0_EXT1_EEE
FNA:139,1,_ZN3fmt3v1217basic_format_argsINS0_7contextEEC2ILi2ELi0ELy238ELi0EEERKNS0_6detail16format_arg_storeIS2_XT_EXT0_EXT1_EEE
FNA:139,2,_ZN3fmt3v1217basic_format_argsINS0_7contextEEC2ILi2ELi0ELy24ELi0EEERKNS0_6detail16format_arg_storeIS2_XT_EXT0_EXT1_EEE
FNA:139,6,_ZN3fmt3v1217basic_format_argsINS0_7contextEEC2ILi2ELi0ELy255ELi0EEERKNS0_6detail16format_arg_storeIS2_XT_EXT0_EXT1_EEE
FNA:139,1,_ZN3fmt3v1217basic_format_argsINS0_7contextEEC2ILi2ELi0ELy25ELi0EEERKNS0_6detail16format_arg_storeIS2_XT_EXT0_EXT1_EEE
FNA:139,28,_ZN3fmt3v1217basic_format_argsINS0_7contextEEC2ILi2ELi0ELy26ELi0EEERKNS0_6detail16format_arg_storeIS2_XT_EXT0_EXT1_EEE
FNA:139,1,_ZN3fmt3v1217basic_format_argsINS0_7contextEEC2ILi2ELi0ELy27ELi0EEERKNS0_6detail16format_arg_storeIS2_XT_EXT0_EXT1_EEE
FNA:139,12,_ZN3fmt3v1217basic_format_argsINS0_7contextEEC2ILi2ELi0ELy28ELi0EEERKNS0_6detail16format_arg_storeIS2_XT_EXT0_EXT1_EEE
FNA:139,3,_ZN3fmt3v1217basic_format_argsINS0_7contextEEC2ILi2ELi0ELy30ELi0EEERKNS0_6detail16format_arg_storeIS2_XT_EXT0_EXT1_EEE
FNA:139,14,_ZN3fmt3v1217basic_format_argsINS0_7contextEEC2ILi2ELi0ELy31ELi0EEERKNS0_6detail16format_arg_storeIS2_XT_EXT0_EXT1_EEE
FNA:139,1,_ZN3fmt3v1217basic_format_argsINS0_7contextEEC2ILi2ELi0ELy33ELi0EEERKNS0_6detail16format_arg_storeIS2_XT_EXT0_EXT1_EEE
FNA:139,1,_ZN3fmt3v1217basic_format_argsINS0_7contextEEC2ILi2ELi0ELy42ELi0EEERKNS0_6detail16format_arg_storeIS2_XT_EXT0_EXT1_EEE
FNA:139,2,_ZN3fmt3v1217basic_format_argsINS0_7contextEEC2ILi2ELi0ELy49ELi0EEERKNS0_6detail16format_arg_storeIS2_XT_EXT0_EXT1_EEE
FNA:139,2,_ZN3fmt3v1217basic_format_argsINS0_7contextEEC2ILi2ELi0ELy58ELi0EEERKNS0_6detail16format_arg_storeIS2_XT_EXT0_EXT1_EEE
FNA:139,1,_ZN3fmt3v1217basic_format_argsINS0_7contextEEC2ILi2ELi0ELy65ELi0EEERKNS0_6detail16format_arg_storeIS2_XT_EXT0_EXT1_EEE
FNA:139,1,_ZN3fmt3v1217basic_format_argsINS0_7contextEEC2ILi2ELi0ELy74ELi0EEERKNS0_6detail16format_arg_storeIS2_XT_EXT0_EXT1_EEE
FNA:139,3,_ZN3fmt3v1217basic_format_argsINS0_7contextEEC2ILi2ELi1ELy17ELi0EEERKNS0_6detail16format_arg_storeIS2_XT_EXT0_EXT1_EEE
FNA:139,1,_ZN3fmt3v1217basic_format_argsINS0_7contextEEC2ILi2ELi1ELy28ELi0EEERKNS0_6detail16format_arg_storeIS2_XT_EXT0_EXT1_EEE
FNA:139,1,_ZN3fmt3v1217basic_format_argsINS0_7contextEEC2ILi2ELi2ELy17ELi0EEERKNS0_6detail16format_arg_storeIS2_XT_EXT0_EXT1_EEE
FNA:139,4,_ZN3fmt3v1217basic_format_argsINS0_7contextEEC2ILi3ELi0ELy2184ELi0EEERKNS0_6detail16format_arg_storeIS2_XT_EXT0_EXT1_EEE
FNA:139,3,_ZN3fmt3v1217basic_format_argsINS0_7contextEEC2ILi3ELi0ELy273ELi0EEERKNS0_6detail16format_arg_storeIS2_XT_EXT0_EXT1_EEE
FNA:139,13,_ZN3fmt3v1217basic_format_argsINS0_7contextEEC2ILi3ELi0ELy287ELi0EEERKNS0_6detail16format_arg_storeIS2_XT_EXT0_EXT1_EEE
FNA:139,1,_ZN3fmt3v1217basic_format_argsINS0_7contextEEC2ILi3ELi3ELy456ELi0EEERKNS0_6detail16format_arg_storeIS2_XT_EXT0_EXT1_EEE
FNA:139,2,_ZN3fmt3v1217basic_format_argsINS0_7contextEEC2ILi3ELi3ELy460ELi0EEERKNS0_6detail16format_arg_storeIS2_XT_EXT0_EXT1_EEE
FNA:139,1,_ZN3fmt3v1217basic_format_argsINS0_7contextEEC2ILi6ELi0ELy9357850ELi0EEERKNS0_6detail16format_arg_storeIS2_XT_EXT0_EXT1_EEE
FNL:140,2633,2635
FNA:140,1,_ZN3fmt3v1217basic_format_argsINS0_7contextEEC1ILi16ELi16ELy9223372036854775824ELi0EEERKNS0_6detail16format_arg_storeIS2_XT_EXT0_EXT1_EEE
FNA:140,1,_ZN3fmt3v1217basic_format_argsINS0_7contextEEC1ILi17ELi0ELy9223372036854775825ELi0EEERKNS0_6detail16format_arg_storeIS2_XT_EXT0_EXT1_EEE
FNA:140,2,_ZN3fmt3v1217basic_format_argsINS0_7contextEEC1ILi20ELi0ELy9223372036854775828ELi0EEERKNS0_6detail16format_arg_storeIS2_XT_EXT0_EXT1_EEE
FNA:140,1,_ZN3fmt3v1217basic_format_argsINS0_7contextEEC1ILi21ELi0ELy9223372036854775829ELi0EEERKNS0_6detail16format_arg_storeIS2_XT_EXT0_EXT1_EEE
FNA:140,1,_ZN3fmt3v1217basic_format_argsINS0_7contextEEC2ILi16ELi16ELy9223372036854775824ELi0EEERKNS0_6detail16format_arg_storeIS2_XT_EXT0_EXT1_EEE
FNA:140,1,_ZN3fmt3v1217basic_format_argsINS0_7contextEEC2ILi17ELi0ELy9223372036854775825ELi0EEERKNS0_6detail16format_arg_storeIS2_XT_EXT0_EXT1_EEE
FNA:140,2,_ZN3fmt3v1217basic_format_argsINS0_7contextEEC2ILi20ELi0ELy9223372036854775828ELi0EEERKNS0_6detail16format_arg_storeIS2_XT_EXT0_EXT1_EEE
FNA:140,1,_ZN3fmt3v1217basic_format_argsINS0_7contextEEC2ILi21ELi0ELy9223372036854775829ELi0EEERKNS0_6detail16format_arg_storeIS2_XT_EXT0_EXT1_EEE
FNL:141,2638,2642
FNA:141,14,_ZN3fmt3v1217basic_format_argsINS0_7contextEEC1EPKNS0_16basic_format_argIS2_EEib
FNA:141,14,_ZN3fmt3v1217basic_format_argsINS0_7contextEEC2EPKNS0_16basic_format_argIS2_EEib
FNL:142,2645,2655
FNA:142,67,_ZNK3fmt3v1217basic_format_argsINS0_15generic_contextINS0_14basic_appenderIwEEwEEE3getEi
FNA:142,2474,_ZNK3fmt3v1217basic_format_argsINS0_20basic_printf_contextIcEEE3getEi
FNA:142,2,_ZNK3fmt3v1217basic_format_argsINS0_20basic_printf_contextIwEEE3getEi
FNA:142,92411,_ZNK3fmt3v1217basic_format_argsINS0_7contextEE3getEi
FNL:143,2658,2661
FNA:143,0,_ZNK3fmt3v1217basic_format_argsINS0_15generic_contextINS0_14basic_appenderIwEEwEEE3getIwEENS0_16basic_format_argIS5_EENS0_17basic_string_viewIT_EE
FNA:143,4,_ZNK3fmt3v1217basic_format_argsINS0_7contextEE3getIcEENS0_16basic_format_argIS2_EENS0_17basic_string_viewIT_EE
FNL:144,2664,2672
FNA:144,8,_ZNK3fmt3v1217basic_format_argsINS0_15generic_contextINS0_14basic_appenderIwEEwEEE6get_idIwEEiNS0_17basic_string_viewIT_EE
FNA:144,32,_ZNK3fmt3v1217basic_format_argsINS0_7contextEE6get_idIcEEiNS0_17basic_string_viewIT_EE
FNL:145,2674,2678
FNA:145,0,_ZNK3fmt3v1217basic_format_argsINS0_15generic_contextINS0_14basic_appenderIwEEwEEE8max_sizeEv
FNA:145,0,_ZNK3fmt3v1217basic_format_argsINS0_20basic_printf_contextIcEEE8max_sizeEv
FNA:145,0,_ZNK3fmt3v1217basic_format_argsINS0_20basic_printf_contextIwEEE8max_sizeEv
FNA:145,47,_ZNK3fmt3v1217basic_format_argsINS0_7contextEE8max_sizeEv
FNL:146,2696,2697
FNA:146,66955,_ZN3fmt3v127contextC1ENS0_14basic_appenderIcEENS0_17basic_format_argsIS1_EENS0_10locale_refE
FNA:146,66955,_ZN3fmt3v127contextC2ENS0_14basic_appenderIcEENS0_17basic_format_argsIS1_EENS0_10locale_refE
FNL:147,2702,2702
FNA:147,65729,_ZNK3fmt3v127context3argEi
FNL:148,2703,2704
FNA:148,4,_ZNK3fmt3v127context3argENS0_17basic_string_viewIcEE
FNL:149,2706,2707
FNA:149,28,_ZNK3fmt3v127context6arg_idENS0_17basic_string_viewIcEE
FNL:150,2712,2712
FNA:150,257260,_ZNK3fmt3v127context3outEv
FNL:151,2715,2715
FNA:151,21564,_ZN3fmt3v127context10advance_toENS0_14basic_appenderIcEE
FNL:152,2717,2717
FNA:152,1045,_ZNK3fmt3v127context6localeEv
FNL:153,2732,2732
FNA:153,21794,_ZN3fmt3v127runtimeENS0_17basic_string_viewIcEE
FNL:154,2753,2766
FNA:154,1,_ZN3fmt3v127fstringIJ10empty_testEEC1ILm3EEERAT__Kc
FNA:154,1,_ZN3fmt3v127fstringIJ10empty_testEEC2ILm3EEERAT__Kc
FNA:154,1,_ZN3fmt3v127fstringIJ11test_structEEC1ILm3EEERAT__Kc
FNA:154,1,_ZN3fmt3v127fstringIJ11test_structEEC2ILm3EEERAT__Kc
FNA:154,1,_ZN3fmt3v127fstringIJ11unlocalizedEEC1ILm3EEERAT__Kc
FNA:154,1,_ZN3fmt3v127fstringIJ11unlocalizedEEC2ILm3EEERAT__Kc
FNA:154,1,_ZN3fmt3v127fstringIJ12copyfmt_testEEC1ILm3EEERAT__Kc
FNA:154,1,_ZN3fmt3v127fstringIJ12copyfmt_testEEC2ILm3EEERAT__Kc
FNA:154,1,_ZN3fmt3v127fstringIJ13test_templateIiEEEC1ILm3EEERAT__Kc
FNA:154,1,_ZN3fmt3v127fstringIJ13test_templateIiEEEC2ILm3EEERAT__Kc
FNA:154,1,_ZN3fmt3v127fstringIJ15streamable_enumEEC1ILm3EEERAT__Kc
FNA:154,1,_ZN3fmt3v127fstringIJ15streamable_enumEEC2ILm3EEERAT__Kc
FNA:154,1,_ZN3fmt3v127fstringIJ15string_viewableEEC1ILm3EEERAT__Kc
FNA:154,1,_ZN3fmt3v127fstringIJ15string_viewableEEC2ILm3EEERAT__Kc
FNA:154,1,_ZN3fmt3v127fstringIJ17basic_test_stringIcEEEC1ILm4EEERAT__Kc
FNA:154,5,_ZN3fmt3v127fstringIJ17basic_test_stringIcEEEC1ILm7EEERAT__Kc
FNA:154,1,_ZN3fmt3v127fstringIJ17basic_test_stringIcEEEC1ILm8EEERAT__Kc
FNA:154,1,_ZN3fmt3v127fstringIJ17basic_test_stringIcEEEC2ILm4EEERAT__Kc
FNA:154,5,_ZN3fmt3v127fstringIJ17basic_test_stringIcEEEC2ILm7EEERAT__Kc
FNA:154,1,_ZN3fmt3v127fstringIJ17basic_test_stringIcEEEC2ILm8EEERAT__Kc
FNA:154,1,_ZN3fmt3v127fstringIJ17basic_test_stringIcEiEEC1ILm8EEERAT__Kc
FNA:154,1,_ZN3fmt3v127fstringIJ17basic_test_stringIcEiEEC1ILm9EEERAT__Kc
FNA:154,1,_ZN3fmt3v127fstringIJ17basic_test_stringIcEiEEC2ILm8EEERAT__Kc
FNA:154,1,_ZN3fmt3v127fstringIJ17basic_test_stringIcEiEEC2ILm9EEERAT__Kc
FNA:154,1,_ZN3fmt3v127fstringIJ17noncopyable_rangeIiEEEC1ILm3EEERAT__Kc
FNA:154,1,_ZN3fmt3v127fstringIJ17noncopyable_rangeIiEEEC2ILm3EEERAT__Kc
FNA:154,1,_ZN3fmt3v127fstringIJ17unstreamable_enumEEC1ILm3EEERAT__Kc
FNA:154,1,_ZN3fmt3v127fstringIJ17unstreamable_enumEEC2ILm3EEERAT__Kc
FNA:154,1,_ZN3fmt3v127fstringIJ18convertible_to_intEEC1ILm3EEERAT__Kc
FNA:154,1,_ZN3fmt3v127fstringIJ18convertible_to_intEEC2ILm3EEERAT__Kc
FNA:154,1,_ZN3fmt3v127fstringIJ18movable_iter_rangeEEC1ILm3EEERAT__Kc
FNA:154,1,_ZN3fmt3v127fstringIJ18movable_iter_rangeEEC2ILm3EEERAT__Kc
FNA:154,1,_ZN3fmt3v127fstringIJ19check_back_appenderEEC1ILm3EEERAT__Kc
FNA:154,1,_ZN3fmt3v127fstringIJ19check_back_appenderEEC2ILm3EEERAT__Kc
FNA:154,1,_ZN3fmt3v127fstringIJ20non_const_only_rangeIiEEEC1ILm3EEERAT__Kc
FNA:154,1,_ZN3fmt3v127fstringIJ20non_const_only_rangeIiEEEC2ILm3EEERAT__Kc
FNA:154,1,_ZN3fmt3v127fstringIJ20nonconst_formattableEEC1ILm3EEERAT__Kc
FNA:154,1,_ZN3fmt3v127fstringIJ20nonconst_formattableEEC2ILm3EEERAT__Kc
FNA:154,1,_ZN3fmt3v127fstringIJ22convertible_to_cstringEEC1ILm3EEERAT__Kc
FNA:154,1,_ZN3fmt3v127fstringIJ22convertible_to_cstringEEC2ILm3EEERAT__Kc
FNA:154,1,_ZN3fmt3v127fstringIJ26lvalue_qualified_begin_endEEC1ILm3EEERAT__Kc
FNA:154,1,_ZN3fmt3v127fstringIJ26lvalue_qualified_begin_endEEC2ILm3EEERAT__Kc
FNA:154,1,_ZN3fmt3v127fstringIJ30convertible_to_std_string_viewEEC1ILm3EEERAT__Kc
FNA:154,1,_ZN3fmt3v127fstringIJ30convertible_to_std_string_viewEEC2ILm3EEERAT__Kc
FNA:154,1,_ZN3fmt3v127fstringIJ31convertible_to_nonconst_cstringEEC1ILm3EEERAT__Kc
FNA:154,1,_ZN3fmt3v127fstringIJ31convertible_to_nonconst_cstringEEC2ILm3EEERAT__Kc
FNA:154,1,_ZN3fmt3v127fstringIJ37convertible_to_any_type_with_member_xEEC1ILm3EEERAT__Kc
FNA:154,1,_ZN3fmt3v127fstringIJ37convertible_to_any_type_with_member_xEEC2ILm3EEERAT__Kc
FNA:154,1,_ZN3fmt3v127fstringIJ41explicitly_convertible_to_std_string_viewEEC1ILm3EEERAT__Kc
FNA:154,1,_ZN3fmt3v127fstringIJ41explicitly_convertible_to_std_string_viewEEC2ILm3EEERAT__Kc
FNA:154,1,_ZN3fmt3v127fstringIJ4dateEEC1ILm16EEERAT__Kc
FNA:154,1,_ZN3fmt3v127fstringIJ4dateEEC2ILm16EEERAT__Kc
FNA:154,1,_ZN3fmt3v127fstringIJ5pointEEC1ILm10EEERAT__Kc
FNA:154,1,_ZN3fmt3v127fstringIJ5pointEEC2ILm10EEERAT__Kc
FNA:154,1,_ZN3fmt3v127fstringIJ6AnswerEEC1ILm3EEERAT__Kc
FNA:154,1,_ZN3fmt3v127fstringIJ6AnswerEEC1ILm4EEERAT__Kc
FNA:154,1,_ZN3fmt3v127fstringIJ6AnswerEEC1ILm6EEERAT__Kc
FNA:154,1,_ZN3fmt3v127fstringIJ6AnswerEEC2ILm3EEERAT__Kc
FNA:154,1,_ZN3fmt3v127fstringIJ6AnswerEEC2ILm4EEERAT__Kc
FNA:154,1,_ZN3fmt3v127fstringIJ6AnswerEEC2ILm6EEERAT__Kc
FNA:154,1,_ZN3fmt3v127fstringIJ7tieableEEC1ILm3EEERAT__Kc
FNA:154,1,_ZN3fmt3v127fstringIJ7tieableEEC2ILm3EEERAT__Kc
FNA:154,1,_ZN3fmt3v127fstringIJ7ustringEEC1ILm3EEERAT__Kc
FNA:154,1,_ZN3fmt3v127fstringIJ7ustringEEC2ILm3EEERAT__Kc
FNA:154,1,_ZN3fmt3v127fstringIJ8big_enumEEC1ILm3EEERAT__Kc
FNA:154,1,_ZN3fmt3v127fstringIJ8big_enumEEC2ILm3EEERAT__Kc
FNA:154,1,_ZN3fmt3v127fstringIJ8flat_setINSt3__112basic_stringIcNS3_11char_traitsIcEENS3_9allocatorIcEEEEEEEC1ILm3EEERAT__Kc
FNA:154,1,_ZN3fmt3v127fstringIJ8flat_setINSt3__112basic_stringIcNS3_11char_traitsIcEENS3_9allocatorIcEEEEEEEC2ILm3EEERAT__Kc
FNA:154,1,_ZN3fmt3v127fstringIJ9test_enumEEC1ILm3EEERAT__Kc
FNA:154,1,_ZN3fmt3v127fstringIJ9test_enumEEC2ILm3EEERAT__Kc
FNA:154,2,_ZN3fmt3v127fstringIJDB16_EEC1ILm3EEERAT__Kc
FNA:154,2,_ZN3fmt3v127fstringIJDB16_EEC2ILm3EEERAT__Kc
FNA:154,1,_ZN3fmt3v127fstringIJDB47_EEC1ILm3EEERAT__Kc
FNA:154,1,_ZN3fmt3v127fstringIJDB47_EEC2ILm3EEERAT__Kc
FNA:154,1,_ZN3fmt3v127fstringIJDB7_EEC1ILm3EEERAT__Kc
FNA:154,1,_ZN3fmt3v127fstringIJDB7_EEC2ILm3EEERAT__Kc
FNA:154,1,_ZN3fmt3v127fstringIJDU15_EEC1ILm3EEERAT__Kc
FNA:154,1,_ZN3fmt3v127fstringIJDU15_EEC2ILm3EEERAT__Kc
FNA:154,1,_ZN3fmt3v127fstringIJDU32_EEC1ILm3EEERAT__Kc
FNA:154,1,_ZN3fmt3v127fstringIJDU32_EEC2ILm3EEERAT__Kc
FNA:154,1,_ZN3fmt3v127fstringIJDU3_EEC1ILm3EEERAT__Kc
FNA:154,1,_ZN3fmt3v127fstringIJDU3_EEC2ILm3EEERAT__Kc
FNA:154,1,_ZN3fmt3v127fstringIJDU47_EEC1ILm3EEERAT__Kc
FNA:154,1,_ZN3fmt3v127fstringIJDU47_EEC2ILm3EEERAT__Kc
FNA:154,1,_ZN3fmt3v127fstringIJDnEEC1ILm3EEERAT__Kc
FNA:154,1,_ZN3fmt3v127fstringIJDnEEC2ILm3EEERAT__Kc
FNA:154,6,_ZN3fmt3v127fstringIJEEC1ILm10EEERAT__Kc
FNA:154,3,_ZN3fmt3v127fstringIJEEC1ILm11EEERAT__Kc
FNA:154,0,_ZN3fmt3v127fstringIJEEC1ILm13EEERAT__Kc
FNA:154,1,_ZN3fmt3v127fstringIJEEC1ILm14EEERAT__Kc
FNA:154,3,_ZN3fmt3v127fstringIJEEC1ILm15EEERAT__Kc
FNA:154,2,_ZN3fmt3v127fstringIJEEC1ILm16EEERAT__Kc
FNA:154,1,_ZN3fmt3v127fstringIJEEC1ILm1EEERAT__Kc
FNA:154,3,_ZN3fmt3v127fstringIJEEC1ILm20EEERAT__Kc
FNA:154,1,_ZN3fmt3v127fstringIJEEC1ILm2EEERAT__Kc
FNA:154,0,_ZN3fmt3v127fstringIJEEC1ILm36EEERAT__Kc
FNA:154,0,_ZN3fmt3v127fstringIJEEC1ILm37EEERAT__Kc
FNA:154,4,_ZN3fmt3v127fstringIJEEC1ILm3EEERAT__Kc
FNA:154,4,_ZN3fmt3v127fstringIJEEC1ILm4EEERAT__Kc
FNA:154,0,_ZN3fmt3v127fstringIJEEC1ILm56EEERAT__Kc
FNA:154,16,_ZN3fmt3v127fstringIJEEC1ILm5EEERAT__Kc
FNA:154,1005,_ZN3fmt3v127fstringIJEEC1ILm6EEERAT__Kc
FNA:154,1,_ZN3fmt3v127fstringIJEEC1ILm7EEERAT__Kc
FNA:154,8,_ZN3fmt3v127fstringIJEEC1ILm8EEERAT__Kc
FNA:154,5,_ZN3fmt3v127fstringIJEEC1ILm9EEERAT__Kc
FNA:154,6,_ZN3fmt3v127fstringIJEEC2ILm10EEERAT__Kc
FNA:154,3,_ZN3fmt3v127fstringIJEEC2ILm11EEERAT__Kc
FNA:154,0,_ZN3fmt3v127fstringIJEEC2ILm13EEERAT__Kc
FNA:154,1,_ZN3fmt3v127fstringIJEEC2ILm14EEERAT__Kc
FNA:154,3,_ZN3fmt3v127fstringIJEEC2ILm15EEERAT__Kc
FNA:154,2,_ZN3fmt3v127fstringIJEEC2ILm16EEERAT__Kc
FNA:154,1,_ZN3fmt3v127fstringIJEEC2ILm1EEERAT__Kc
FNA:154,3,_ZN3fmt3v127fstringIJEEC2ILm20EEERAT__Kc
FNA:154,1,_ZN3fmt3v127fstringIJEEC2ILm2EEERAT__Kc
FNA:154,0,_ZN3fmt3v127fstringIJEEC2ILm36EEERAT__Kc
FNA:154,0,_ZN3fmt3v127fstringIJEEC2ILm37EEERAT__Kc
FNA:154,4,_ZN3fmt3v127fstringIJEEC2ILm3EEERAT__Kc
FNA:154,4,_ZN3fmt3v127fstringIJEEC2ILm4EEERAT__Kc
FNA:154,0,_ZN3fmt3v127fstringIJEEC2ILm56EEERAT__Kc
FNA:154,16,_ZN3fmt3v127fstringIJEEC2ILm5EEERAT__Kc
FNA:154,1005,_ZN3fmt3v127fstringIJEEC2ILm6EEERAT__Kc
FNA:154,1,_ZN3fmt3v127fstringIJEEC2ILm7EEERAT__Kc
FNA:154,8,_ZN3fmt3v127fstringIJEEC2ILm8EEERAT__Kc
FNA:154,5,_ZN3fmt3v127fstringIJEEC2ILm9EEERAT__Kc
FNA:154,1,_ZN3fmt3v127fstringIJN4test13struct_as_intEEEC1ILm3EEERAT__Kc
FNA:154,1,_ZN3fmt3v127fstringIJN4test13struct_as_intEEEC2ILm3EEERAT__Kc
FNA:154,1,_ZN3fmt3v127fstringIJN4test18scoped_enum_as_intEEEC1ILm3EEERAT__Kc
FNA:154,1,_ZN3fmt3v127fstringIJN4test18scoped_enum_as_intEEEC2ILm3EEERAT__Kc
FNA:154,1,_ZN3fmt3v127fstringIJN4test21scoped_enum_as_stringEEEC1ILm3EEERAT__Kc
FNA:154,1,_ZN3fmt3v127fstringIJN4test21scoped_enum_as_stringEEEC2ILm3EEERAT__Kc
FNA:154,1,_ZN3fmt3v127fstringIJN4test25struct_as_const_referenceEEEC1ILm3EEERAT__Kc
FNA:154,1,_ZN3fmt3v127fstringIJN4test25struct_as_const_referenceEEEC2ILm3EEERAT__Kc
FNA:154,1,_ZN3fmt3v127fstringIJN4test26scoped_enum_as_string_viewEEEC1ILm3EEERAT__Kc
FNA:154,1,_ZN3fmt3v127fstringIJN4test26scoped_enum_as_string_viewEEEC2ILm3EEERAT__Kc
FNA:154,1,_ZN3fmt3v127fstringIJN7test_ns5colorEEEC1ILm3EEERAT__Kc
FNA:154,1,_ZN3fmt3v127fstringIJN7test_ns5colorEEEC2ILm3EEERAT__Kc
FNA:154,1,_ZN3fmt3v127fstringIJN8fmt_test3abcEEEC1ILm3EEERAT__Kc
FNA:154,1,_ZN3fmt3v127fstringIJN8fmt_test3abcEEEC1ILm5EEERAT__Kc
FNA:154,1,_ZN3fmt3v127fstringIJN8fmt_test3abcEEEC2ILm3EEERAT__Kc
FNA:154,1,_ZN3fmt3v127fstringIJN8fmt_test3abcEEEC2ILm5EEERAT__Kc
FNA:154,1,_ZN3fmt3v127fstringIJNS0_11nested_viewIdcEES3_EEC1ILm9EEERAT__Kc
FNA:154,1,_ZN3fmt3v127fstringIJNS0_11nested_viewIdcEES3_EEC2ILm9EEERAT__Kc
FNA:154,1,_ZN3fmt3v127fstringIJNS0_15tuple_join_viewI10tuple_likecEEEEC1ILm3EEERAT__Kc
FNA:154,1,_ZN3fmt3v127fstringIJNS0_15tuple_join_viewI10tuple_likecEEEEC2ILm3EEERAT__Kc
FNA:154,1,_ZN3fmt3v127fstringIJNS0_15tuple_join_viewINSt3__15tupleIJEEEcEEEEC1ILm3EEERAT__Kc
FNA:154,1,_ZN3fmt3v127fstringIJNS0_15tuple_join_viewINSt3__15tupleIJEEEcEEEEC2ILm3EEERAT__Kc
FNA:154,1,_ZN3fmt3v127fstringIJNS0_15tuple_join_viewINSt3__15tupleIJcRiEEEcEEEEC1ILm3EEERAT__Kc
FNA:154,1,_ZN3fmt3v127fstringIJNS0_15tuple_join_viewINSt3__15tupleIJcRiEEEcEEEEC2ILm3EEERAT__Kc
FNA:154,1,_ZN3fmt3v127fstringIJNS0_15tuple_join_viewINSt3__15tupleIJcifEEEcEEEEC1ILm5EEERAT__Kc
FNA:154,1,_ZN3fmt3v127fstringIJNS0_15tuple_join_viewINSt3__15tupleIJcifEEEcEEEEC2ILm5EEERAT__Kc
FNA:154,1,_ZN3fmt3v127fstringIJNS0_15tuple_join_viewINSt3__15tupleIJfEEEcEEEEC1ILm3EEERAT__Kc
FNA:154,1,_ZN3fmt3v127fstringIJNS0_15tuple_join_viewINSt3__15tupleIJfEEEcEEEEC2ILm3EEERAT__Kc
FNA:154,2,_ZN3fmt3v127fstringIJNS0_17basic_string_viewIcEEEEC1ILm3EEERAT__Kc
FNA:154,1,_ZN3fmt3v127fstringIJNS0_17basic_string_viewIcEEEEC1ILm5EEERAT__Kc
FNA:154,2,_ZN3fmt3v127fstringIJNS0_17basic_string_viewIcEEEEC2ILm3EEERAT__Kc
FNA:154,1,_ZN3fmt3v127fstringIJNS0_17basic_string_viewIcEEEEC2ILm5EEERAT__Kc
FNA:154,2,_ZN3fmt3v127fstringIJNS0_17group_digits_viewIiEEEEC1ILm3EEERAT__Kc
FNA:154,3,_ZN3fmt3v127fstringIJNS0_17group_digits_viewIiEEEEC1ILm5EEERAT__Kc
FNA:154,2,_ZN3fmt3v127fstringIJNS0_17group_digits_viewIiEEEEC2ILm3EEERAT__Kc
FNA:154,3,_ZN3fmt3v127fstringIJNS0_17group_digits_viewIiEEEEC2ILm5EEERAT__Kc
FNA:154,1,_ZN3fmt3v127fstringIJNS0_5bytesEEEC1ILm6EEERAT__Kc
FNA:154,1,_ZN3fmt3v127fstringIJNS0_5bytesEEEC2ILm6EEERAT__Kc
FNA:154,2,_ZN3fmt3v127fstringIJNS0_6detail10styled_argIA4_cEEEEC1ILm3EEERAT__Kc
FNA:154,2,_ZN3fmt3v127fstringIJNS0_6detail10styled_argIA4_cEEEEC2ILm3EEERAT__Kc
FNA:154,1,_ZN3fmt3v127fstringIJNS0_6detail10styled_argIA4_cEENS3_IA5_cEEEEC1ILm5EEERAT__Kc
FNA:154,1,_ZN3fmt3v127fstringIJNS0_6detail10styled_argIA4_cEENS3_IA5_cEEEEC2ILm5EEERAT__Kc
FNA:154,1,_ZN3fmt3v127fstringIJNS0_6detail13streamed_viewI28streamable_and_unformattableEEEEC1ILm3EEERAT__Kc
FNA:154,1,_ZN3fmt3v127fstringIJNS0_6detail13streamed_viewI28streamable_and_unformattableEEEEC2ILm3EEERAT__Kc
FNA:154,1,_ZN3fmt3v127fstringIJNS0_6detail9named_argIc6AnswerEEEEC1ILm9EEERAT__Kc
FNA:154,1,_ZN3fmt3v127fstringIJNS0_6detail9named_argIc6AnswerEEEEC2ILm9EEERAT__Kc
FNA:154,1,_ZN3fmt3v127fstringIJNS0_6detail9named_argIcA5_cEENS3_IcA4_cEENS3_IciEEEEC1ILm30EEERAT__Kc
FNA:154,1,_ZN3fmt3v127fstringIJNS0_6detail9named_argIcA5_cEENS3_IcA4_cEENS3_IciEEEEC2ILm30EEERAT__Kc
FNA:154,1,_ZN3fmt3v127fstringIJNS0_6detail9named_argIcRA5_KcEENS3_IcRA4_S4_EENS3_IciEEEEC1ILm30EEERAT__S4_
FNA:154,1,_ZN3fmt3v127fstringIJNS0_6detail9named_argIcRA5_KcEENS3_IcRA4_S4_EENS3_IciEEEEC2ILm30EEERAT__S4_
FNA:154,1,_ZN3fmt3v127fstringIJNS0_6detail9named_argIccEENS3_IcA2_cEENS3_IciEEEEC1ILm15EEERAT__Kc
FNA:154,1,_ZN3fmt3v127fstringIJNS0_6detail9named_argIccEENS3_IcA2_cEENS3_IciEEEEC2ILm15EEERAT__Kc
FNA:154,1,_ZN3fmt3v127fstringIJNS0_6detail9named_argIciEEEEC1ILm9EEERAT__Kc
FNA:154,1,_ZN3fmt3v127fstringIJNS0_6detail9named_argIciEEEEC2ILm9EEERAT__Kc
FNA:154,1,_ZN3fmt3v127fstringIJNS0_6detail9named_argIciEES4_EEC1ILm16EEERAT__Kc
FNA:154,1,_ZN3fmt3v127fstringIJNS0_6detail9named_argIciEES4_EEC1ILm4EEERAT__Kc
FNA:154,1,_ZN3fmt3v127fstringIJNS0_6detail9named_argIciEES4_EEC2ILm16EEERAT__Kc
FNA:154,1,_ZN3fmt3v127fstringIJNS0_6detail9named_argIciEES4_EEC2ILm4EEERAT__Kc
FNA:154,1,_ZN3fmt3v127fstringIJNS0_6detail9named_argIciEES4_S4_S4_S4_S4_S4_S4_S4_S4_S4_S4_S4_S4_S4_S4_EEC1ILm4EEERAT__Kc
FNA:154,1,_ZN3fmt3v127fstringIJNS0_6detail9named_argIciEES4_S4_S4_S4_S4_S4_S4_S4_S4_S4_S4_S4_S4_S4_S4_EEC2ILm4EEERAT__Kc
FNA:154,1,_ZN3fmt3v127fstringIJNS0_7weekdayEEEC1ILm28EEERAT__Kc
FNA:154,1,_ZN3fmt3v127fstringIJNS0_7weekdayEEEC2ILm28EEERAT__Kc
FNA:154,1,_ZN3fmt3v127fstringIJNS0_9join_viewI28noncopyable_istream_iteratorNSt3__116istream_iteratorIicNS4_11char_traitsIcEElEEcEEEEC1ILm3EEERAT__Kc
FNA:154,1,_ZN3fmt3v127fstringIJNS0_9join_viewI28noncopyable_istream_iteratorNSt3__116istream_iteratorIicNS4_11char_traitsIcEElEEcEEEEC2ILm3EEERAT__Kc
FNA:154,1,_ZN3fmt3v127fstringIJNS0_9join_viewINSt3__111__wrap_iterIP17basic_test_stringIcEEES8_cEEEEC1ILm3EEERAT__Kc
FNA:154,1,_ZN3fmt3v127fstringIJNS0_9join_viewINSt3__111__wrap_iterIP17basic_test_stringIcEEES8_cEEEEC2ILm3EEERAT__Kc
FNA:154,1,_ZN3fmt3v127fstringIJNS0_9join_viewINSt3__111__wrap_iterIP9test_enumEES7_cEEEEC1ILm3EEERAT__Kc
FNA:154,1,_ZN3fmt3v127fstringIJNS0_9join_viewINSt3__111__wrap_iterIP9test_enumEES7_cEEEEC2ILm3EEERAT__Kc
FNA:154,3,_ZN3fmt3v127fstringIJNS0_9join_viewINSt3__111__wrap_iterIPKiEES7_cEEEEC1ILm3EEERAT__Kc
FNA:154,3,_ZN3fmt3v127fstringIJNS0_9join_viewINSt3__111__wrap_iterIPKiEES7_cEEEEC2ILm3EEERAT__Kc
FNA:154,2,_ZN3fmt3v127fstringIJNS0_9join_viewINSt3__111__wrap_iterIPfEES6_cEEEEC1ILm12EEERAT__Kc
FNA:154,2,_ZN3fmt3v127fstringIJNS0_9join_viewINSt3__111__wrap_iterIPfEES6_cEEEEC2ILm12EEERAT__Kc
FNA:154,4,_ZN3fmt3v127fstringIJNS0_9join_viewINSt3__111__wrap_iterIPiEES6_cEEEEC1ILm3EEERAT__Kc
FNA:154,4,_ZN3fmt3v127fstringIJNS0_9join_viewINSt3__111__wrap_iterIPiEES6_cEEEEC2ILm3EEERAT__Kc
FNA:154,1,_ZN3fmt3v127fstringIJNS0_9join_viewINSt3__116istream_iteratorIicNS3_11char_traitsIcEElEES7_cEEEEC1ILm3EEERAT__Kc
FNA:154,1,_ZN3fmt3v127fstringIJNS0_9join_viewINSt3__116istream_iteratorIicNS3_11char_traitsIcEElEES7_cEEEEC2ILm3EEERAT__Kc
FNA:154,1,_ZN3fmt3v127fstringIJNS0_9join_viewIPKPKcS6_cEEEEC1ILm3EEERAT__S3_
FNA:154,1,_ZN3fmt3v127fstringIJNS0_9join_viewIPKPKcS6_cEEEEC2ILm3EEERAT__S3_
FNA:154,1,_ZN3fmt3v127fstringIJNS0_9join_viewIPKc16zstring_sentinelcEEEEC1ILm3EEERAT__S3_
FNA:154,1,_ZN3fmt3v127fstringIJNS0_9join_viewIPKc16zstring_sentinelcEEEEC2ILm3EEERAT__S3_
FNA:154,2,_ZN3fmt3v127fstringIJNS0_9join_viewIPKiS4_cEEEEC1ILm3EEERAT__Kc
FNA:154,1,_ZN3fmt3v127fstringIJNS0_9join_viewIPKiS4_cEEEEC1ILm5EEERAT__Kc
FNA:154,2,_ZN3fmt3v127fstringIJNS0_9join_viewIPKiS4_cEEEEC2ILm3EEERAT__Kc
FNA:154,1,_ZN3fmt3v127fstringIJNS0_9join_viewIPKiS4_cEEEEC2ILm5EEERAT__Kc
FNA:154,1,_ZN3fmt3v127fstringIJNS0_9join_viewIPPvS4_cEEEEC1ILm3EEERAT__Kc
FNA:154,1,_ZN3fmt3v127fstringIJNS0_9join_viewIPPvS4_cEEEEC2ILm3EEERAT__Kc
FNA:154,1,_ZN3fmt3v127fstringIJNS0_9join_viewIPiS3_cEEEEC1ILm3EEERAT__Kc
FNA:154,3,_ZN3fmt3v127fstringIJNS0_9join_viewIPiS3_cEEEEC1ILm5EEERAT__Kc
FNA:154,1,_ZN3fmt3v127fstringIJNS0_9join_viewIPiS3_cEEEEC1ILm8EEERAT__Kc
FNA:154,1,_ZN3fmt3v127fstringIJNS0_9join_viewIPiS3_cEEEEC2ILm3EEERAT__Kc
FNA:154,3,_ZN3fmt3v127fstringIJNS0_9join_viewIPiS3_cEEEEC2ILm5EEERAT__Kc
FNA:154,1,_ZN3fmt3v127fstringIJNS0_9join_viewIPiS3_cEEEEC2ILm8EEERAT__Kc
FNA:154,1,_ZN3fmt3v127fstringIJNS0_9join_viewIPiS3_cEEiEEC1ILm8EEERAT__Kc
FNA:154,1,_ZN3fmt3v127fstringIJNS0_9join_viewIPiS3_cEEiEEC2ILm8EEERAT__Kc
FNA:154,3,_ZN3fmt3v127fstringIJNSt3__110error_codeEEEC1ILm3EEERAT__Kc
FNA:154,1,_ZN3fmt3v127fstringIJNSt3__110error_codeEEEC1ILm5EEERAT__Kc
FNA:154,1,_ZN3fmt3v127fstringIJNSt3__110error_codeEEEC1ILm6EEERAT__Kc
FNA:154,1,_ZN3fmt3v127fstringIJNSt3__110error_codeEEEC1ILm7EEERAT__Kc
FNA:154,3,_ZN3fmt3v127fstringIJNSt3__110error_codeEEEC2ILm3EEERAT__Kc
FNA:154,1,_ZN3fmt3v127fstringIJNSt3__110error_codeEEEC2ILm5EEERAT__Kc
FNA:154,1,_ZN3fmt3v127fstringIJNSt3__110error_codeEEEC2ILm6EEERAT__Kc
FNA:154,1,_ZN3fmt3v127fstringIJNSt3__110error_codeEEEC2ILm7EEERAT__Kc
FNA:154,1,_ZN3fmt3v127fstringIJNSt3__111__thread_idEEEC1ILm3EEERAT__Kc
FNA:154,1,_ZN3fmt3v127fstringIJNSt3__111__thread_idEEEC2ILm3EEERAT__Kc
FNA:154,1,_ZN3fmt3v127fstringIJNSt3__112basic_stringIcNS2_11char_traitsIcEENS2_9allocatorIcEEEEEEC1ILm3EEERAT__Kc
FNA:154,2,_ZN3fmt3v127fstringIJNSt3__112basic_stringIcNS2_11char_traitsIcEENS2_9allocatorIcEEEEEEC1ILm4EEERAT__Kc
FNA:154,2,_ZN3fmt3v127fstringIJNSt3__112basic_stringIcNS2_11char_traitsIcEENS2_9allocatorIcEEEEEEC1ILm5EEERAT__Kc
FNA:154,1,_ZN3fmt3v127fstringIJNSt3__112basic_stringIcNS2_11char_traitsIcEENS2_9allocatorIcEEEEEEC1ILm9EEERAT__Kc
FNA:154,1,_ZN3fmt3v127fstringIJNSt3__112basic_stringIcNS2_11char_traitsIcEENS2_9allocatorIcEEEEEEC2ILm3EEERAT__Kc
FNA:154,2,_ZN3fmt3v127fstringIJNSt3__112basic_stringIcNS2_11char_traitsIcEENS2_9allocatorIcEEEEEEC2ILm4EEERAT__Kc
FNA:154,2,_ZN3fmt3v127fstringIJNSt3__112basic_stringIcNS2_11char_traitsIcEENS2_9allocatorIcEEEEEEC2ILm5EEERAT__Kc
FNA:154,1,_ZN3fmt3v127fstringIJNSt3__112basic_stringIcNS2_11char_traitsIcEENS2_9allocatorIcEEEEEEC2ILm9EEERAT__Kc
FNA:154,1,_ZN3fmt3v127fstringIJNSt3__112basic_stringIcNS2_11char_traitsIcEENS2_9allocatorIcEEEES8_EEC1ILm93EEERAT__Kc
FNA:154,1,_ZN3fmt3v127fstringIJNSt3__112basic_stringIcNS2_11char_traitsIcEENS2_9allocatorIcEEEES8_EEC2ILm93EEERAT__Kc
FNA:154,1,_ZN3fmt3v127fstringIJNSt3__115__bit_referenceINS2_6vectorIbNS2_9allocatorIbEEEELb1EEES8_EEC1ILm6EEERAT__Kc
FNA:154,1,_ZN3fmt3v127fstringIJNSt3__115__bit_referenceINS2_6vectorIbNS2_9allocatorIbEEEELb1EEES8_EEC2ILm6EEERAT__Kc
FNA:154,1,_ZN3fmt3v127fstringIJNSt3__115__bit_referenceINS2_8__bitsetILm1ELm2EEELb1EEES6_EEC1ILm6EEERAT__Kc
FNA:154,1,_ZN3fmt3v127fstringIJNSt3__115__bit_referenceINS2_8__bitsetILm1ELm2EEELb1EEES6_EEC2ILm6EEERAT__Kc
FNA:154,1,_ZN3fmt3v127fstringIJNSt3__117basic_string_viewIcNS2_11char_traitsIcEEEEEEC1ILm3EEERAT__Kc
FNA:154,1,_ZN3fmt3v127fstringIJNSt3__117basic_string_viewIcNS2_11char_traitsIcEEEEEEC1ILm5EEERAT__Kc
FNA:154,1,_ZN3fmt3v127fstringIJNSt3__117basic_string_viewIcNS2_11char_traitsIcEEEEEEC2ILm3EEERAT__Kc
FNA:154,1,_ZN3fmt3v127fstringIJNSt3__117basic_string_viewIcNS2_11char_traitsIcEEEEEEC2ILm5EEERAT__Kc
FNA:154,1,_ZN3fmt3v127fstringIJNSt3__117reference_wrapperI19type_with_format_asEEEEC1ILm3EEERAT__Kc
FNA:154,1,_ZN3fmt3v127fstringIJNSt3__117reference_wrapperI19type_with_format_asEEEEC2ILm3EEERAT__Kc
FNA:154,1,_ZN3fmt3v127fstringIJNSt3__117reference_wrapperI26type_with_format_as_stringEEEEC1ILm3EEERAT__Kc
FNA:154,1,_ZN3fmt3v127fstringIJNSt3__117reference_wrapperI26type_with_format_as_stringEEEEC2ILm3EEERAT__Kc
FNA:154,1,_ZN3fmt3v127fstringIJNSt3__117reference_wrapperIK19type_with_format_asEEEEC1ILm3EEERAT__Kc
FNA:154,1,_ZN3fmt3v127fstringIJNSt3__117reference_wrapperIK19type_with_format_asEEEEC2ILm3EEERAT__Kc
FNA:154,1,_ZN3fmt3v127fstringIJNSt3__117reference_wrapperIK26type_with_format_as_stringEEEEC1ILm3EEERAT__Kc
FNA:154,1,_ZN3fmt3v127fstringIJNSt3__117reference_wrapperIK26type_with_format_as_stringEEEEC2ILm3EEERAT__Kc
FNA:154,1,_ZN3fmt3v127fstringIJNSt3__117reference_wrapperIKiEEEEC1ILm3EEERAT__Kc
FNA:154,1,_ZN3fmt3v127fstringIJNSt3__117reference_wrapperIKiEEEEC2ILm3EEERAT__Kc
FNA:154,1,_ZN3fmt3v127fstringIJNSt3__117reference_wrapperIiEEEEC1ILm3EEERAT__Kc
FNA:154,1,_ZN3fmt3v127fstringIJNSt3__117reference_wrapperIiEEEEC2ILm3EEERAT__Kc
FNA:154,1,_ZN3fmt3v127fstringIJNSt3__121__bit_const_referenceINS2_6vectorIbNS2_9allocatorIbEEEEEES8_EEC1ILm6EEERAT__Kc
FNA:154,1,_ZN3fmt3v127fstringIJNSt3__121__bit_const_referenceINS2_6vectorIbNS2_9allocatorIbEEEEEES8_EEC2ILm6EEERAT__Kc
FNA:154,1,_ZN3fmt3v127fstringIJNSt3__121__bit_const_referenceINS2_8__bitsetILm1ELm2EEEEES6_EEC1ILm6EEERAT__Kc
FNA:154,1,_ZN3fmt3v127fstringIJNSt3__121__bit_const_referenceINS2_8__bitsetILm1ELm2EEEEES6_EEC2ILm6EEERAT__Kc
FNA:154,1,_ZN3fmt3v127fstringIJNSt3__13mapINS2_10error_codeEiNS2_4lessIS4_EENS2_9allocatorINS2_4pairIKS4_iEEEEEEEEC1ILm3EEERAT__Kc
FNA:154,1,_ZN3fmt3v127fstringIJNSt3__13mapINS2_10error_codeEiNS2_4lessIS4_EENS2_9allocatorINS2_4pairIKS4_iEEEEEEEEC2ILm3EEERAT__Kc
FNA:154,1,_ZN3fmt3v127fstringIJNSt3__13mapIi14test_map_valueNS2_4lessIiEENS2_9allocatorINS2_4pairIKiS4_EEEEEEEEC1ILm3EEERAT__Kc
FNA:154,1,_ZN3fmt3v127fstringIJNSt3__13mapIi14test_map_valueNS2_4lessIiEENS2_9allocatorINS2_4pairIKiS4_EEEEEEEEC2ILm3EEERAT__Kc
FNA:154,1,_ZN3fmt3v127fstringIJNSt3__13setINS2_12basic_stringIcNS2_11char_traitsIcEENS2_9allocatorIcEEEENS2_4lessIS9_EENS7_IS9_EEEEEEC1ILm3EEERAT__Kc
FNA:154,1,_ZN3fmt3v127fstringIJNSt3__13setINS2_12basic_stringIcNS2_11char_traitsIcEENS2_9allocatorIcEEEENS2_4lessIS9_EENS7_IS9_EEEEEEC2ILm3EEERAT__Kc
FNA:154,1,_ZN3fmt3v127fstringIJNSt3__15tupleIJEEEEEC1ILm3EEERAT__Kc
FNA:154,1,_ZN3fmt3v127fstringIJNSt3__15tupleIJEEEEEC2ILm3EEERAT__Kc
FNA:154,2,_ZN3fmt3v127fstringIJNSt3__16chrono10time_pointINS3_12system_clockENS3_8durationIxNS2_5ratioILl1ELl1000EEEEEEEEEC1ILm6EEERAT__Kc
FNA:154,2,_ZN3fmt3v127fstringIJNSt3__16chrono10time_pointINS3_12system_clockENS3_8durationIxNS2_5ratioILl1ELl1000EEEEEEEEEC2ILm6EEERAT__Kc
FNA:154,1,_ZN3fmt3v127fstringIJNSt3__16chrono8durationIaNS2_5ratioILl1ELl1000EEEEEEEC1ILm6EEERAT__Kc
FNA:154,1,_ZN3fmt3v127fstringIJNSt3__16chrono8durationIaNS2_5ratioILl1ELl1000EEEEEEEC2ILm6EEERAT__Kc
FNA:154,1,_ZN3fmt3v127fstringIJNSt3__16chrono8durationIaNS2_5ratioILl1ELl100EEEEEEEC1ILm6EEERAT__Kc
FNA:154,1,_ZN3fmt3v127fstringIJNSt3__16chrono8durationIaNS2_5ratioILl1ELl100EEEEEEEC2ILm6EEERAT__Kc
FNA:154,2,_ZN3fmt3v127fstringIJNSt3__16chrono8durationIcNS2_5ratioILl1000000ELl1EEEEEEEC1ILm6EEERAT__Kc
FNA:154,2,_ZN3fmt3v127fstringIJNSt3__16chrono8durationIcNS2_5ratioILl1000000ELl1EEEEEEEC2ILm6EEERAT__Kc
FNA:154,4,_ZN3fmt3v127fstringIJNSt3__16chrono8durationIdNS2_5ratioILl1ELl1000000000EEEEEEEC1ILm6EEERAT__Kc
FNA:154,4,_ZN3fmt3v127fstringIJNSt3__16chrono8durationIdNS2_5ratioILl1ELl1000000000EEEEEEEC2ILm6EEERAT__Kc
FNA:154,2,_ZN3fmt3v127fstringIJNSt3__16chrono8durationIdNS2_5ratioILl1ELl1000EEEEEEEC1ILm10EEERAT__Kc
FNA:154,1,_ZN3fmt3v127fstringIJNSt3__16chrono8durationIdNS2_5ratioILl1ELl1000EEEEEEEC1ILm11EEERAT__Kc
FNA:154,3,_ZN3fmt3v127fstringIJNSt3__16chrono8durationIdNS2_5ratioILl1ELl1000EEEEEEEC1ILm12EEERAT__Kc
FNA:154,2,_ZN3fmt3v127fstringIJNSt3__16chrono8durationIdNS2_5ratioILl1ELl1000EEEEEEEC1ILm15EEERAT__Kc
FNA:154,1,_ZN3fmt3v127fstringIJNSt3__16chrono8durationIdNS2_5ratioILl1ELl1000EEEEEEEC1ILm3EEERAT__Kc
FNA:154,5,_ZN3fmt3v127fstringIJNSt3__16chrono8durationIdNS2_5ratioILl1ELl1000EEEEEEEC1ILm6EEERAT__Kc
FNA:154,3,_ZN3fmt3v127fstringIJNSt3__16chrono8durationIdNS2_5ratioILl1ELl1000EEEEEEEC1ILm7EEERAT__Kc
FNA:154,2,_ZN3fmt3v127fstringIJNSt3__16chrono8durationIdNS2_5ratioILl1ELl1000EEEEEEEC1ILm8EEERAT__Kc
FNA:154,1,_ZN3fmt3v127fstringIJNSt3__16chrono8durationIdNS2_5ratioILl1ELl1000EEEEEEEC1ILm9EEERAT__Kc
FNA:154,2,_ZN3fmt3v127fstringIJNSt3__16chrono8durationIdNS2_5ratioILl1ELl1000EEEEEEEC2ILm10EEERAT__Kc
FNA:154,1,_ZN3fmt3v127fstringIJNSt3__16chrono8durationIdNS2_5ratioILl1ELl1000EEEEEEEC2ILm11EEERAT__Kc
FNA:154,3,_ZN3fmt3v127fstringIJNSt3__16chrono8durationIdNS2_5ratioILl1ELl1000EEEEEEEC2ILm12EEERAT__Kc
FNA:154,2,_ZN3fmt3v127fstringIJNSt3__16chrono8durationIdNS2_5ratioILl1ELl1000EEEEEEEC2ILm15EEERAT__Kc
FNA:154,1,_ZN3fmt3v127fstringIJNSt3__16chrono8durationIdNS2_5ratioILl1ELl1000EEEEEEEC2ILm3EEERAT__Kc
FNA:154,5,_ZN3fmt3v127fstringIJNSt3__16chrono8durationIdNS2_5ratioILl1ELl1000EEEEEEEC2ILm6EEERAT__Kc
FNA:154,3,_ZN3fmt3v127fstringIJNSt3__16chrono8durationIdNS2_5ratioILl1ELl1000EEEEEEEC2ILm7EEERAT__Kc
FNA:154,2,_ZN3fmt3v127fstringIJNSt3__16chrono8durationIdNS2_5ratioILl1ELl1000EEEEEEEC2ILm8EEERAT__Kc
FNA:154,1,_ZN3fmt3v127fstringIJNSt3__16chrono8durationIdNS2_5ratioILl1ELl1000EEEEEEEC2ILm9EEERAT__Kc
FNA:154,1,_ZN3fmt3v127fstringIJNSt3__16chrono8durationIdNS2_5ratioILl1ELl1000EEEEEiEEC1ILm12EEERAT__Kc
FNA:154,2,_ZN3fmt3v127fstringIJNSt3__16chrono8durationIdNS2_5ratioILl1ELl1000EEEEEiEEC1ILm14EEERAT__Kc
FNA:154,1,_ZN3fmt3v127fstringIJNSt3__16chrono8durationIdNS2_5ratioILl1ELl1000EEEEEiEEC1ILm7EEERAT__Kc
FNA:154,2,_ZN3fmt3v127fstringIJNSt3__16chrono8durationIdNS2_5ratioILl1ELl1000EEEEEiEEC1ILm9EEERAT__Kc
FNA:154,1,_ZN3fmt3v127fstringIJNSt3__16chrono8durationIdNS2_5ratioILl1ELl1000EEEEEiEEC2ILm12EEERAT__Kc
FNA:154,2,_ZN3fmt3v127fstringIJNSt3__16chrono8durationIdNS2_5ratioILl1ELl1000EEEEEiEEC2ILm14EEERAT__Kc
FNA:154,1,_ZN3fmt3v127fstringIJNSt3__16chrono8durationIdNS2_5ratioILl1ELl1000EEEEEiEEC2ILm7EEERAT__Kc
FNA:154,2,_ZN3fmt3v127fstringIJNSt3__16chrono8durationIdNS2_5ratioILl1ELl1000EEEEEiEEC2ILm9EEERAT__Kc
FNA:154,2,_ZN3fmt3v127fstringIJNSt3__16chrono8durationIdNS2_5ratioILl1ELl1000EEEEEiiEEC1ILm10EEERAT__Kc
FNA:154,2,_ZN3fmt3v127fstringIJNSt3__16chrono8durationIdNS2_5ratioILl1ELl1000EEEEEiiEEC1ILm11EEERAT__Kc
FNA:154,2,_ZN3fmt3v127fstringIJNSt3__16chrono8durationIdNS2_5ratioILl1ELl1000EEEEEiiEEC1ILm13EEERAT__Kc
FNA:154,2,_ZN3fmt3v127fstringIJNSt3__16chrono8durationIdNS2_5ratioILl1ELl1000EEEEEiiEEC1ILm15EEERAT__Kc
FNA:154,2,_ZN3fmt3v127fstringIJNSt3__16chrono8durationIdNS2_5ratioILl1ELl1000EEEEEiiEEC1ILm16EEERAT__Kc
FNA:154,2,_ZN3fmt3v127fstringIJNSt3__16chrono8durationIdNS2_5ratioILl1ELl1000EEEEEiiEEC1ILm18EEERAT__Kc
FNA:154,2,_ZN3fmt3v127fstringIJNSt3__16chrono8durationIdNS2_5ratioILl1ELl1000EEEEEiiEEC2ILm10EEERAT__Kc
FNA:154,2,_ZN3fmt3v127fstringIJNSt3__16chrono8durationIdNS2_5ratioILl1ELl1000EEEEEiiEEC2ILm11EEERAT__Kc
FNA:154,2,_ZN3fmt3v127fstringIJNSt3__16chrono8durationIdNS2_5ratioILl1ELl1000EEEEEiiEEC2ILm13EEERAT__Kc
FNA:154,2,_ZN3fmt3v127fstringIJNSt3__16chrono8durationIdNS2_5ratioILl1ELl1000EEEEEiiEEC2ILm15EEERAT__Kc
FNA:154,2,_ZN3fmt3v127fstringIJNSt3__16chrono8durationIdNS2_5ratioILl1ELl1000EEEEEiiEEC2ILm16EEERAT__Kc
FNA:154,2,_ZN3fmt3v127fstringIJNSt3__16chrono8durationIdNS2_5ratioILl1ELl1000EEEEEiiEEC2ILm18EEERAT__Kc
FNA:154,1,_ZN3fmt3v127fstringIJNSt3__16chrono8durationIdNS2_5ratioILl1ELl1EEEEEEEC1ILm21EEERAT__Kc
FNA:154,1,_ZN3fmt3v127fstringIJNSt3__16chrono8durationIdNS2_5ratioILl1ELl1EEEEEEEC1ILm3EEERAT__Kc
FNA:154,2,_ZN3fmt3v127fstringIJNSt3__16chrono8durationIdNS2_5ratioILl1ELl1EEEEEEEC1ILm6EEERAT__Kc
FNA:154,3,_ZN3fmt3v127fstringIJNSt3__16chrono8durationIdNS2_5ratioILl1ELl1EEEEEEEC1ILm9EEERAT__Kc
FNA:154,1,_ZN3fmt3v127fstringIJNSt3__16chrono8durationIdNS2_5ratioILl1ELl1EEEEEEEC2ILm21EEERAT__Kc
FNA:154,1,_ZN3fmt3v127fstringIJNSt3__16chrono8durationIdNS2_5ratioILl1ELl1EEEEEEEC2ILm3EEERAT__Kc
FNA:154,2,_ZN3fmt3v127fstringIJNSt3__16chrono8durationIdNS2_5ratioILl1ELl1EEEEEEEC2ILm6EEERAT__Kc
FNA:154,3,_ZN3fmt3v127fstringIJNSt3__16chrono8durationIdNS2_5ratioILl1ELl1EEEEEEEC2ILm9EEERAT__Kc
FNA:154,1,_ZN3fmt3v127fstringIJNSt3__16chrono8durationIfNS2_5ratioILl1000000000000000000ELl1EEEEEEEC1ILm3EEERAT__Kc
FNA:154,1,_ZN3fmt3v127fstringIJNSt3__16chrono8durationIfNS2_5ratioILl1000000000000000000ELl1EEEEEEEC2ILm3EEERAT__Kc
FNA:154,1,_ZN3fmt3v127fstringIJNSt3__16chrono8durationIfNS2_5ratioILl1ELl1000000000000000000EEEEEEEC1ILm3EEERAT__Kc
FNA:154,1,_ZN3fmt3v127fstringIJNSt3__16chrono8durationIfNS2_5ratioILl1ELl1000000000000000000EEEEEEEC2ILm3EEERAT__Kc
FNA:154,1,_ZN3fmt3v127fstringIJNSt3__16chrono8durationIfNS2_5ratioILl1ELl1000000000000EEEEEEEC1ILm8EEERAT__Kc
FNA:154,1,_ZN3fmt3v127fstringIJNSt3__16chrono8durationIfNS2_5ratioILl1ELl1000000000000EEEEEEEC2ILm8EEERAT__Kc
FNA:154,1,_ZN3fmt3v127fstringIJNSt3__16chrono8durationIfNS2_5ratioILl1ELl1000EEEEEEEC1ILm3EEERAT__Kc
FNA:154,1,_ZN3fmt3v127fstringIJNSt3__16chrono8durationIfNS2_5ratioILl1ELl1000EEEEEEEC1ILm9EEERAT__Kc
FNA:154,1,_ZN3fmt3v127fstringIJNSt3__16chrono8durationIfNS2_5ratioILl1ELl1000EEEEEEEC2ILm3EEERAT__Kc
FNA:154,1,_ZN3fmt3v127fstringIJNSt3__16chrono8durationIfNS2_5ratioILl1ELl1000EEEEEEEC2ILm9EEERAT__Kc
FNA:154,1,_ZN3fmt3v127fstringIJNSt3__16chrono8durationIfNS2_5ratioILl1ELl1EEEEEEEC1ILm3EEERAT__Kc
FNA:154,1,_ZN3fmt3v127fstringIJNSt3__16chrono8durationIfNS2_5ratioILl1ELl1EEEEEEEC1ILm9EEERAT__Kc
FNA:154,1,_ZN3fmt3v127fstringIJNSt3__16chrono8durationIfNS2_5ratioILl1ELl1EEEEEEEC2ILm3EEERAT__Kc
FNA:154,1,_ZN3fmt3v127fstringIJNSt3__16chrono8durationIfNS2_5ratioILl1ELl1EEEEEEEC2ILm9EEERAT__Kc
FNA:154,1,_ZN3fmt3v127fstringIJNSt3__16chrono8durationIiNS2_5ratioILl1000000000000000000ELl1EEEEEEEC1ILm3EEERAT__Kc
FNA:154,1,_ZN3fmt3v127fstringIJNSt3__16chrono8durationIiNS2_5ratioILl1000000000000000000ELl1EEEEEEEC2ILm3EEERAT__Kc
FNA:154,1,_ZN3fmt3v127fstringIJNSt3__16chrono8durationIiNS2_5ratioILl1000000000000000ELl1EEEEEEEC1ILm3EEERAT__Kc
FNA:154,1,_ZN3fmt3v127fstringIJNSt3__16chrono8durationIiNS2_5ratioILl1000000000000000ELl1EEEEEEEC2ILm3EEERAT__Kc
FNA:154,1,_ZN3fmt3v127fstringIJNSt3__16chrono8durationIiNS2_5ratioILl1000000000000ELl1EEEEEEEC1ILm3EEERAT__Kc
FNA:154,1,_ZN3fmt3v127fstringIJNSt3__16chrono8durationIiNS2_5ratioILl1000000000000ELl1EEEEEEEC2ILm3EEERAT__Kc
FNA:154,1,_ZN3fmt3v127fstringIJNSt3__16chrono8durationIiNS2_5ratioILl1000000000ELl1EEEEEEEC1ILm3EEERAT__Kc
FNA:154,1,_ZN3fmt3v127fstringIJNSt3__16chrono8durationIiNS2_5ratioILl1000000000ELl1EEEEEEEC2ILm3EEERAT__Kc
FNA:154,1,_ZN3fmt3v127fstringIJNSt3__16chrono8durationIiNS2_5ratioILl1000000ELl1EEEEEEEC1ILm3EEERAT__Kc
FNA:154,1,_ZN3fmt3v127fstringIJNSt3__16chrono8durationIiNS2_5ratioILl1000000ELl1EEEEEEEC2ILm3EEERAT__Kc
FNA:154,1,_ZN3fmt3v127fstringIJNSt3__16chrono8durationIiNS2_5ratioILl1000ELl1EEEEEEEC1ILm3EEERAT__Kc
FNA:154,1,_ZN3fmt3v127fstringIJNSt3__16chrono8durationIiNS2_5ratioILl1000ELl1EEEEEEEC2ILm3EEERAT__Kc
FNA:154,1,_ZN3fmt3v127fstringIJNSt3__16chrono8durationIiNS2_5ratioILl100ELl1EEEEEEEC1ILm3EEERAT__Kc
FNA:154,1,_ZN3fmt3v127fstringIJNSt3__16chrono8durationIiNS2_5ratioILl100ELl1EEEEEEEC2ILm3EEERAT__Kc
FNA:154,1,_ZN3fmt3v127fstringIJNSt3__16chrono8durationIiNS2_5ratioILl10ELl1EEEEEEEC1ILm3EEERAT__Kc
FNA:154,1,_ZN3fmt3v127fstringIJNSt3__16chrono8durationIiNS2_5ratioILl10ELl1EEEEEEEC2ILm3EEERAT__Kc
FNA:154,1,_ZN3fmt3v127fstringIJNSt3__16chrono8durationIiNS2_5ratioILl15ELl1EEEEEEEC1ILm3EEERAT__Kc
FNA:154,1,_ZN3fmt3v127fstringIJNSt3__16chrono8durationIiNS2_5ratioILl15ELl1EEEEEEEC2ILm3EEERAT__Kc
FNA:154,1,_ZN3fmt3v127fstringIJNSt3__16chrono8durationIiNS2_5ratioILl15ELl4EEEEEEEC1ILm3EEERAT__Kc
FNA:154,1,_ZN3fmt3v127fstringIJNSt3__16chrono8durationIiNS2_5ratioILl15ELl4EEEEEEEC2ILm3EEERAT__Kc
FNA:154,1,_ZN3fmt3v127fstringIJNSt3__16chrono8durationIiNS2_5ratioILl1ELl1000000000000000000EEEEEEEC1ILm3EEERAT__Kc
FNA:154,1,_ZN3fmt3v127fstringIJNSt3__16chrono8durationIiNS2_5ratioILl1ELl1000000000000000000EEEEEEEC2ILm3EEERAT__Kc
FNA:154,1,_ZN3fmt3v127fstringIJNSt3__16chrono8durationIiNS2_5ratioILl1ELl1000000000000000EEEEEEEC1ILm3EEERAT__Kc
FNA:154,1,_ZN3fmt3v127fstringIJNSt3__16chrono8durationIiNS2_5ratioILl1ELl1000000000000000EEEEEEEC2ILm3EEERAT__Kc
FNA:154,1,_ZN3fmt3v127fstringIJNSt3__16chrono8durationIiNS2_5ratioILl1ELl1000000000000EEEEEEEC1ILm3EEERAT__Kc
FNA:154,1,_ZN3fmt3v127fstringIJNSt3__16chrono8durationIiNS2_5ratioILl1ELl1000000000000EEEEEEEC2ILm3EEERAT__Kc
FNA:154,1,_ZN3fmt3v127fstringIJNSt3__16chrono8durationIiNS2_5ratioILl1ELl100EEEEEEEC1ILm3EEERAT__Kc
FNA:154,1,_ZN3fmt3v127fstringIJNSt3__16chrono8durationIiNS2_5ratioILl1ELl100EEEEEEEC2ILm3EEERAT__Kc
FNA:154,1,_ZN3fmt3v127fstringIJNSt3__16chrono8durationIiNS2_5ratioILl1ELl10EEEEEEEC1ILm3EEERAT__Kc
FNA:154,1,_ZN3fmt3v127fstringIJNSt3__16chrono8durationIiNS2_5ratioILl1ELl10EEEEEEEC2ILm3EEERAT__Kc
FNA:154,1,_ZN3fmt3v127fstringIJNSt3__16chrono8durationIiNS2_5ratioILl1ELl1EEEEEEEC1ILm6EEERAT__Kc
FNA:154,1,_ZN3fmt3v127fstringIJNSt3__16chrono8durationIiNS2_5ratioILl1ELl1EEEEEEEC2ILm6EEERAT__Kc
FNA:154,1,_ZN3fmt3v127fstringIJNSt3__16chrono8durationIjNS2_5ratioILl1ELl1EEEEEEEC1ILm3EEERAT__Kc
FNA:154,1,_ZN3fmt3v127fstringIJNSt3__16chrono8durationIjNS2_5ratioILl1ELl1EEEEEEEC2ILm3EEERAT__Kc
FNA:154,1,_ZN3fmt3v127fstringIJNSt3__16chrono8durationIlNS2_5ratioILl3600ELl1EEEEEEEC1ILm3EEERAT__Kc
FNA:154,9,_ZN3fmt3v127fstringIJNSt3__16chrono8durationIlNS2_5ratioILl3600ELl1EEEEEEEC1ILm6EEERAT__Kc
FNA:154,1,_ZN3fmt3v127fstringIJNSt3__16chrono8durationIlNS2_5ratioILl3600ELl1EEEEEEEC1ILm8EEERAT__Kc
FNA:154,1,_ZN3fmt3v127fstringIJNSt3__16chrono8durationIlNS2_5ratioILl3600ELl1EEEEEEEC2ILm3EEERAT__Kc
FNA:154,9,_ZN3fmt3v127fstringIJNSt3__16chrono8durationIlNS2_5ratioILl3600ELl1EEEEEEEC2ILm6EEERAT__Kc
FNA:154,1,_ZN3fmt3v127fstringIJNSt3__16chrono8durationIlNS2_5ratioILl3600ELl1EEEEEEEC2ILm8EEERAT__Kc
FNA:154,1,_ZN3fmt3v127fstringIJNSt3__16chrono8durationIlNS2_5ratioILl60ELl1EEEEEEEC1ILm3EEERAT__Kc
FNA:154,4,_ZN3fmt3v127fstringIJNSt3__16chrono8durationIlNS2_5ratioILl60ELl1EEEEEEEC1ILm6EEERAT__Kc
FNA:154,0,_ZN3fmt3v127fstringIJNSt3__16chrono8durationIlNS2_5ratioILl60ELl1EEEEEEEC1ILm8EEERAT__Kc
FNA:154,1,_ZN3fmt3v127fstringIJNSt3__16chrono8durationIlNS2_5ratioILl60ELl1EEEEEEEC2ILm3EEERAT__Kc
FNA:154,4,_ZN3fmt3v127fstringIJNSt3__16chrono8durationIlNS2_5ratioILl60ELl1EEEEEEEC2ILm6EEERAT__Kc
FNA:154,0,_ZN3fmt3v127fstringIJNSt3__16chrono8durationIlNS2_5ratioILl60ELl1EEEEEEEC2ILm8EEERAT__Kc
FNA:154,1,_ZN3fmt3v127fstringIJNSt3__16chrono8durationIlNS2_5ratioILl86400ELl1EEEEEEEC1ILm3EEERAT__Kc
FNA:154,2,_ZN3fmt3v127fstringIJNSt3__16chrono8durationIlNS2_5ratioILl86400ELl1EEEEEEEC1ILm6EEERAT__Kc
FNA:154,1,_ZN3fmt3v127fstringIJNSt3__16chrono8durationIlNS2_5ratioILl86400ELl1EEEEEEEC2ILm3EEERAT__Kc
FNA:154,2,_ZN3fmt3v127fstringIJNSt3__16chrono8durationIlNS2_5ratioILl86400ELl1EEEEEEEC2ILm6EEERAT__Kc
FNA:154,1,_ZN3fmt3v127fstringIJNSt3__16chrono8durationIsNS2_5ratioILl1ELl100EEEEEEEC1ILm9EEERAT__Kc
FNA:154,1,_ZN3fmt3v127fstringIJNSt3__16chrono8durationIsNS2_5ratioILl1ELl100EEEEEEEC2ILm9EEERAT__Kc
FNA:154,3,_ZN3fmt3v127fstringIJNSt3__16chrono8durationIxNS2_5ratioILl1ELl1000000000000000000EEEEEEEC1ILm6EEERAT__Kc
FNA:154,3,_ZN3fmt3v127fstringIJNSt3__16chrono8durationIxNS2_5ratioILl1ELl1000000000000000000EEEEEEEC2ILm6EEERAT__Kc
FNA:154,1,_ZN3fmt3v127fstringIJNSt3__16chrono8durationIxNS2_5ratioILl1ELl1000000000EEEEEEEC1ILm3EEERAT__Kc
FNA:154,2,_ZN3fmt3v127fstringIJNSt3__16chrono8durationIxNS2_5ratioILl1ELl1000000000EEEEEEEC1ILm6EEERAT__Kc
FNA:154,1,_ZN3fmt3v127fstringIJNSt3__16chrono8durationIxNS2_5ratioILl1ELl1000000000EEEEEEEC1ILm8EEERAT__Kc
FNA:154,1,_ZN3fmt3v127fstringIJNSt3__16chrono8durationIxNS2_5ratioILl1ELl1000000000EEEEEEEC1ILm9EEERAT__Kc
FNA:154,1,_ZN3fmt3v127fstringIJNSt3__16chrono8durationIxNS2_5ratioILl1ELl1000000000EEEEEEEC2ILm3EEERAT__Kc
FNA:154,2,_ZN3fmt3v127fstringIJNSt3__16chrono8durationIxNS2_5ratioILl1ELl1000000000EEEEEEEC2ILm6EEERAT__Kc
FNA:154,1,_ZN3fmt3v127fstringIJNSt3__16chrono8durationIxNS2_5ratioILl1ELl1000000000EEEEEEEC2ILm8EEERAT__Kc
FNA:154,1,_ZN3fmt3v127fstringIJNSt3__16chrono8durationIxNS2_5ratioILl1ELl1000000000EEEEEEEC2ILm9EEERAT__Kc
FNA:154,1,_ZN3fmt3v127fstringIJNSt3__16chrono8durationIxNS2_5ratioILl1ELl1000000000EEEEEiEEC1ILm9EEERAT__Kc
FNA:154,1,_ZN3fmt3v127fstringIJNSt3__16chrono8durationIxNS2_5ratioILl1ELl1000000000EEEEEiEEC2ILm9EEERAT__Kc
FNA:154,1,_ZN3fmt3v127fstringIJNSt3__16chrono8durationIxNS2_5ratioILl1ELl1000000EEEEEEEC1ILm3EEERAT__Kc
FNA:154,1,_ZN3fmt3v127fstringIJNSt3__16chrono8durationIxNS2_5ratioILl1ELl1000000EEEEEEEC1ILm6EEERAT__Kc
FNA:154,1,_ZN3fmt3v127fstringIJNSt3__16chrono8durationIxNS2_5ratioILl1ELl1000000EEEEEEEC2ILm3EEERAT__Kc
FNA:154,1,_ZN3fmt3v127fstringIJNSt3__16chrono8durationIxNS2_5ratioILl1ELl1000000EEEEEEEC2ILm6EEERAT__Kc
FNA:154,1,_ZN3fmt3v127fstringIJNSt3__16chrono8durationIxNS2_5ratioILl1ELl1000EEEEEEEC1ILm3EEERAT__Kc
FNA:154,2,_ZN3fmt3v127fstringIJNSt3__16chrono8durationIxNS2_5ratioILl1ELl1000EEEEEEEC1ILm6EEERAT__Kc
FNA:154,9,_ZN3fmt3v127fstringIJNSt3__16chrono8durationIxNS2_5ratioILl1ELl1000EEEEEEEC1ILm8EEERAT__Kc
FNA:154,1,_ZN3fmt3v127fstringIJNSt3__16chrono8durationIxNS2_5ratioILl1ELl1000EEEEEEEC2ILm3EEERAT__Kc
FNA:154,2,_ZN3fmt3v127fstringIJNSt3__16chrono8durationIxNS2_5ratioILl1ELl1000EEEEEEEC2ILm6EEERAT__Kc
FNA:154,9,_ZN3fmt3v127fstringIJNSt3__16chrono8durationIxNS2_5ratioILl1ELl1000EEEEEEEC2ILm8EEERAT__Kc
FNA:154,2,_ZN3fmt3v127fstringIJNSt3__16chrono8durationIxNS2_5ratioILl1ELl1EEEEEEEC1ILm12EEERAT__Kc
FNA:154,1,_ZN3fmt3v127fstringIJNSt3__16chrono8durationIxNS2_5ratioILl1ELl1EEEEEEEC1ILm14EEERAT__Kc
FNA:154,1,_ZN3fmt3v127fstringIJNSt3__16chrono8durationIxNS2_5ratioILl1ELl1EEEEEEEC1ILm15EEERAT__Kc
FNA:154,1,_ZN3fmt3v127fstringIJNSt3__16chrono8durationIxNS2_5ratioILl1ELl1EEEEEEEC1ILm16EEERAT__Kc
FNA:154,2,_ZN3fmt3v127fstringIJNSt3__16chrono8durationIxNS2_5ratioILl1ELl1EEEEEEEC1ILm3EEERAT__Kc
FNA:154,13,_ZN3fmt3v127fstringIJNSt3__16chrono8durationIxNS2_5ratioILl1ELl1EEEEEEEC1ILm6EEERAT__Kc
FNA:154,1,_ZN3fmt3v127fstringIJNSt3__16chrono8durationIxNS2_5ratioILl1ELl1EEEEEEEC1ILm8EEERAT__Kc
FNA:154,2,_ZN3fmt3v127fstringIJNSt3__16chrono8durationIxNS2_5ratioILl1ELl1EEEEEEEC2ILm12EEERAT__Kc
FNA:154,1,_ZN3fmt3v127fstringIJNSt3__16chrono8durationIxNS2_5ratioILl1ELl1EEEEEEEC2ILm14EEERAT__Kc
FNA:154,1,_ZN3fmt3v127fstringIJNSt3__16chrono8durationIxNS2_5ratioILl1ELl1EEEEEEEC2ILm15EEERAT__Kc
FNA:154,1,_ZN3fmt3v127fstringIJNSt3__16chrono8durationIxNS2_5ratioILl1ELl1EEEEEEEC2ILm16EEERAT__Kc
FNA:154,2,_ZN3fmt3v127fstringIJNSt3__16chrono8durationIxNS2_5ratioILl1ELl1EEEEEEEC2ILm3EEERAT__Kc
FNA:154,13,_ZN3fmt3v127fstringIJNSt3__16chrono8durationIxNS2_5ratioILl1ELl1EEEEEEEC2ILm6EEERAT__Kc
FNA:154,1,_ZN3fmt3v127fstringIJNSt3__16chrono8durationIxNS2_5ratioILl1ELl1EEEEEEEC2ILm8EEERAT__Kc
FNA:154,1,_ZN3fmt3v127fstringIJNSt3__16chrono8durationIxNS2_5ratioILl1ELl1EEEEEiEEC1ILm14EEERAT__Kc
FNA:154,1,_ZN3fmt3v127fstringIJNSt3__16chrono8durationIxNS2_5ratioILl1ELl1EEEEEiEEC2ILm14EEERAT__Kc
FNA:154,1,_ZN3fmt3v127fstringIJNSt3__16chrono8durationIxNS2_5ratioILl1ELl3EEEEEEEC1ILm6EEERAT__Kc
FNA:154,1,_ZN3fmt3v127fstringIJNSt3__16chrono8durationIxNS2_5ratioILl1ELl3EEEEEEEC2ILm6EEERAT__Kc
FNA:154,1,_ZN3fmt3v127fstringIJNSt3__16chrono8durationIxNS2_5ratioILl1ELl7EEEEEEEC1ILm6EEERAT__Kc
FNA:154,1,_ZN3fmt3v127fstringIJNSt3__16chrono8durationIxNS2_5ratioILl1ELl7EEEEEEEC2ILm6EEERAT__Kc
FNA:154,11,_ZN3fmt3v127fstringIJNSt3__16vectorINS2_12basic_stringIcNS2_11char_traitsIcEENS2_9allocatorIcEEEENS7_IS9_EEEEEEC1ILm3EEERAT__Kc
FNA:154,11,_ZN3fmt3v127fstringIJNSt3__16vectorINS2_12basic_stringIcNS2_11char_traitsIcEENS2_9allocatorIcEEEENS7_IS9_EEEEEEC2ILm3EEERAT__Kc
FNA:154,1,_ZN3fmt3v127fstringIJNSt3__16vectorINS3_IcNS2_9allocatorIcEEEENS4_IS6_EEEEEEC1ILm3EEERAT__Kc
FNA:154,1,_ZN3fmt3v127fstringIJNSt3__16vectorINS3_IcNS2_9allocatorIcEEEENS4_IS6_EEEEEEC2ILm3EEERAT__Kc
FNA:154,1,_ZN3fmt3v127fstringIJNSt3__16vectorIcNS2_9allocatorIcEEEEEEC1ILm3EEERAT__Kc
FNA:154,1,_ZN3fmt3v127fstringIJNSt3__16vectorIcNS2_9allocatorIcEEEEEEC2ILm3EEERAT__Kc
FNA:154,2,_ZN3fmt3v127fstringIJNSt3__16vectorIiNS2_9allocatorIiEEEEEEC1ILm3EEERAT__Kc
FNA:154,2,_ZN3fmt3v127fstringIJNSt3__16vectorIiNS2_9allocatorIiEEEEEEC2ILm3EEERAT__Kc
FNA:154,3,_ZN3fmt3v127fstringIJNSt3__17complexIdEEEEC1ILm10EEERAT__Kc
FNA:154,6,_ZN3fmt3v127fstringIJNSt3__17complexIdEEEEC1ILm3EEERAT__Kc
FNA:154,7,_ZN3fmt3v127fstringIJNSt3__17complexIdEEEEC1ILm5EEERAT__Kc
FNA:154,1,_ZN3fmt3v127fstringIJNSt3__17complexIdEEEEC1ILm7EEERAT__Kc
FNA:154,3,_ZN3fmt3v127fstringIJNSt3__17complexIdEEEEC2ILm10EEERAT__Kc
FNA:154,6,_ZN3fmt3v127fstringIJNSt3__17complexIdEEEEC2ILm3EEERAT__Kc
FNA:154,7,_ZN3fmt3v127fstringIJNSt3__17complexIdEEEEC2ILm5EEERAT__Kc
FNA:154,1,_ZN3fmt3v127fstringIJNSt3__17complexIdEEEEC2ILm7EEERAT__Kc
FNA:154,1,_ZN3fmt3v127fstringIJNSt3__17complexIdEEiiEEC1ILm11EEERAT__Kc
FNA:154,1,_ZN3fmt3v127fstringIJNSt3__17complexIdEEiiEEC2ILm11EEERAT__Kc
FNA:154,1,_ZN3fmt3v127fstringIJNSt3__17complexIiEEEEC1ILm3EEERAT__Kc
FNA:154,1,_ZN3fmt3v127fstringIJNSt3__17complexIiEEEEC2ILm3EEERAT__Kc
FNA:154,1,_ZN3fmt3v127fstringIJPKcEEC1ILm18EEERAT__S2_
FNA:154,1,_ZN3fmt3v127fstringIJPKcEEC1ILm3EEERAT__S2_
FNA:154,1,_ZN3fmt3v127fstringIJPKcEEC2ILm18EEERAT__S2_
FNA:154,1,_ZN3fmt3v127fstringIJPKcEEC2ILm3EEERAT__S2_
FNA:154,9,_ZN3fmt3v127fstringIJPKvEEC1ILm3EEERAT__Kc
FNA:154,9,_ZN3fmt3v127fstringIJPKvEEC2ILm3EEERAT__Kc
FNA:154,3,_ZN3fmt3v127fstringIJPvEEC1ILm4EEERAT__Kc
FNA:154,2,_ZN3fmt3v127fstringIJPvEEC1ILm6EEERAT__Kc
FNA:154,3,_ZN3fmt3v127fstringIJPvEEC1ILm7EEERAT__Kc
FNA:154,1,_ZN3fmt3v127fstringIJPvEEC1ILm8EEERAT__Kc
FNA:154,3,_ZN3fmt3v127fstringIJPvEEC2ILm4EEERAT__Kc
FNA:154,2,_ZN3fmt3v127fstringIJPvEEC2ILm6EEERAT__Kc
FNA:154,3,_ZN3fmt3v127fstringIJPvEEC2ILm7EEERAT__Kc
FNA:154,1,_ZN3fmt3v127fstringIJPvEEC2ILm8EEERAT__Kc
FNA:154,1,_ZN3fmt3v127fstringIJPviEEC1ILm8EEERAT__Kc
FNA:154,1,_ZN3fmt3v127fstringIJPviEEC2ILm8EEERAT__Kc
FNA:154,1,_ZN3fmt3v127fstringIJR10tuple_likeEEC1ILm3EEERAT__Kc
FNA:154,1,_ZN3fmt3v127fstringIJR10tuple_likeEEC2ILm3EEERAT__Kc
FNA:154,100,_ZN3fmt3v127fstringIJR12deadlockableEEC1ILm3EEERAT__Kc
FNA:154,100,_ZN3fmt3v127fstringIJR12deadlockableEEC2ILm3EEERAT__Kc
FNA:154,1,_ZN3fmt3v127fstringIJR12fmt_ref_viewINSt3__16vectorINS4_IiNS3_9allocatorIiEEEENS5_IS7_EEEEEEEC1ILm3EEERAT__Kc
FNA:154,1,_ZN3fmt3v127fstringIJR12fmt_ref_viewINSt3__16vectorINS4_IiNS3_9allocatorIiEEEENS5_IS7_EEEEEEEC2ILm3EEERAT__Kc
FNA:154,1,_ZN3fmt3v127fstringIJR17noncopyable_rangeIiEEEC1ILm3EEERAT__Kc
FNA:154,1,_ZN3fmt3v127fstringIJR17noncopyable_rangeIiEEEC2ILm3EEERAT__Kc
FNA:154,1,_ZN3fmt3v127fstringIJR20non_const_only_rangeIiEEEC1ILm3EEERAT__Kc
FNA:154,1,_ZN3fmt3v127fstringIJR20non_const_only_rangeIiEEEC2ILm3EEERAT__Kc
FNA:154,1,_ZN3fmt3v127fstringIJR2tmEEC1ILm11EEERAT__Kc
FNA:154,4,_ZN3fmt3v127fstringIJR2tmEEC1ILm12EEERAT__Kc
FNA:154,3,_ZN3fmt3v127fstringIJR2tmEEC1ILm13EEERAT__Kc
FNA:154,2,_ZN3fmt3v127fstringIJR2tmEEC1ILm15EEERAT__Kc
FNA:154,1,_ZN3fmt3v127fstringIJR2tmEEC1ILm21EEERAT__Kc
FNA:154,4,_ZN3fmt3v127fstringIJR2tmEEC1ILm34EEERAT__Kc
FNA:154,1,_ZN3fmt3v127fstringIJR2tmEEC1ILm3EEERAT__Kc
FNA:154,1,_ZN3fmt3v127fstringIJR2tmEEC1ILm4EEERAT__Kc
FNA:154,71,_ZN3fmt3v127fstringIJR2tmEEC1ILm6EEERAT__Kc
FNA:154,30,_ZN3fmt3v127fstringIJR2tmEEC1ILm7EEERAT__Kc
FNA:154,7,_ZN3fmt3v127fstringIJR2tmEEC1ILm8EEERAT__Kc
FNA:154,1,_ZN3fmt3v127fstringIJR2tmEEC1ILm9EEERAT__Kc
FNA:154,1,_ZN3fmt3v127fstringIJR2tmEEC2ILm11EEERAT__Kc
FNA:154,4,_ZN3fmt3v127fstringIJR2tmEEC2ILm12EEERAT__Kc
FNA:154,3,_ZN3fmt3v127fstringIJR2tmEEC2ILm13EEERAT__Kc
FNA:154,2,_ZN3fmt3v127fstringIJR2tmEEC2ILm15EEERAT__Kc
FNA:154,1,_ZN3fmt3v127fstringIJR2tmEEC2ILm21EEERAT__Kc
FNA:154,4,_ZN3fmt3v127fstringIJR2tmEEC2ILm34EEERAT__Kc
FNA:154,1,_ZN3fmt3v127fstringIJR2tmEEC2ILm3EEERAT__Kc
FNA:154,1,_ZN3fmt3v127fstringIJR2tmEEC2ILm4EEERAT__Kc
FNA:154,71,_ZN3fmt3v127fstringIJR2tmEEC2ILm6EEERAT__Kc
FNA:154,30,_ZN3fmt3v127fstringIJR2tmEEC2ILm7EEERAT__Kc
FNA:154,7,_ZN3fmt3v127fstringIJR2tmEEC2ILm8EEERAT__Kc
FNA:154,1,_ZN3fmt3v127fstringIJR2tmEEC2ILm9EEERAT__Kc
FNA:154,1,_ZN3fmt3v127fstringIJR2tmiEEC1ILm11EEERAT__Kc
FNA:154,1,_ZN3fmt3v127fstringIJR2tmiEEC2ILm11EEERAT__Kc
FNA:154,1,_ZN3fmt3v127fstringIJR7zstringEEC1ILm3EEERAT__Kc
FNA:154,1,_ZN3fmt3v127fstringIJR7zstringEEC1ILm5EEERAT__Kc
FNA:154,1,_ZN3fmt3v127fstringIJR7zstringEEC2ILm3EEERAT__Kc
FNA:154,1,_ZN3fmt3v127fstringIJR7zstringEEC2ILm5EEERAT__Kc
FNA:154,1,_ZN3fmt3v127fstringIJRA10_KcEEC1ILm14EEERAT__S2_
FNA:154,1,_ZN3fmt3v127fstringIJRA10_KcEEC2ILm14EEERAT__S2_
FNA:154,1,_ZN3fmt3v127fstringIJRA13_KcEEC1ILm6EEERAT__S2_
FNA:154,2,_ZN3fmt3v127fstringIJRA13_KcEEC1ILm7EEERAT__S2_
FNA:154,1,_ZN3fmt3v127fstringIJRA13_KcEEC2ILm6EEERAT__S2_
FNA:154,2,_ZN3fmt3v127fstringIJRA13_KcEEC2ILm7EEERAT__S2_
FNA:154,1,_ZN3fmt3v127fstringIJRA14_KcEEC1ILm7EEERAT__S2_
FNA:154,1,_ZN3fmt3v127fstringIJRA14_KcEEC2ILm7EEERAT__S2_
FNA:154,1,_ZN3fmt3v127fstringIJRA16_KcEEC1ILm9EEERAT__S2_
FNA:154,1,_ZN3fmt3v127fstringIJRA16_KcEEC2ILm9EEERAT__S2_
FNA:154,1,_ZN3fmt3v127fstringIJRA1_KcEEC1ILm5EEERAT__S2_
FNA:154,1,_ZN3fmt3v127fstringIJRA1_KcEEC2ILm5EEERAT__S2_
FNA:154,5,_ZN3fmt3v127fstringIJRA2_KcEEC1ILm10EEERAT__S2_
FNA:154,5,_ZN3fmt3v127fstringIJRA2_KcEEC2ILm10EEERAT__S2_
FNA:154,1,_ZN3fmt3v127fstringIJRA2_PKcEEC1ILm3EEERAT__S2_
FNA:154,1,_ZN3fmt3v127fstringIJRA2_PKcEEC1ILm5EEERAT__S2_
FNA:154,1,_ZN3fmt3v127fstringIJRA2_PKcEEC1ILm6EEERAT__S2_
FNA:154,1,_ZN3fmt3v127fstringIJRA2_PKcEEC2ILm3EEERAT__S2_
FNA:154,1,_ZN3fmt3v127fstringIJRA2_PKcEEC2ILm5EEERAT__S2_
FNA:154,1,_ZN3fmt3v127fstringIJRA2_PKcEEC2ILm6EEERAT__S2_
FNA:154,1,_ZN3fmt3v127fstringIJRA3_A2_iEEC1ILm3EEERAT__Kc
FNA:154,1,_ZN3fmt3v127fstringIJRA3_A2_iEEC2ILm3EEERAT__Kc
FNA:154,3,_ZN3fmt3v127fstringIJRA3_KcEEC1ILm10EEERAT__S2_
FNA:154,3,_ZN3fmt3v127fstringIJRA3_KcEEC2ILm10EEERAT__S2_
FNA:154,1,_ZN3fmt3v127fstringIJRA3_KciEEC1ILm6EEERAT__S2_
FNA:154,1,_ZN3fmt3v127fstringIJRA3_KciEEC2ILm6EEERAT__S2_
FNA:154,4,_ZN3fmt3v127fstringIJRA4_KcEEC1ILm10EEERAT__S2_
FNA:154,4,_ZN3fmt3v127fstringIJRA4_KcEEC1ILm3EEERAT__S2_
FNA:154,1,_ZN3fmt3v127fstringIJRA4_KcEEC1ILm5EEERAT__S2_
FNA:154,1,_ZN3fmt3v127fstringIJRA4_KcEEC1ILm6EEERAT__S2_
FNA:154,4,_ZN3fmt3v127fstringIJRA4_KcEEC1ILm7EEERAT__S2_
FNA:154,1,_ZN3fmt3v127fstringIJRA4_KcEEC1ILm8EEERAT__S2_
FNA:154,4,_ZN3fmt3v127fstringIJRA4_KcEEC2ILm10EEERAT__S2_
FNA:154,4,_ZN3fmt3v127fstringIJRA4_KcEEC2ILm3EEERAT__S2_
FNA:154,1,_ZN3fmt3v127fstringIJRA4_KcEEC2ILm5EEERAT__S2_
FNA:154,1,_ZN3fmt3v127fstringIJRA4_KcEEC2ILm6EEERAT__S2_
FNA:154,4,_ZN3fmt3v127fstringIJRA4_KcEEC2ILm7EEERAT__S2_
FNA:154,1,_ZN3fmt3v127fstringIJRA4_KcEEC2ILm8EEERAT__S2_
FNA:154,1,_ZN3fmt3v127fstringIJRA4_KcNS0_6detail9named_argIciEEEEC1ILm17EEERAT__S2_
FNA:154,1,_ZN3fmt3v127fstringIJRA4_KcNS0_6detail9named_argIciEEEEC2ILm17EEERAT__S2_
FNA:154,1,_ZN3fmt3v127fstringIJRA4_KciEEC1ILm8EEERAT__S2_
FNA:154,1,_ZN3fmt3v127fstringIJRA4_KciEEC1ILm9EEERAT__S2_
FNA:154,1,_ZN3fmt3v127fstringIJRA4_KciEEC2ILm8EEERAT__S2_
FNA:154,1,_ZN3fmt3v127fstringIJRA4_KciEEC2ILm9EEERAT__S2_
FNA:154,1,_ZN3fmt3v127fstringIJRA5_KcEEC1ILm4EEERAT__S2_
FNA:154,1,_ZN3fmt3v127fstringIJRA5_KcEEC1ILm6EEERAT__S2_
FNA:154,2,_ZN3fmt3v127fstringIJRA5_KcEEC1ILm7EEERAT__S2_
FNA:154,1,_ZN3fmt3v127fstringIJRA5_KcEEC2ILm4EEERAT__S2_
FNA:154,1,_ZN3fmt3v127fstringIJRA5_KcEEC2ILm6EEERAT__S2_
FNA:154,2,_ZN3fmt3v127fstringIJRA5_KcEEC2ILm7EEERAT__S2_
FNA:154,2,_ZN3fmt3v127fstringIJRA5_KcRA4_S2_EEC1ILm10EEERAT__S2_
FNA:154,2,_ZN3fmt3v127fstringIJRA5_KcRA4_S2_EEC2ILm10EEERAT__S2_
FNA:154,6,_ZN3fmt3v127fstringIJRA6_KcEEC1ILm10EEERAT__S2_
FNA:154,1,_ZN3fmt3v127fstringIJRA6_KcEEC1ILm31EEERAT__S2_
FNA:154,2,_ZN3fmt3v127fstringIJRA6_KcEEC1ILm3EEERAT__S2_
FNA:154,1,_ZN3fmt3v127fstringIJRA6_KcEEC1ILm8EEERAT__S2_
FNA:154,6,_ZN3fmt3v127fstringIJRA6_KcEEC2ILm10EEERAT__S2_
FNA:154,1,_ZN3fmt3v127fstringIJRA6_KcEEC2ILm31EEERAT__S2_
FNA:154,2,_ZN3fmt3v127fstringIJRA6_KcEEC2ILm3EEERAT__S2_
FNA:154,1,_ZN3fmt3v127fstringIJRA6_KcEEC2ILm8EEERAT__S2_
FNA:154,1,_ZN3fmt3v127fstringIJRA6_iEEC1ILm3EEERAT__Kc
FNA:154,1,_ZN3fmt3v127fstringIJRA6_iEEC2ILm3EEERAT__Kc
FNA:154,2,_ZN3fmt3v127fstringIJRA7_KcEEC1ILm5EEERAT__S2_
FNA:154,1,_ZN3fmt3v127fstringIJRA7_KcEEC1ILm6EEERAT__S2_
FNA:154,1,_ZN3fmt3v127fstringIJRA7_KcEEC1ILm7EEERAT__S2_
FNA:154,1,_ZN3fmt3v127fstringIJRA7_KcEEC1ILm8EEERAT__S2_
FNA:154,2,_ZN3fmt3v127fstringIJRA7_KcEEC2ILm5EEERAT__S2_
FNA:154,1,_ZN3fmt3v127fstringIJRA7_KcEEC2ILm6EEERAT__S2_
FNA:154,1,_ZN3fmt3v127fstringIJRA7_KcEEC2ILm7EEERAT__S2_
FNA:154,1,_ZN3fmt3v127fstringIJRA7_KcEEC2ILm8EEERAT__S2_
FNA:154,1,_ZN3fmt3v127fstringIJRA7_KciEEC1ILm10EEERAT__S2_
FNA:154,1,_ZN3fmt3v127fstringIJRA7_KciEEC1ILm15EEERAT__S2_
FNA:154,1,_ZN3fmt3v127fstringIJRA7_KciEEC2ILm10EEERAT__S2_
FNA:154,1,_ZN3fmt3v127fstringIJRA7_KciEEC2ILm15EEERAT__S2_
FNA:154,1,_ZN3fmt3v127fstringIJRA8_KcEEC1ILm7EEERAT__S2_
FNA:154,1,_ZN3fmt3v127fstringIJRA8_KcEEC2ILm7EEERAT__S2_
FNA:154,1,_ZN3fmt3v127fstringIJRA9_KcEEC1ILm7EEERAT__S2_
FNA:154,3,_ZN3fmt3v127fstringIJRA9_KcEEC1ILm8EEERAT__S2_
FNA:154,1,_ZN3fmt3v127fstringIJRA9_KcEEC2ILm7EEERAT__S2_
FNA:154,3,_ZN3fmt3v127fstringIJRA9_KcEEC2ILm8EEERAT__S2_
FNA:154,1,_ZN3fmt3v127fstringIJRA9_cEEC1ILm4EEERAT__Kc
FNA:154,1,_ZN3fmt3v127fstringIJRA9_cEEC2ILm4EEERAT__Kc
FNA:154,1,_ZN3fmt3v127fstringIJRDB8_EEC1ILm3EEERAT__Kc
FNA:154,1,_ZN3fmt3v127fstringIJRDB8_EEC2ILm3EEERAT__Kc
FNA:154,1,_ZN3fmt3v127fstringIJRDU32_EEC1ILm3EEERAT__Kc
FNA:154,1,_ZN3fmt3v127fstringIJRDU32_EEC2ILm3EEERAT__Kc
FNA:154,1,_ZN3fmt3v127fstringIJRK13vector_stringEEC1ILm3EEERAT__Kc
FNA:154,1,_ZN3fmt3v127fstringIJRK13vector_stringEEC2ILm3EEERAT__Kc
FNA:154,1,_ZN3fmt3v127fstringIJRK15incomplete_typeEEC1ILm3EEERAT__Kc
FNA:154,1,_ZN3fmt3v127fstringIJRK15incomplete_typeEEC2ILm3EEERAT__Kc
FNA:154,1,_ZN3fmt3v127fstringIJRK19vector_debug_stringEEC1ILm3EEERAT__Kc
FNA:154,1,_ZN3fmt3v127fstringIJRK19vector_debug_stringEEC2ILm3EEERAT__Kc
FNA:154,1,_ZN3fmt3v127fstringIJRK2tmEEC1ILm15EEERAT__Kc
FNA:154,3,_ZN3fmt3v127fstringIJRK2tmEEC1ILm19EEERAT__Kc
FNA:154,2,_ZN3fmt3v127fstringIJRK2tmEEC1ILm23EEERAT__Kc
FNA:154,1,_ZN3fmt3v127fstringIJRK2tmEEC2ILm15EEERAT__Kc
FNA:154,3,_ZN3fmt3v127fstringIJRK2tmEEC2ILm19EEERAT__Kc
FNA:154,2,_ZN3fmt3v127fstringIJRK2tmEEC2ILm23EEERAT__Kc
FNA:154,1,_ZN3fmt3v127fstringIJRK34convertible_to_pointer_formattableEEC1ILm3EEERAT__Kc
FNA:154,1,_ZN3fmt3v127fstringIJRK34convertible_to_pointer_formattableEEC2ILm3EEERAT__Kc
FNA:154,1,_ZN3fmt3v127fstringIJRKDB7_EEC1ILm3EEERAT__Kc
FNA:154,1,_ZN3fmt3v127fstringIJRKDB7_EEC2ILm3EEERAT__Kc
FNA:154,1,_ZN3fmt3v127fstringIJRKDU32_EEC1ILm3EEERAT__Kc
FNA:154,1,_ZN3fmt3v127fstringIJRKDU32_EEC2ILm3EEERAT__Kc
FNA:154,20433,_ZN3fmt3v127fstringIJRKNSt3__112basic_stringIcNS2_11char_traitsIcEENS2_9allocatorIcEEEEEEC1ILm8EEERAT__Kc
FNA:154,20433,_ZN3fmt3v127fstringIJRKNSt3__112basic_stringIcNS2_11char_traitsIcEENS2_9allocatorIcEEEEEEC2ILm8EEERAT__Kc
FNA:154,1,_ZN3fmt3v127fstringIJRKNSt3__112system_errorEEEC1ILm5EEERAT__Kc
FNA:154,1,_ZN3fmt3v127fstringIJRKNSt3__112system_errorEEEC2ILm5EEERAT__Kc
FNA:154,1,_ZN3fmt3v127fstringIJRKNSt3__15stackIiNS2_5dequeIiNS2_9allocatorIiEEEEEEEEC1ILm3EEERAT__Kc
FNA:154,1,_ZN3fmt3v127fstringIJRKNSt3__15stackIiNS2_5dequeIiNS2_9allocatorIiEEEEEEEEC2ILm3EEERAT__Kc
FNA:154,1,_ZN3fmt3v127fstringIJRKNSt3__16atomicIbEEEEC1ILm3EEERAT__Kc
FNA:154,1,_ZN3fmt3v127fstringIJRKNSt3__16atomicIbEEEEC2ILm3EEERAT__Kc
FNA:154,1,_ZN3fmt3v127fstringIJRKNSt3__16chrono8durationIxNS2_5ratioILl1ELl1000EEEEEEEC1ILm6EEERAT__Kc
FNA:154,2,_ZN3fmt3v127fstringIJRKNSt3__16chrono8durationIxNS2_5ratioILl1ELl1000EEEEEEEC1ILm7EEERAT__Kc
FNA:154,1,_ZN3fmt3v127fstringIJRKNSt3__16chrono8durationIxNS2_5ratioILl1ELl1000EEEEEEEC2ILm6EEERAT__Kc
FNA:154,2,_ZN3fmt3v127fstringIJRKNSt3__16chrono8durationIxNS2_5ratioILl1ELl1000EEEEEEEC2ILm7EEERAT__Kc
FNA:154,1,_ZN3fmt3v127fstringIJRKNSt3__16chrono8durationIxNS2_5ratioILl1ELl1EEEEEEEC1ILm15EEERAT__Kc
FNA:154,1,_ZN3fmt3v127fstringIJRKNSt3__16chrono8durationIxNS2_5ratioILl1ELl1EEEEEEEC1ILm16EEERAT__Kc
FNA:154,3,_ZN3fmt3v127fstringIJRKNSt3__16chrono8durationIxNS2_5ratioILl1ELl1EEEEEEEC1ILm19EEERAT__Kc
FNA:154,2,_ZN3fmt3v127fstringIJRKNSt3__16chrono8durationIxNS2_5ratioILl1ELl1EEEEEEEC1ILm23EEERAT__Kc
FNA:154,1,_ZN3fmt3v127fstringIJRKNSt3__16chrono8durationIxNS2_5ratioILl1ELl1EEEEEEEC2ILm15EEERAT__Kc
FNA:154,1,_ZN3fmt3v127fstringIJRKNSt3__16chrono8durationIxNS2_5ratioILl1ELl1EEEEEEEC2ILm16EEERAT__Kc
FNA:154,3,_ZN3fmt3v127fstringIJRKNSt3__16chrono8durationIxNS2_5ratioILl1ELl1EEEEEEEC2ILm19EEERAT__Kc
FNA:154,2,_ZN3fmt3v127fstringIJRKNSt3__16chrono8durationIxNS2_5ratioILl1ELl1EEEEEEEC2ILm23EEERAT__Kc
FNA:154,1,_ZN3fmt3v127fstringIJRKNSt3__16vectorIiNS2_9allocatorIiEEEEEEC1ILm3EEERAT__Kc
FNA:154,1,_ZN3fmt3v127fstringIJRKNSt3__16vectorIiNS2_9allocatorIiEEEEEEC2ILm3EEERAT__Kc
FNA:154,1,_ZN3fmt3v127fstringIJRKSt13runtime_errorEEC1ILm3EEERAT__Kc
FNA:154,1,_ZN3fmt3v127fstringIJRKSt13runtime_errorEEC1ILm5EEERAT__Kc
FNA:154,1,_ZN3fmt3v127fstringIJRKSt13runtime_errorEEC2ILm3EEERAT__Kc
FNA:154,1,_ZN3fmt3v127fstringIJRKSt13runtime_errorEEC2ILm5EEERAT__Kc
FNA:154,1,_ZN3fmt3v127fstringIJRKSt9exceptionEEC1ILm3EEERAT__Kc
FNA:154,1,_ZN3fmt3v127fstringIJRKSt9exceptionEEC1ILm4EEERAT__Kc
FNA:154,2,_ZN3fmt3v127fstringIJRKSt9exceptionEEC1ILm5EEERAT__Kc
FNA:154,1,_ZN3fmt3v127fstringIJRKSt9exceptionEEC2ILm3EEERAT__Kc
FNA:154,1,_ZN3fmt3v127fstringIJRKSt9exceptionEEC2ILm4EEERAT__Kc
FNA:154,2,_ZN3fmt3v127fstringIJRKSt9exceptionEEC2ILm5EEERAT__Kc
FNA:154,1,_ZN3fmt3v127fstringIJRKSt9type_infoEEC1ILm3EEERAT__Kc
FNA:154,1,_ZN3fmt3v127fstringIJRKSt9type_infoEEC2ILm3EEERAT__Kc
FNA:154,8,_ZN3fmt3v127fstringIJRKcEEC1ILm4EEERAT__S2_
FNA:154,6,_ZN3fmt3v127fstringIJRKcEEC1ILm8EEERAT__S2_
FNA:154,8,_ZN3fmt3v127fstringIJRKcEEC2ILm4EEERAT__S2_
FNA:154,6,_ZN3fmt3v127fstringIJRKcEEC2ILm8EEERAT__S2_
FNA:154,100,_ZN3fmt3v127fstringIJRKiEEC1ILm3EEERAT__Kc
FNA:154,6,_ZN3fmt3v127fstringIJRKiEEC1ILm8EEERAT__Kc
FNA:154,100,_ZN3fmt3v127fstringIJRKiEEC2ILm3EEERAT__Kc
FNA:154,6,_ZN3fmt3v127fstringIJRKiEEC2ILm8EEERAT__Kc
FNA:154,2,_ZN3fmt3v127fstringIJRKjEEC1ILm5EEERAT__Kc
FNA:154,2,_ZN3fmt3v127fstringIJRKjEEC1ILm6EEERAT__Kc
FNA:154,1,_ZN3fmt3v127fstringIJRKjEEC1ILm7EEERAT__Kc
FNA:154,1,_ZN3fmt3v127fstringIJRKjEEC1ILm8EEERAT__Kc
FNA:154,3,_ZN3fmt3v127fstringIJRKjEEC1ILm9EEERAT__Kc
FNA:154,2,_ZN3fmt3v127fstringIJRKjEEC2ILm5EEERAT__Kc
FNA:154,2,_ZN3fmt3v127fstringIJRKjEEC2ILm6EEERAT__Kc
FNA:154,1,_ZN3fmt3v127fstringIJRKjEEC2ILm7EEERAT__Kc
FNA:154,1,_ZN3fmt3v127fstringIJRKjEEC2ILm8EEERAT__Kc
FNA:154,3,_ZN3fmt3v127fstringIJRKjEEC2ILm9EEERAT__Kc
FNA:154,2,_ZN3fmt3v127fstringIJRKnEEC1ILm4EEERAT__Kc
FNA:154,4,_ZN3fmt3v127fstringIJRKnEEC1ILm6EEERAT__Kc
FNA:154,2,_ZN3fmt3v127fstringIJRKnEEC2ILm4EEERAT__Kc
FNA:154,4,_ZN3fmt3v127fstringIJRKnEEC2ILm6EEERAT__Kc
FNA:154,1,_ZN3fmt3v127fstringIJRKoEEC1ILm4EEERAT__Kc
FNA:154,2,_ZN3fmt3v127fstringIJRKoEEC1ILm6EEERAT__Kc
FNA:154,1,_ZN3fmt3v127fstringIJRKoEEC2ILm4EEERAT__Kc
FNA:154,2,_ZN3fmt3v127fstringIJRKoEEC2ILm6EEERAT__Kc
FNA:154,1,_ZN3fmt3v127fstringIJRN3adl3boxEEEC1ILm3EEERAT__Kc
FNA:154,1,_ZN3fmt3v127fstringIJRN3adl3boxEEEC2ILm3EEERAT__Kc
FNA:154,3,_ZN3fmt3v127fstringIJRNS0_14year_month_dayEEEC1ILm12EEERAT__Kc
FNA:154,1,_ZN3fmt3v127fstringIJRNS0_14year_month_dayEEEC1ILm3EEERAT__Kc
FNA:154,3,_ZN3fmt3v127fstringIJRNS0_14year_month_dayEEEC2ILm12EEERAT__Kc
FNA:154,1,_ZN3fmt3v127fstringIJRNS0_14year_month_dayEEEC2ILm3EEERAT__Kc
FNA:154,1,_ZN3fmt3v127fstringIJRNS0_3dayEEEC1ILm3EEERAT__Kc
FNA:154,1,_ZN3fmt3v127fstringIJRNS0_3dayEEEC1ILm6EEERAT__Kc
FNA:154,1,_ZN3fmt3v127fstringIJRNS0_3dayEEEC2ILm3EEERAT__Kc
FNA:154,1,_ZN3fmt3v127fstringIJRNS0_3dayEEEC2ILm6EEERAT__Kc
FNA:154,1,_ZN3fmt3v127fstringIJRNS0_4yearEEEC1ILm3EEERAT__Kc
FNA:154,2,_ZN3fmt3v127fstringIJRNS0_4yearEEEC1ILm6EEERAT__Kc
FNA:154,1,_ZN3fmt3v127fstringIJRNS0_4yearEEEC2ILm3EEERAT__Kc
FNA:154,2,_ZN3fmt3v127fstringIJRNS0_4yearEEEC2ILm6EEERAT__Kc
FNA:154,1,_ZN3fmt3v127fstringIJRNS0_5monthEEEC1ILm3EEERAT__Kc
FNA:154,1,_ZN3fmt3v127fstringIJRNS0_5monthEEEC1ILm5EEERAT__Kc
FNA:154,3,_ZN3fmt3v127fstringIJRNS0_5monthEEEC1ILm6EEERAT__Kc
FNA:154,1,_ZN3fmt3v127fstringIJRNS0_5monthEEEC1ILm7EEERAT__Kc
FNA:154,1,_ZN3fmt3v127fstringIJRNS0_5monthEEEC2ILm3EEERAT__Kc
FNA:154,1,_ZN3fmt3v127fstringIJRNS0_5monthEEEC2ILm5EEERAT__Kc
FNA:154,3,_ZN3fmt3v127fstringIJRNS0_5monthEEEC2ILm6EEERAT__Kc
FNA:154,1,_ZN3fmt3v127fstringIJRNS0_5monthEEEC2ILm7EEERAT__Kc
FNA:154,1,_ZN3fmt3v127fstringIJRNS0_7weekdayEEEC1ILm3EEERAT__Kc
FNA:154,1,_ZN3fmt3v127fstringIJRNS0_7weekdayEEEC1ILm5EEERAT__Kc
FNA:154,2,_ZN3fmt3v127fstringIJRNS0_7weekdayEEEC1ILm6EEERAT__Kc
FNA:154,1,_ZN3fmt3v127fstringIJRNS0_7weekdayEEEC1ILm7EEERAT__Kc
FNA:154,1,_ZN3fmt3v127fstringIJRNS0_7weekdayEEEC2ILm3EEERAT__Kc
FNA:154,1,_ZN3fmt3v127fstringIJRNS0_7weekdayEEEC2ILm5EEERAT__Kc
FNA:154,2,_ZN3fmt3v127fstringIJRNS0_7weekdayEEEC2ILm6EEERAT__Kc
FNA:154,1,_ZN3fmt3v127fstringIJRNS0_7weekdayEEEC2ILm7EEERAT__Kc
FNA:154,1,_ZN3fmt3v127fstringIJRNSt3__110error_codeEEEC1ILm5EEERAT__Kc
FNA:154,1,_ZN3fmt3v127fstringIJRNSt3__110error_codeEEEC2ILm5EEERAT__Kc
FNA:154,20003,_ZN3fmt3v127fstringIJRNSt3__112basic_stringIcNS2_11char_traitsIcEENS2_9allocatorIcEEEEEEC1ILm3EEERAT__Kc
FNA:154,20003,_ZN3fmt3v127fstringIJRNSt3__112basic_stringIcNS2_11char_traitsIcEENS2_9allocatorIcEEEEEEC2ILm3EEERAT__Kc
FNA:154,1,_ZN3fmt3v127fstringIJRNSt3__114priority_queueIiNS2_6vectorIiNS2_9allocatorIiEEEENS2_4lessIiEEEEEEC1ILm3EEERAT__Kc
FNA:154,1,_ZN3fmt3v127fstringIJRNSt3__114priority_queueIiNS2_6vectorIiNS2_9allocatorIiEEEENS2_4lessIiEEEEEEC2ILm3EEERAT__Kc
FNA:154,1,_ZN3fmt3v127fstringIJRNSt3__13mapINS2_12basic_stringIcNS2_11char_traitsIcEENS2_9allocatorIcEEEEiNS2_4lessIS9_EENS7_INS2_4pairIKS9_iEEEEEEEEC1ILm3EEERAT__Kc
FNA:154,1,_ZN3fmt3v127fstringIJRNSt3__13mapINS2_12basic_stringIcNS2_11char_traitsIcEENS2_9allocatorIcEEEEiNS2_4lessIS9_EENS7_INS2_4pairIKS9_iEEEEEEEEC1ILm5EEERAT__Kc
FNA:154,1,_ZN3fmt3v127fstringIJRNSt3__13mapINS2_12basic_stringIcNS2_11char_traitsIcEENS2_9allocatorIcEEEEiNS2_4lessIS9_EENS7_INS2_4pairIKS9_iEEEEEEEEC2ILm3EEERAT__Kc
FNA:154,1,_ZN3fmt3v127fstringIJRNSt3__13mapINS2_12basic_stringIcNS2_11char_traitsIcEENS2_9allocatorIcEEEEiNS2_4lessIS9_EENS7_INS2_4pairIKS9_iEEEEEEEEC2ILm5EEERAT__Kc
FNA:154,1,_ZN3fmt3v127fstringIJRNSt3__14pairIifEEEEC1ILm3EEERAT__Kc
FNA:154,1,_ZN3fmt3v127fstringIJRNSt3__14pairIifEEEEC1ILm4EEERAT__Kc
FNA:154,1,_ZN3fmt3v127fstringIJRNSt3__14pairIifEEEEC1ILm5EEERAT__Kc
FNA:154,1,_ZN3fmt3v127fstringIJRNSt3__14pairIifEEEEC2ILm3EEERAT__Kc
FNA:154,1,_ZN3fmt3v127fstringIJRNSt3__14pairIifEEEEC2ILm4EEERAT__Kc
FNA:154,1,_ZN3fmt3v127fstringIJRNSt3__14pairIifEEEEC2ILm5EEERAT__Kc
FNA:154,1,_ZN3fmt3v127fstringIJRNSt3__15queueIiNS2_5dequeIiNS2_9allocatorIiEEEEEEEEC1ILm3EEERAT__Kc
FNA:154,1,_ZN3fmt3v127fstringIJRNSt3__15queueIiNS2_5dequeIiNS2_9allocatorIiEEEEEEEEC2ILm3EEERAT__Kc
FNA:154,1,_ZN3fmt3v127fstringIJRNSt3__15stackIcNS2_12basic_stringIcNS2_11char_traitsIcEENS2_9allocatorIcEEEEEEEEC1ILm3EEERAT__Kc
FNA:154,1,_ZN3fmt3v127fstringIJRNSt3__15stackIcNS2_12basic_stringIcNS2_11char_traitsIcEENS2_9allocatorIcEEEEEEEEC2ILm3EEERAT__Kc
FNA:154,1,_ZN3fmt3v127fstringIJRNSt3__15stackIiNS2_5dequeIiNS2_9allocatorIiEEEEEEEEC1ILm3EEERAT__Kc
FNA:154,1,_ZN3fmt3v127fstringIJRNSt3__15stackIiNS2_5dequeIiNS2_9allocatorIiEEEEEEEEC2ILm3EEERAT__Kc
FNA:154,1,_ZN3fmt3v127fstringIJRNSt3__15tupleIJifNS2_12basic_stringIcNS2_11char_traitsIcEENS2_9allocatorIcEEEEcEEEEEC1ILm3EEERAT__Kc
FNA:154,1,_ZN3fmt3v127fstringIJRNSt3__15tupleIJifNS2_12basic_stringIcNS2_11char_traitsIcEENS2_9allocatorIcEEEEcEEEEEC1ILm5EEERAT__Kc
FNA:154,1,_ZN3fmt3v127fstringIJRNSt3__15tupleIJifNS2_12basic_stringIcNS2_11char_traitsIcEENS2_9allocatorIcEEEEcEEEEEC2ILm3EEERAT__Kc
FNA:154,1,_ZN3fmt3v127fstringIJRNSt3__15tupleIJifNS2_12basic_stringIcNS2_11char_traitsIcEENS2_9allocatorIcEEEEcEEEEEC2ILm5EEERAT__Kc
FNA:154,1,_ZN3fmt3v127fstringIJRNSt3__16atomicIbEEEEC1ILm3EEERAT__Kc
FNA:154,1,_ZN3fmt3v127fstringIJRNSt3__16atomicIbEEEEC2ILm3EEERAT__Kc
FNA:154,1,_ZN3fmt3v127fstringIJRNSt3__16bitsetILm6EEEEEC1ILm3EEERAT__Kc
FNA:154,1,_ZN3fmt3v127fstringIJRNSt3__16bitsetILm6EEEEEC1ILm7EEERAT__Kc
FNA:154,1,_ZN3fmt3v127fstringIJRNSt3__16bitsetILm6EEEEEC1ILm8EEERAT__Kc
FNA:154,1,_ZN3fmt3v127fstringIJRNSt3__16bitsetILm6EEEEEC2ILm3EEERAT__Kc
FNA:154,1,_ZN3fmt3v127fstringIJRNSt3__16bitsetILm6EEEEEC2ILm7EEERAT__Kc
FNA:154,1,_ZN3fmt3v127fstringIJRNSt3__16bitsetILm6EEEEEC2ILm8EEERAT__Kc
FNA:154,1,_ZN3fmt3v127fstringIJRNSt3__16chrono10time_pointINS0_6detail7local_tENS3_8durationIxNS2_5ratioILl1ELl1EEEEEEEEEC1ILm21EEERAT__Kc
FNA:154,2,_ZN3fmt3v127fstringIJRNSt3__16chrono10time_pointINS0_6detail7local_tENS3_8durationIxNS2_5ratioILl1ELl1EEEEEEEEEC1ILm3EEERAT__Kc
FNA:154,1,_ZN3fmt3v127fstringIJRNSt3__16chrono10time_pointINS0_6detail7local_tENS3_8durationIxNS2_5ratioILl1ELl1EEEEEEEEEC1ILm4EEERAT__Kc
FNA:154,35,_ZN3fmt3v127fstringIJRNSt3__16chrono10time_pointINS0_6detail7local_tENS3_8durationIxNS2_5ratioILl1ELl1EEEEEEEEEC1ILm6EEERAT__Kc
FNA:154,19,_ZN3fmt3v127fstringIJRNSt3__16chrono10time_pointINS0_6detail7local_tENS3_8durationIxNS2_5ratioILl1ELl1EEEEEEEEEC1ILm7EEERAT__Kc
FNA:154,1,_ZN3fmt3v127fstringIJRNSt3__16chrono10time_pointINS0_6detail7local_tENS3_8durationIxNS2_5ratioILl1ELl1EEEEEEEEEC2ILm21EEERAT__Kc
FNA:154,2,_ZN3fmt3v127fstringIJRNSt3__16chrono10time_pointINS0_6detail7local_tENS3_8durationIxNS2_5ratioILl1ELl1EEEEEEEEEC2ILm3EEERAT__Kc
FNA:154,1,_ZN3fmt3v127fstringIJRNSt3__16chrono10time_pointINS0_6detail7local_tENS3_8durationIxNS2_5ratioILl1ELl1EEEEEEEEEC2ILm4EEERAT__Kc
FNA:154,35,_ZN3fmt3v127fstringIJRNSt3__16chrono10time_pointINS0_6detail7local_tENS3_8durationIxNS2_5ratioILl1ELl1EEEEEEEEEC2ILm6EEERAT__Kc
FNA:154,19,_ZN3fmt3v127fstringIJRNSt3__16chrono10time_pointINS0_6detail7local_tENS3_8durationIxNS2_5ratioILl1ELl1EEEEEEEEEC2ILm7EEERAT__Kc
FNA:154,2,_ZN3fmt3v127fstringIJRNSt3__16chrono10time_pointINS3_12system_clockENS3_8durationIdNS2_5ratioILl1ELl1EEEEEEEEEC1ILm6EEERAT__Kc
FNA:154,2,_ZN3fmt3v127fstringIJRNSt3__16chrono10time_pointINS3_12system_clockENS3_8durationIdNS2_5ratioILl1ELl1EEEEEEEEEC2ILm6EEERAT__Kc
FNA:154,1,_ZN3fmt3v127fstringIJRNSt3__16chrono10time_pointINS3_12system_clockENS3_8durationIdNS2_5ratioILl1ELl3EEEEEEEEEC1ILm6EEERAT__Kc
FNA:154,1,_ZN3fmt3v127fstringIJRNSt3__16chrono10time_pointINS3_12system_clockENS3_8durationIdNS2_5ratioILl1ELl3EEEEEEEEEC2ILm6EEERAT__Kc
FNA:154,1,_ZN3fmt3v127fstringIJRNSt3__16chrono10time_pointINS3_12system_clockENS3_8durationIiNS2_5ratioILl63ELl1EEEEEEEEEC1ILm9EEERAT__Kc
FNA:154,1,_ZN3fmt3v127fstringIJRNSt3__16chrono10time_pointINS3_12system_clockENS3_8durationIiNS2_5ratioILl63ELl1EEEEEEEEEC2ILm9EEERAT__Kc
FNA:154,1,_ZN3fmt3v127fstringIJRNSt3__16chrono10time_pointINS3_12system_clockENS3_8durationIiNS2_5ratioILl9ELl1EEEEEEEEEC1ILm9EEERAT__Kc
FNA:154,1,_ZN3fmt3v127fstringIJRNSt3__16chrono10time_pointINS3_12system_clockENS3_8durationIiNS2_5ratioILl9ELl1EEEEEEEEEC2ILm9EEERAT__Kc
FNA:154,1,_ZN3fmt3v127fstringIJRNSt3__16chrono10time_pointINS3_12system_clockENS3_8durationIlNS2_5ratioILl60ELl1EEEEEEEEEC1ILm9EEERAT__Kc
FNA:154,1,_ZN3fmt3v127fstringIJRNSt3__16chrono10time_pointINS3_12system_clockENS3_8durationIlNS2_5ratioILl60ELl1EEEEEEEEEC2ILm9EEERAT__Kc
FNA:154,2,_ZN3fmt3v127fstringIJRNSt3__16chrono10time_pointINS3_12system_clockENS3_8durationIxNS2_5ratioILl1ELl1000000000EEEEEEEEEC1ILm6EEERAT__Kc
FNA:154,2,_ZN3fmt3v127fstringIJRNSt3__16chrono10time_pointINS3_12system_clockENS3_8durationIxNS2_5ratioILl1ELl1000000000EEEEEEEEEC2ILm6EEERAT__Kc
FNA:154,1,_ZN3fmt3v127fstringIJRNSt3__16chrono10time_pointINS3_12system_clockENS3_8durationIxNS2_5ratioILl1ELl1000000EEEEEEEEEC1ILm11EEERAT__Kc
FNA:154,3,_ZN3fmt3v127fstringIJRNSt3__16chrono10time_pointINS3_12system_clockENS3_8durationIxNS2_5ratioILl1ELl1000000EEEEEEEEEC1ILm12EEERAT__Kc
FNA:154,3,_ZN3fmt3v127fstringIJRNSt3__16chrono10time_pointINS3_12system_clockENS3_8durationIxNS2_5ratioILl1ELl1000000EEEEEEEEEC1ILm13EEERAT__Kc
FNA:154,1,_ZN3fmt3v127fstringIJRNSt3__16chrono10time_pointINS3_12system_clockENS3_8durationIxNS2_5ratioILl1ELl1000000EEEEEEEEEC1ILm6EEERAT__Kc
FNA:154,1,_ZN3fmt3v127fstringIJRNSt3__16chrono10time_pointINS3_12system_clockENS3_8durationIxNS2_5ratioILl1ELl1000000EEEEEEEEEC1ILm9EEERAT__Kc
FNA:154,1,_ZN3fmt3v127fstringIJRNSt3__16chrono10time_pointINS3_12system_clockENS3_8durationIxNS2_5ratioILl1ELl1000000EEEEEEEEEC2ILm11EEERAT__Kc
FNA:154,3,_ZN3fmt3v127fstringIJRNSt3__16chrono10time_pointINS3_12system_clockENS3_8durationIxNS2_5ratioILl1ELl1000000EEEEEEEEEC2ILm12EEERAT__Kc
FNA:154,3,_ZN3fmt3v127fstringIJRNSt3__16chrono10time_pointINS3_12system_clockENS3_8durationIxNS2_5ratioILl1ELl1000000EEEEEEEEEC2ILm13EEERAT__Kc
FNA:154,1,_ZN3fmt3v127fstringIJRNSt3__16chrono10time_pointINS3_12system_clockENS3_8durationIxNS2_5ratioILl1ELl1000000EEEEEEEEEC2ILm6EEERAT__Kc
FNA:154,1,_ZN3fmt3v127fstringIJRNSt3__16chrono10time_pointINS3_12system_clockENS3_8durationIxNS2_5ratioILl1ELl1000000EEEEEEEEEC2ILm9EEERAT__Kc
FNA:154,1,_ZN3fmt3v127fstringIJRNSt3__16chrono10time_pointINS3_12system_clockENS3_8durationIxNS2_5ratioILl1ELl1000000EEEEEEEiEEC1ILm11EEERAT__Kc
FNA:154,1,_ZN3fmt3v127fstringIJRNSt3__16chrono10time_pointINS3_12system_clockENS3_8durationIxNS2_5ratioILl1ELl1000000EEEEEEEiEEC2ILm11EEERAT__Kc
FNA:154,1,_ZN3fmt3v127fstringIJRNSt3__16chrono10time_pointINS3_12system_clockENS3_8durationIxNS2_5ratioILl1ELl1000EEEEEEEEEC1ILm12EEERAT__Kc
FNA:154,3,_ZN3fmt3v127fstringIJRNSt3__16chrono10time_pointINS3_12system_clockENS3_8durationIxNS2_5ratioILl1ELl1000EEEEEEEEEC1ILm6EEERAT__Kc
FNA:154,1,_ZN3fmt3v127fstringIJRNSt3__16chrono10time_pointINS3_12system_clockENS3_8durationIxNS2_5ratioILl1ELl1000EEEEEEEEEC1ILm9EEERAT__Kc
FNA:154,1,_ZN3fmt3v127fstringIJRNSt3__16chrono10time_pointINS3_12system_clockENS3_8durationIxNS2_5ratioILl1ELl1000EEEEEEEEEC2ILm12EEERAT__Kc
FNA:154,3,_ZN3fmt3v127fstringIJRNSt3__16chrono10time_pointINS3_12system_clockENS3_8durationIxNS2_5ratioILl1ELl1000EEEEEEEEEC2ILm6EEERAT__Kc
FNA:154,1,_ZN3fmt3v127fstringIJRNSt3__16chrono10time_pointINS3_12system_clockENS3_8durationIxNS2_5ratioILl1ELl1000EEEEEEEEEC2ILm9EEERAT__Kc
FNA:154,2,_ZN3fmt3v127fstringIJRNSt3__16chrono10time_pointINS3_12system_clockENS3_8durationIxNS2_5ratioILl1ELl1EEEEEEEEEC1ILm21EEERAT__Kc
FNA:154,1,_ZN3fmt3v127fstringIJRNSt3__16chrono10time_pointINS3_12system_clockENS3_8durationIxNS2_5ratioILl1ELl1EEEEEEEEEC1ILm3EEERAT__Kc
FNA:154,1,_ZN3fmt3v127fstringIJRNSt3__16chrono10time_pointINS3_12system_clockENS3_8durationIxNS2_5ratioILl1ELl1EEEEEEEEEC1ILm4EEERAT__Kc
FNA:154,38,_ZN3fmt3v127fstringIJRNSt3__16chrono10time_pointINS3_12system_clockENS3_8durationIxNS2_5ratioILl1ELl1EEEEEEEEEC1ILm6EEERAT__Kc
FNA:154,21,_ZN3fmt3v127fstringIJRNSt3__16chrono10time_pointINS3_12system_clockENS3_8durationIxNS2_5ratioILl1ELl1EEEEEEEEEC1ILm7EEERAT__Kc
FNA:154,2,_ZN3fmt3v127fstringIJRNSt3__16chrono10time_pointINS3_12system_clockENS3_8durationIxNS2_5ratioILl1ELl1EEEEEEEEEC2ILm21EEERAT__Kc
FNA:154,1,_ZN3fmt3v127fstringIJRNSt3__16chrono10time_pointINS3_12system_clockENS3_8durationIxNS2_5ratioILl1ELl1EEEEEEEEEC2ILm3EEERAT__Kc
FNA:154,1,_ZN3fmt3v127fstringIJRNSt3__16chrono10time_pointINS3_12system_clockENS3_8durationIxNS2_5ratioILl1ELl1EEEEEEEEEC2ILm4EEERAT__Kc
FNA:154,38,_ZN3fmt3v127fstringIJRNSt3__16chrono10time_pointINS3_12system_clockENS3_8durationIxNS2_5ratioILl1ELl1EEEEEEEEEC2ILm6EEERAT__Kc
FNA:154,21,_ZN3fmt3v127fstringIJRNSt3__16chrono10time_pointINS3_12system_clockENS3_8durationIxNS2_5ratioILl1ELl1EEEEEEEEEC2ILm7EEERAT__Kc
FNA:154,1,_ZN3fmt3v127fstringIJRNSt3__16chrono10time_pointINS3_12system_clockENS3_8durationIxNS2_5ratioILl1ELl3EEEEEEEEEC1ILm6EEERAT__Kc
FNA:154,1,_ZN3fmt3v127fstringIJRNSt3__16chrono10time_pointINS3_12system_clockENS3_8durationIxNS2_5ratioILl1ELl3EEEEEEEEEC2ILm6EEERAT__Kc
FNA:154,1,_ZN3fmt3v127fstringIJRNSt3__16chrono10time_pointINS3_12system_clockENS3_8durationIxNS2_5ratioILl31556952ELl1EEEEEEEEEC1ILm12EEERAT__Kc
FNA:154,1,_ZN3fmt3v127fstringIJRNSt3__16chrono10time_pointINS3_12system_clockENS3_8durationIxNS2_5ratioILl31556952ELl1EEEEEEEEEC2ILm12EEERAT__Kc
FNA:154,1,_ZN3fmt3v127fstringIJRNSt3__16chrono8durationIdNS2_5ratioILl1ELl1000000000EEEEEEEC1ILm12EEERAT__Kc
FNA:154,1,_ZN3fmt3v127fstringIJRNSt3__16chrono8durationIdNS2_5ratioILl1ELl1000000000EEEEEEEC1ILm14EEERAT__Kc
FNA:154,1,_ZN3fmt3v127fstringIJRNSt3__16chrono8durationIdNS2_5ratioILl1ELl1000000000EEEEEEEC1ILm6EEERAT__Kc
FNA:154,1,_ZN3fmt3v127fstringIJRNSt3__16chrono8durationIdNS2_5ratioILl1ELl1000000000EEEEEEEC2ILm12EEERAT__Kc
FNA:154,1,_ZN3fmt3v127fstringIJRNSt3__16chrono8durationIdNS2_5ratioILl1ELl1000000000EEEEEEEC2ILm14EEERAT__Kc
FNA:154,1,_ZN3fmt3v127fstringIJRNSt3__16chrono8durationIdNS2_5ratioILl1ELl1000000000EEEEEEEC2ILm6EEERAT__Kc
FNA:154,1,_ZN3fmt3v127fstringIJRNSt3__16chrono8durationIdNS2_5ratioILl1ELl1EEEEEEEC1ILm6EEERAT__Kc
FNA:154,2,_ZN3fmt3v127fstringIJRNSt3__16chrono8durationIdNS2_5ratioILl1ELl1EEEEEEEC1ILm7EEERAT__Kc
FNA:154,1,_ZN3fmt3v127fstringIJRNSt3__16chrono8durationIdNS2_5ratioILl1ELl1EEEEEEEC2ILm6EEERAT__Kc
FNA:154,2,_ZN3fmt3v127fstringIJRNSt3__16chrono8durationIdNS2_5ratioILl1ELl1EEEEEEEC2ILm7EEERAT__Kc
FNA:154,1,_ZN3fmt3v127fstringIJRNSt3__16chrono8durationImNS2_5ratioILl1000000000ELl1EEEEEEEC1ILm6EEERAT__Kc
FNA:154,1,_ZN3fmt3v127fstringIJRNSt3__16chrono8durationImNS2_5ratioILl1000000000ELl1EEEEEEEC2ILm6EEERAT__Kc
FNA:154,1,_ZN3fmt3v127fstringIJRNSt3__16chrono8durationIxNS2_5ratioILl1ELl1000EEEEEEEC1ILm12EEERAT__Kc
FNA:154,1,_ZN3fmt3v127fstringIJRNSt3__16chrono8durationIxNS2_5ratioILl1ELl1000EEEEEEEC1ILm14EEERAT__Kc
FNA:154,1,_ZN3fmt3v127fstringIJRNSt3__16chrono8durationIxNS2_5ratioILl1ELl1000EEEEEEEC1ILm6EEERAT__Kc
FNA:154,1,_ZN3fmt3v127fstringIJRNSt3__16chrono8durationIxNS2_5ratioILl1ELl1000EEEEEEEC2ILm12EEERAT__Kc
FNA:154,1,_ZN3fmt3v127fstringIJRNSt3__16chrono8durationIxNS2_5ratioILl1ELl1000EEEEEEEC2ILm14EEERAT__Kc
FNA:154,1,_ZN3fmt3v127fstringIJRNSt3__16chrono8durationIxNS2_5ratioILl1ELl1000EEEEEEEC2ILm6EEERAT__Kc
FNA:154,1,_ZN3fmt3v127fstringIJRNSt3__16chrono8durationIxNS2_5ratioILl1ELl1EEEEEEEC1ILm5EEERAT__Kc
FNA:154,1,_ZN3fmt3v127fstringIJRNSt3__16chrono8durationIxNS2_5ratioILl1ELl1EEEEEEEC1ILm6EEERAT__Kc
FNA:154,1,_ZN3fmt3v127fstringIJRNSt3__16chrono8durationIxNS2_5ratioILl1ELl1EEEEEEEC1ILm7EEERAT__Kc
FNA:154,1,_ZN3fmt3v127fstringIJRNSt3__16chrono8durationIxNS2_5ratioILl1ELl1EEEEEEEC2ILm5EEERAT__Kc
FNA:154,1,_ZN3fmt3v127fstringIJRNSt3__16chrono8durationIxNS2_5ratioILl1ELl1EEEEEEEC2ILm6EEERAT__Kc
FNA:154,1,_ZN3fmt3v127fstringIJRNSt3__16chrono8durationIxNS2_5ratioILl1ELl1EEEEEEEC2ILm7EEERAT__Kc
FNA:154,1,_ZN3fmt3v127fstringIJRNSt3__16chrono8durationIxNS2_5ratioILl1ELl1EEEEEiEEC1ILm6EEERAT__Kc
FNA:154,1,_ZN3fmt3v127fstringIJRNSt3__16chrono8durationIxNS2_5ratioILl1ELl1EEEEEiEEC2ILm6EEERAT__Kc
FNA:154,1,_ZN3fmt3v127fstringIJRNSt3__16vectorI17basic_test_stringIcENS2_9allocatorIS5_EEEEEEC1ILm3EEERAT__Kc
FNA:154,1,_ZN3fmt3v127fstringIJRNSt3__16vectorI17basic_test_stringIcENS2_9allocatorIS5_EEEEEEC2ILm3EEERAT__Kc
FNA:154,1,_ZN3fmt3v127fstringIJRNSt3__16vectorI9test_enumNS2_9allocatorIS4_EEEEEEC1ILm3EEERAT__Kc
FNA:154,1,_ZN3fmt3v127fstringIJRNSt3__16vectorI9test_enumNS2_9allocatorIS4_EEEEEEC2ILm3EEERAT__Kc
FNA:154,1,_ZN3fmt3v127fstringIJRNSt3__16vectorINS3_IcNS2_9allocatorIcEEEENS4_IS6_EEEEEEC1ILm3EEERAT__Kc
FNA:154,1,_ZN3fmt3v127fstringIJRNSt3__16vectorINS3_IcNS2_9allocatorIcEEEENS4_IS6_EEEEEEC1ILm5EEERAT__Kc
FNA:154,1,_ZN3fmt3v127fstringIJRNSt3__16vectorINS3_IcNS2_9allocatorIcEEEENS4_IS6_EEEEEEC1ILm6EEERAT__Kc
FNA:154,1,_ZN3fmt3v127fstringIJRNSt3__16vectorINS3_IcNS2_9allocatorIcEEEENS4_IS6_EEEEEEC1ILm7EEERAT__Kc
FNA:154,1,_ZN3fmt3v127fstringIJRNSt3__16vectorINS3_IcNS2_9allocatorIcEEEENS4_IS6_EEEEEEC1ILm8EEERAT__Kc
FNA:154,1,_ZN3fmt3v127fstringIJRNSt3__16vectorINS3_IcNS2_9allocatorIcEEEENS4_IS6_EEEEEEC2ILm3EEERAT__Kc
FNA:154,1,_ZN3fmt3v127fstringIJRNSt3__16vectorINS3_IcNS2_9allocatorIcEEEENS4_IS6_EEEEEEC2ILm5EEERAT__Kc
FNA:154,1,_ZN3fmt3v127fstringIJRNSt3__16vectorINS3_IcNS2_9allocatorIcEEEENS4_IS6_EEEEEEC2ILm6EEERAT__Kc
FNA:154,1,_ZN3fmt3v127fstringIJRNSt3__16vectorINS3_IcNS2_9allocatorIcEEEENS4_IS6_EEEEEEC2ILm7EEERAT__Kc
FNA:154,1,_ZN3fmt3v127fstringIJRNSt3__16vectorINS3_IcNS2_9allocatorIcEEEENS4_IS6_EEEEEEC2ILm8EEERAT__Kc
FNA:154,1,_ZN3fmt3v127fstringIJRNSt3__16vectorINS3_IiNS2_9allocatorIiEEEENS4_IS6_EEEEEEC1ILm10EEERAT__Kc
FNA:154,2,_ZN3fmt3v127fstringIJRNSt3__16vectorINS3_IiNS2_9allocatorIiEEEENS4_IS6_EEEEEEC1ILm3EEERAT__Kc
FNA:154,1,_ZN3fmt3v127fstringIJRNSt3__16vectorINS3_IiNS2_9allocatorIiEEEENS4_IS6_EEEEEEC1ILm8EEERAT__Kc
FNA:154,1,_ZN3fmt3v127fstringIJRNSt3__16vectorINS3_IiNS2_9allocatorIiEEEENS4_IS6_EEEEEEC2ILm10EEERAT__Kc
FNA:154,2,_ZN3fmt3v127fstringIJRNSt3__16vectorINS3_IiNS2_9allocatorIiEEEENS4_IS6_EEEEEEC2ILm3EEERAT__Kc
FNA:154,1,_ZN3fmt3v127fstringIJRNSt3__16vectorINS3_IiNS2_9allocatorIiEEEENS4_IS6_EEEEEEC2ILm8EEERAT__Kc
FNA:154,1,_ZN3fmt3v127fstringIJRNSt3__16vectorIcNS2_9allocatorIcEEEEEEC1ILm3EEERAT__Kc
FNA:154,2,_ZN3fmt3v127fstringIJRNSt3__16vectorIcNS2_9allocatorIcEEEEEEC1ILm5EEERAT__Kc
FNA:154,1,_ZN3fmt3v127fstringIJRNSt3__16vectorIcNS2_9allocatorIcEEEEEEC1ILm6EEERAT__Kc
FNA:154,1,_ZN3fmt3v127fstringIJRNSt3__16vectorIcNS2_9allocatorIcEEEEEEC2ILm3EEERAT__Kc
FNA:154,2,_ZN3fmt3v127fstringIJRNSt3__16vectorIcNS2_9allocatorIcEEEEEEC2ILm5EEERAT__Kc
FNA:154,1,_ZN3fmt3v127fstringIJRNSt3__16vectorIcNS2_9allocatorIcEEEEEEC2ILm6EEERAT__Kc
FNA:154,3,_ZN3fmt3v127fstringIJRNSt3__16vectorIiNS2_9allocatorIiEEEEEEC1ILm3EEERAT__Kc
FNA:154,1,_ZN3fmt3v127fstringIJRNSt3__16vectorIiNS2_9allocatorIiEEEEEEC1ILm7EEERAT__Kc
FNA:154,1,_ZN3fmt3v127fstringIJRNSt3__16vectorIiNS2_9allocatorIiEEEEEEC1ILm8EEERAT__Kc
FNA:154,3,_ZN3fmt3v127fstringIJRNSt3__16vectorIiNS2_9allocatorIiEEEEEEC2ILm3EEERAT__Kc
FNA:154,1,_ZN3fmt3v127fstringIJRNSt3__16vectorIiNS2_9allocatorIiEEEEEEC2ILm7EEERAT__Kc
FNA:154,1,_ZN3fmt3v127fstringIJRNSt3__16vectorIiNS2_9allocatorIiEEEEEEC2ILm8EEERAT__Kc
FNA:154,1,_ZN3fmt3v127fstringIJRPKcEEC1ILm22EEERAT__S2_
FNA:154,1,_ZN3fmt3v127fstringIJRPKcEEC1ILm23EEERAT__S2_
FNA:154,1,_ZN3fmt3v127fstringIJRPKcEEC1ILm3EEERAT__S2_
FNA:154,2175,_ZN3fmt3v127fstringIJRPKcEEC1ILm5EEERAT__S2_
FNA:154,1,_ZN3fmt3v127fstringIJRPKcEEC2ILm22EEERAT__S2_
FNA:154,1,_ZN3fmt3v127fstringIJRPKcEEC2ILm23EEERAT__S2_
FNA:154,1,_ZN3fmt3v127fstringIJRPKcEEC2ILm3EEERAT__S2_
FNA:154,2175,_ZN3fmt3v127fstringIJRPKcEEC2ILm5EEERAT__S2_
FNA:154,2,_ZN3fmt3v127fstringIJRPvEEC1ILm3EEERAT__Kc
FNA:154,2,_ZN3fmt3v127fstringIJRPvEEC2ILm3EEERAT__Kc
FNA:154,1,_ZN3fmt3v127fstringIJRPvS3_EEC1ILm7EEERAT__Kc
FNA:154,1,_ZN3fmt3v127fstringIJRPvS3_EEC2ILm7EEERAT__Kc
FNA:154,1,_ZN3fmt3v127fstringIJRVcEEC1ILm3EEERAT__Kc
FNA:154,1,_ZN3fmt3v127fstringIJRVcEEC2ILm3EEERAT__Kc
FNA:154,1,_ZN3fmt3v127fstringIJRZN34ranges_test_container_adaptor_Test8TestBodyEvE20my_container_adaptorEEC1ILm3EEERAT__Kc
FNA:154,1,_ZN3fmt3v127fstringIJRZN34ranges_test_container_adaptor_Test8TestBodyEvE20my_container_adaptorEEC2ILm3EEERAT__Kc
FNA:154,8,_ZN3fmt3v127fstringIJRcEEC1ILm4EEERAT__Kc
FNA:154,8,_ZN3fmt3v127fstringIJRcEEC2ILm4EEERAT__Kc
FNA:154,2,_ZN3fmt3v127fstringIJRdEEC1ILm3EEERAT__Kc
FNA:154,9,_ZN3fmt3v127fstringIJRdEEC1ILm5EEERAT__Kc
FNA:154,7,_ZN3fmt3v127fstringIJRdEEC1ILm6EEERAT__Kc
FNA:154,2,_ZN3fmt3v127fstringIJRdEEC1ILm7EEERAT__Kc
FNA:154,6,_ZN3fmt3v127fstringIJRdEEC1ILm8EEERAT__Kc
FNA:154,2,_ZN3fmt3v127fstringIJRdEEC2ILm3EEERAT__Kc
FNA:154,9,_ZN3fmt3v127fstringIJRdEEC2ILm5EEERAT__Kc
FNA:154,7,_ZN3fmt3v127fstringIJRdEEC2ILm6EEERAT__Kc
FNA:154,2,_ZN3fmt3v127fstringIJRdEEC2ILm7EEERAT__Kc
FNA:154,6,_ZN3fmt3v127fstringIJRdEEC2ILm8EEERAT__Kc
FNA:154,4,_ZN3fmt3v127fstringIJReEEC1ILm6EEERAT__Kc
FNA:154,4,_ZN3fmt3v127fstringIJReEEC2ILm6EEERAT__Kc
FNA:154,2,_ZN3fmt3v127fstringIJRiEEC1ILm36EEERAT__Kc
FNA:154,1,_ZN3fmt3v127fstringIJRiEEC1ILm3EEERAT__Kc
FNA:154,20001,_ZN3fmt3v127fstringIJRiEEC1ILm4EEERAT__Kc
FNA:154,2,_ZN3fmt3v127fstringIJRiEEC1ILm5EEERAT__Kc
FNA:154,1,_ZN3fmt3v127fstringIJRiEEC1ILm6EEERAT__Kc
FNA:154,1,_ZN3fmt3v127fstringIJRiEEC1ILm7EEERAT__Kc
FNA:154,2,_ZN3fmt3v127fstringIJRiEEC1ILm9EEERAT__Kc
FNA:154,2,_ZN3fmt3v127fstringIJRiEEC2ILm36EEERAT__Kc
FNA:154,1,_ZN3fmt3v127fstringIJRiEEC2ILm3EEERAT__Kc
FNA:154,20001,_ZN3fmt3v127fstringIJRiEEC2ILm4EEERAT__Kc
FNA:154,2,_ZN3fmt3v127fstringIJRiEEC2ILm5EEERAT__Kc
FNA:154,1,_ZN3fmt3v127fstringIJRiEEC2ILm6EEERAT__Kc
FNA:154,1,_ZN3fmt3v127fstringIJRiEEC2ILm7EEERAT__Kc
FNA:154,2,_ZN3fmt3v127fstringIJRiEEC2ILm9EEERAT__Kc
FNA:154,2,_ZN3fmt3v127fstringIJRjEEC1ILm3EEERAT__Kc
FNA:154,6,_ZN3fmt3v127fstringIJRjEEC1ILm5EEERAT__Kc
FNA:154,2,_ZN3fmt3v127fstringIJRjEEC2ILm3EEERAT__Kc
FNA:154,6,_ZN3fmt3v127fstringIJRjEEC2ILm5EEERAT__Kc
FNA:154,1,_ZN3fmt3v127fstringIJRmEEC1ILm44EEERAT__Kc
FNA:154,1,_ZN3fmt3v127fstringIJRmEEC2ILm44EEERAT__Kc
FNA:154,0,_ZN3fmt3v127fstringIJRnEEC1ILm5EEERAT__Kc
FNA:154,0,_ZN3fmt3v127fstringIJRnEEC2ILm5EEERAT__Kc
FNA:154,0,_ZN3fmt3v127fstringIJRoEEC1ILm5EEERAT__Kc
FNA:154,0,_ZN3fmt3v127fstringIJRoEEC2ILm5EEERAT__Kc
FNA:154,1,_ZN3fmt3v127fstringIJRsEEC1ILm6EEERAT__Kc
FNA:154,1,_ZN3fmt3v127fstringIJRsEEC2ILm6EEERAT__Kc
FNA:154,1,_ZN3fmt3v127fstringIJRtEEC1ILm6EEERAT__Kc
FNA:154,1,_ZN3fmt3v127fstringIJRtEEC2ILm6EEERAT__Kc
FNA:154,2,_ZN3fmt3v127fstringIJRxEEC1ILm3EEERAT__Kc
FNA:154,0,_ZN3fmt3v127fstringIJRxEEC1ILm5EEERAT__Kc
FNA:154,2,_ZN3fmt3v127fstringIJRxEEC2ILm3EEERAT__Kc
FNA:154,0,_ZN3fmt3v127fstringIJRxEEC2ILm5EEERAT__Kc
FNA:154,0,_ZN3fmt3v127fstringIJRyEEC1ILm5EEERAT__Kc
FNA:154,0,_ZN3fmt3v127fstringIJRyEEC2ILm5EEERAT__Kc
FNA:154,2,_ZN3fmt3v127fstringIJbEEC1ILm3EEERAT__Kc
FNA:154,4,_ZN3fmt3v127fstringIJbEEC1ILm5EEERAT__Kc
FNA:154,1,_ZN3fmt3v127fstringIJbEEC1ILm6EEERAT__Kc
FNA:154,2,_ZN3fmt3v127fstringIJbEEC2ILm3EEERAT__Kc
FNA:154,4,_ZN3fmt3v127fstringIJbEEC2ILm5EEERAT__Kc
FNA:154,1,_ZN3fmt3v127fstringIJbEEC2ILm6EEERAT__Kc
FNA:154,5,_ZN3fmt3v127fstringIJcEEC1ILm3EEERAT__Kc
FNA:154,1,_ZN3fmt3v127fstringIJcEEC1ILm4EEERAT__Kc
FNA:154,2,_ZN3fmt3v127fstringIJcEEC1ILm5EEERAT__Kc
FNA:154,2,_ZN3fmt3v127fstringIJcEEC1ILm6EEERAT__Kc
FNA:154,4,_ZN3fmt3v127fstringIJcEEC1ILm7EEERAT__Kc
FNA:154,1,_ZN3fmt3v127fstringIJcEEC1ILm8EEERAT__Kc
FNA:154,5,_ZN3fmt3v127fstringIJcEEC2ILm3EEERAT__Kc
FNA:154,1,_ZN3fmt3v127fstringIJcEEC2ILm4EEERAT__Kc
FNA:154,2,_ZN3fmt3v127fstringIJcEEC2ILm5EEERAT__Kc
FNA:154,2,_ZN3fmt3v127fstringIJcEEC2ILm6EEERAT__Kc
FNA:154,4,_ZN3fmt3v127fstringIJcEEC2ILm7EEERAT__Kc
FNA:154,1,_ZN3fmt3v127fstringIJcEEC2ILm8EEERAT__Kc
FNA:154,2,_ZN3fmt3v127fstringIJccEEC1ILm6EEERAT__Kc
FNA:154,2,_ZN3fmt3v127fstringIJccEEC2ILm6EEERAT__Kc
FNA:154,1,_ZN3fmt3v127fstringIJcccEEC1ILm11EEERAT__Kc
FNA:154,2,_ZN3fmt3v127fstringIJcccEEC1ILm14EEERAT__Kc
FNA:154,1,_ZN3fmt3v127fstringIJcccEEC1ILm7EEERAT__Kc
FNA:154,1,_ZN3fmt3v127fstringIJcccEEC2ILm11EEERAT__Kc
FNA:154,2,_ZN3fmt3v127fstringIJcccEEC2ILm14EEERAT__Kc
FNA:154,1,_ZN3fmt3v127fstringIJcccEEC2ILm7EEERAT__Kc
FNA:154,1,_ZN3fmt3v127fstringIJciEEC1ILm8EEERAT__Kc
FNA:154,1,_ZN3fmt3v127fstringIJciEEC2ILm8EEERAT__Kc
FNA:154,5,_ZN3fmt3v127fstringIJdEEC1ILm10EEERAT__Kc
FNA:154,1,_ZN3fmt3v127fstringIJdEEC1ILm12EEERAT__Kc
FNA:154,1,_ZN3fmt3v127fstringIJdEEC1ILm16EEERAT__Kc
FNA:154,2113,_ZN3fmt3v127fstringIJdEEC1ILm3EEERAT__Kc
FNA:154,2,_ZN3fmt3v127fstringIJdEEC1ILm4EEERAT__Kc
FNA:154,17,_ZN3fmt3v127fstringIJdEEC1ILm5EEERAT__Kc
FNA:154,12,_ZN3fmt3v127fstringIJdEEC1ILm6EEERAT__Kc
FNA:154,22,_ZN3fmt3v127fstringIJdEEC1ILm7EEERAT__Kc
FNA:154,13,_ZN3fmt3v127fstringIJdEEC1ILm8EEERAT__Kc
FNA:154,2,_ZN3fmt3v127fstringIJdEEC1ILm9EEERAT__Kc
FNA:154,5,_ZN3fmt3v127fstringIJdEEC2ILm10EEERAT__Kc
FNA:154,1,_ZN3fmt3v127fstringIJdEEC2ILm12EEERAT__Kc
FNA:154,1,_ZN3fmt3v127fstringIJdEEC2ILm16EEERAT__Kc
FNA:154,2113,_ZN3fmt3v127fstringIJdEEC2ILm3EEERAT__Kc
FNA:154,2,_ZN3fmt3v127fstringIJdEEC2ILm4EEERAT__Kc
FNA:154,17,_ZN3fmt3v127fstringIJdEEC2ILm5EEERAT__Kc
FNA:154,12,_ZN3fmt3v127fstringIJdEEC2ILm6EEERAT__Kc
FNA:154,22,_ZN3fmt3v127fstringIJdEEC2ILm7EEERAT__Kc
FNA:154,13,_ZN3fmt3v127fstringIJdEEC2ILm8EEERAT__Kc
FNA:154,2,_ZN3fmt3v127fstringIJdEEC2ILm9EEERAT__Kc
FNA:154,3,_ZN3fmt3v127fstringIJddEEC1ILm13EEERAT__Kc
FNA:154,3,_ZN3fmt3v127fstringIJddEEC2ILm13EEERAT__Kc
FNA:154,1,_ZN3fmt3v127fstringIJdiEEC1ILm7EEERAT__Kc
FNA:154,1,_ZN3fmt3v127fstringIJdiEEC1ILm8EEERAT__Kc
FNA:154,1,_ZN3fmt3v127fstringIJdiEEC1ILm9EEERAT__Kc
FNA:154,1,_ZN3fmt3v127fstringIJdiEEC2ILm7EEERAT__Kc
FNA:154,1,_ZN3fmt3v127fstringIJdiEEC2ILm8EEERAT__Kc
FNA:154,1,_ZN3fmt3v127fstringIJdiEEC2ILm9EEERAT__Kc
FNA:154,1,_ZN3fmt3v127fstringIJdidRA4_KcPvcEEC1ILm38EEERAT__S2_
FNA:154,1,_ZN3fmt3v127fstringIJdidRA4_KcPvcEEC2ILm38EEERAT__S2_
FNA:154,1,_ZN3fmt3v127fstringIJeEEC1ILm12EEERAT__Kc
FNA:154,3,_ZN3fmt3v127fstringIJeEEC1ILm5EEERAT__Kc
FNA:154,10,_ZN3fmt3v127fstringIJeEEC1ILm6EEERAT__Kc
FNA:154,9,_ZN3fmt3v127fstringIJeEEC1ILm7EEERAT__Kc
FNA:154,1,_ZN3fmt3v127fstringIJeEEC1ILm8EEERAT__Kc
FNA:154,1,_ZN3fmt3v127fstringIJeEEC2ILm12EEERAT__Kc
FNA:154,3,_ZN3fmt3v127fstringIJeEEC2ILm5EEERAT__Kc
FNA:154,10,_ZN3fmt3v127fstringIJeEEC2ILm6EEERAT__Kc
FNA:154,9,_ZN3fmt3v127fstringIJeEEC2ILm7EEERAT__Kc
FNA:154,1,_ZN3fmt3v127fstringIJeEEC2ILm8EEERAT__Kc
FNA:154,1,_ZN3fmt3v127fstringIJeiEEC1ILm8EEERAT__Kc
FNA:154,1,_ZN3fmt3v127fstringIJeiEEC2ILm8EEERAT__Kc
FNA:154,5,_ZN3fmt3v127fstringIJfEEC1ILm3EEERAT__Kc
FNA:154,1,_ZN3fmt3v127fstringIJfEEC1ILm6EEERAT__Kc
FNA:154,1,_ZN3fmt3v127fstringIJfEEC1ILm7EEERAT__Kc
FNA:154,5,_ZN3fmt3v127fstringIJfEEC2ILm3EEERAT__Kc
FNA:154,1,_ZN3fmt3v127fstringIJfEEC2ILm6EEERAT__Kc
FNA:154,1,_ZN3fmt3v127fstringIJfEEC2ILm7EEERAT__Kc
FNA:154,2,_ZN3fmt3v127fstringIJhEEC1ILm3EEERAT__Kc
FNA:154,2,_ZN3fmt3v127fstringIJhEEC2ILm3EEERAT__Kc
FNA:154,1,_ZN3fmt3v127fstringIJiEEC1ILm10EEERAT__Kc
FNA:154,1,_ZN3fmt3v127fstringIJiEEC1ILm11EEERAT__Kc
FNA:154,3,_ZN3fmt3v127fstringIJiEEC1ILm17EEERAT__Kc
FNA:154,1,_ZN3fmt3v127fstringIJiEEC1ILm18EEERAT__Kc
FNA:154,1,_ZN3fmt3v127fstringIJiEEC1ILm19EEERAT__Kc
FNA:154,1,_ZN3fmt3v127fstringIJiEEC1ILm37EEERAT__Kc
FNA:154,1,_ZN3fmt3v127fstringIJiEEC1ILm39EEERAT__Kc
FNA:154,12,_ZN3fmt3v127fstringIJiEEC1ILm3EEERAT__Kc
FNA:154,1,_ZN3fmt3v127fstringIJiEEC1ILm42EEERAT__Kc
FNA:154,8,_ZN3fmt3v127fstringIJiEEC1ILm4EEERAT__Kc
FNA:154,17,_ZN3fmt3v127fstringIJiEEC1ILm5EEERAT__Kc
FNA:154,36,_ZN3fmt3v127fstringIJiEEC1ILm6EEERAT__Kc
FNA:154,24,_ZN3fmt3v127fstringIJiEEC1ILm7EEERAT__Kc
FNA:154,12,_ZN3fmt3v127fstringIJiEEC1ILm8EEERAT__Kc
FNA:154,1,_ZN3fmt3v127fstringIJiEEC1ILm9EEERAT__Kc
FNA:154,1,_ZN3fmt3v127fstringIJiEEC2ILm10EEERAT__Kc
FNA:154,1,_ZN3fmt3v127fstringIJiEEC2ILm11EEERAT__Kc
FNA:154,3,_ZN3fmt3v127fstringIJiEEC2ILm17EEERAT__Kc
FNA:154,1,_ZN3fmt3v127fstringIJiEEC2ILm18EEERAT__Kc
FNA:154,1,_ZN3fmt3v127fstringIJiEEC2ILm19EEERAT__Kc
FNA:154,1,_ZN3fmt3v127fstringIJiEEC2ILm37EEERAT__Kc
FNA:154,1,_ZN3fmt3v127fstringIJiEEC2ILm39EEERAT__Kc
FNA:154,12,_ZN3fmt3v127fstringIJiEEC2ILm3EEERAT__Kc
FNA:154,1,_ZN3fmt3v127fstringIJiEEC2ILm42EEERAT__Kc
FNA:154,8,_ZN3fmt3v127fstringIJiEEC2ILm4EEERAT__Kc
FNA:154,17,_ZN3fmt3v127fstringIJiEEC2ILm5EEERAT__Kc
FNA:154,36,_ZN3fmt3v127fstringIJiEEC2ILm6EEERAT__Kc
FNA:154,24,_ZN3fmt3v127fstringIJiEEC2ILm7EEERAT__Kc
FNA:154,12,_ZN3fmt3v127fstringIJiEEC2ILm8EEERAT__Kc
FNA:154,1,_ZN3fmt3v127fstringIJiEEC2ILm9EEERAT__Kc
FNA:154,1,_ZN3fmt3v127fstringIJiNS0_6detail9named_argIciEEEEC1ILm12EEERAT__Kc
FNA:154,1,_ZN3fmt3v127fstringIJiNS0_6detail9named_argIciEEEEC1ILm9EEERAT__Kc
FNA:154,1,_ZN3fmt3v127fstringIJiNS0_6detail9named_argIciEEEEC2ILm12EEERAT__Kc
FNA:154,1,_ZN3fmt3v127fstringIJiNS0_6detail9named_argIciEEEEC2ILm9EEERAT__Kc
FNA:154,1,_ZN3fmt3v127fstringIJiRiEEC1ILm8EEERAT__Kc
FNA:154,1,_ZN3fmt3v127fstringIJiRiEEC2ILm8EEERAT__Kc
FNA:154,1,_ZN3fmt3v127fstringIJieEEC1ILm9EEERAT__Kc
FNA:154,1,_ZN3fmt3v127fstringIJieEEC2ILm9EEERAT__Kc
FNA:154,1,_ZN3fmt3v127fstringIJiiEEC1ILm10EEERAT__Kc
FNA:154,1,_ZN3fmt3v127fstringIJiiEEC1ILm14EEERAT__Kc
FNA:154,1,_ZN3fmt3v127fstringIJiiEEC1ILm8EEERAT__Kc
FNA:154,1,_ZN3fmt3v127fstringIJiiEEC2ILm10EEERAT__Kc
FNA:154,1,_ZN3fmt3v127fstringIJiiEEC2ILm14EEERAT__Kc
FNA:154,1,_ZN3fmt3v127fstringIJiiEEC2ILm8EEERAT__Kc
FNA:154,1,_ZN3fmt3v127fstringIJiiiEEC1ILm21EEERAT__Kc
FNA:154,1,_ZN3fmt3v127fstringIJiiiEEC1ILm9EEERAT__Kc
FNA:154,1,_ZN3fmt3v127fstringIJiiiEEC2ILm21EEERAT__Kc
FNA:154,1,_ZN3fmt3v127fstringIJiiiEEC2ILm9EEERAT__Kc
FNA:154,1,_ZN3fmt3v127fstringIJiiiiiiiiiicccccccEEC1ILm35EEERAT__Kc
FNA:154,1,_ZN3fmt3v127fstringIJiiiiiiiiiicccccccEEC2ILm35EEERAT__Kc
FNA:154,1,_ZN3fmt3v127fstringIJisEEC1ILm6EEERAT__Kc
FNA:154,1,_ZN3fmt3v127fstringIJisEEC2ILm6EEERAT__Kc
FNA:154,2,_ZN3fmt3v127fstringIJjEEC1ILm4EEERAT__Kc
FNA:154,2,_ZN3fmt3v127fstringIJjEEC1ILm5EEERAT__Kc
FNA:154,12,_ZN3fmt3v127fstringIJjEEC1ILm6EEERAT__Kc
FNA:154,8,_ZN3fmt3v127fstringIJjEEC1ILm7EEERAT__Kc
FNA:154,1,_ZN3fmt3v127fstringIJjEEC1ILm8EEERAT__Kc
FNA:154,2,_ZN3fmt3v127fstringIJjEEC2ILm4EEERAT__Kc
FNA:154,2,_ZN3fmt3v127fstringIJjEEC2ILm5EEERAT__Kc
FNA:154,12,_ZN3fmt3v127fstringIJjEEC2ILm6EEERAT__Kc
FNA:154,8,_ZN3fmt3v127fstringIJjEEC2ILm7EEERAT__Kc
FNA:154,1,_ZN3fmt3v127fstringIJjEEC2ILm8EEERAT__Kc
FNA:154,1,_ZN3fmt3v127fstringIJjiEEC1ILm8EEERAT__Kc
FNA:154,1,_ZN3fmt3v127fstringIJjiEEC2ILm8EEERAT__Kc
FNA:154,2,_ZN3fmt3v127fstringIJlEEC1ILm4EEERAT__Kc
FNA:154,1,_ZN3fmt3v127fstringIJlEEC1ILm5EEERAT__Kc
FNA:154,8,_ZN3fmt3v127fstringIJlEEC1ILm6EEERAT__Kc
FNA:154,8,_ZN3fmt3v127fstringIJlEEC1ILm7EEERAT__Kc
FNA:154,1,_ZN3fmt3v127fstringIJlEEC1ILm8EEERAT__Kc
FNA:154,2,_ZN3fmt3v127fstringIJlEEC2ILm4EEERAT__Kc
FNA:154,1,_ZN3fmt3v127fstringIJlEEC2ILm5EEERAT__Kc
FNA:154,8,_ZN3fmt3v127fstringIJlEEC2ILm6EEERAT__Kc
FNA:154,8,_ZN3fmt3v127fstringIJlEEC2ILm7EEERAT__Kc
FNA:154,1,_ZN3fmt3v127fstringIJlEEC2ILm8EEERAT__Kc
FNA:154,1,_ZN3fmt3v127fstringIJliEEC1ILm8EEERAT__Kc
FNA:154,1,_ZN3fmt3v127fstringIJliEEC2ILm8EEERAT__Kc
FNA:154,1,_ZN3fmt3v127fstringIJmEEC1ILm4EEERAT__Kc
FNA:154,1,_ZN3fmt3v127fstringIJmEEC1ILm5EEERAT__Kc
FNA:154,3,_ZN3fmt3v127fstringIJmEEC1ILm6EEERAT__Kc
FNA:154,6,_ZN3fmt3v127fstringIJmEEC1ILm7EEERAT__Kc
FNA:154,1,_ZN3fmt3v127fstringIJmEEC1ILm8EEERAT__Kc
FNA:154,1,_ZN3fmt3v127fstringIJmEEC2ILm4EEERAT__Kc
FNA:154,1,_ZN3fmt3v127fstringIJmEEC2ILm5EEERAT__Kc
FNA:154,3,_ZN3fmt3v127fstringIJmEEC2ILm6EEERAT__Kc
FNA:154,6,_ZN3fmt3v127fstringIJmEEC2ILm7EEERAT__Kc
FNA:154,1,_ZN3fmt3v127fstringIJmEEC2ILm8EEERAT__Kc
FNA:154,1,_ZN3fmt3v127fstringIJmiEEC1ILm8EEERAT__Kc
FNA:154,1,_ZN3fmt3v127fstringIJmiEEC2ILm8EEERAT__Kc
FNA:154,4,_ZN3fmt3v127fstringIJnEEC1ILm4EEERAT__Kc
FNA:154,9,_ZN3fmt3v127fstringIJnEEC1ILm6EEERAT__Kc
FNA:154,4,_ZN3fmt3v127fstringIJnEEC2ILm4EEERAT__Kc
FNA:154,9,_ZN3fmt3v127fstringIJnEEC2ILm6EEERAT__Kc
FNA:154,1,_ZN3fmt3v127fstringIJoEEC1ILm4EEERAT__Kc
FNA:154,2,_ZN3fmt3v127fstringIJoEEC1ILm6EEERAT__Kc
FNA:154,1,_ZN3fmt3v127fstringIJoEEC2ILm4EEERAT__Kc
FNA:154,2,_ZN3fmt3v127fstringIJoEEC2ILm6EEERAT__Kc
FNA:154,1,_ZN3fmt3v127fstringIJxEEC1ILm5EEERAT__Kc
FNA:154,4,_ZN3fmt3v127fstringIJxEEC1ILm6EEERAT__Kc
FNA:154,8,_ZN3fmt3v127fstringIJxEEC1ILm7EEERAT__Kc
FNA:154,1,_ZN3fmt3v127fstringIJxEEC1ILm8EEERAT__Kc
FNA:154,1,_ZN3fmt3v127fstringIJxEEC2ILm5EEERAT__Kc
FNA:154,4,_ZN3fmt3v127fstringIJxEEC2ILm6EEERAT__Kc
FNA:154,8,_ZN3fmt3v127fstringIJxEEC2ILm7EEERAT__Kc
FNA:154,1,_ZN3fmt3v127fstringIJxEEC2ILm8EEERAT__Kc
FNA:154,1,_ZN3fmt3v127fstringIJxiEEC1ILm8EEERAT__Kc
FNA:154,1,_ZN3fmt3v127fstringIJxiEEC2ILm8EEERAT__Kc
FNA:154,1,_ZN3fmt3v127fstringIJyEEC1ILm5EEERAT__Kc
FNA:154,1,_ZN3fmt3v127fstringIJyEEC1ILm6EEERAT__Kc
FNA:154,6,_ZN3fmt3v127fstringIJyEEC1ILm7EEERAT__Kc
FNA:154,1,_ZN3fmt3v127fstringIJyEEC1ILm8EEERAT__Kc
FNA:154,1,_ZN3fmt3v127fstringIJyEEC2ILm5EEERAT__Kc
FNA:154,1,_ZN3fmt3v127fstringIJyEEC2ILm6EEERAT__Kc
FNA:154,6,_ZN3fmt3v127fstringIJyEEC2ILm7EEERAT__Kc
FNA:154,1,_ZN3fmt3v127fstringIJyEEC2ILm8EEERAT__Kc
FNA:154,1,_ZN3fmt3v127fstringIJyiEEC1ILm8EEERAT__Kc
FNA:154,1,_ZN3fmt3v127fstringIJyiEEC2ILm8EEERAT__Kc
FNL:155,2769,2778
FNA:155,1,_ZN3fmt3v127fstringIJEEC1IZN52base_test_no_repeated_format_string_conversions_Test8TestBodyEvE30nondeterministic_format_stringLi0EEERKT_
FNA:155,1,_ZN3fmt3v127fstringIJEEC2IZN52base_test_no_repeated_format_string_conversions_Test8TestBodyEvE30nondeterministic_format_stringLi0EEERKT_
FNA:155,1,_ZN3fmt3v127fstringIJcEEC1INS0_17basic_string_viewIcEELi0EEERKT_
FNA:155,1,_ZN3fmt3v127fstringIJcEEC2INS0_17basic_string_viewIcEELi0EEERKT_
FNA:155,1,_ZN3fmt3v127fstringIJiEEC1INS0_17basic_string_viewIcEELi0EEERKT_
FNA:155,1,_ZN3fmt3v127fstringIJiEEC2INS0_17basic_string_viewIcEELi0EEERKT_
FNL:156,2782,2787
FNA:156,1,_ZN3fmt3v127fstringIJ13type_with_getEEC1IZZN39compile_test_compile_type_with_get_Test8TestBodyEvENK3$_0clEvE18FMT_COMPILE_STRINGLi0EEERKT_
FNA:156,1,_ZN3fmt3v127fstringIJ13type_with_getEEC2IZZN39compile_test_compile_type_with_get_Test8TestBodyEvENK3$_0clEvE18FMT_COMPILE_STRINGLi0EEERKT_
FNA:156,1,_ZN3fmt3v127fstringIJ17basic_test_stringIcEEEC1IZZN34ostream_test_constexpr_string_Test8TestBodyEvENK3$_1clEvE18FMT_COMPILE_STRINGLi0EEERKT_
FNA:156,1,_ZN3fmt3v127fstringIJ17basic_test_stringIcEEEC2IZZN34ostream_test_constexpr_string_Test8TestBodyEvENK3$_1clEvE18FMT_COMPILE_STRINGLi0EEERKT_
FNA:156,1,_ZN3fmt3v127fstringIJ6AnswerEEC1IZZN50format_test_custom_format_compile_time_string_Test8TestBodyEvENK3$_0clEvE18FMT_COMPILE_STRINGLi0EEERKT_
FNA:156,1,_ZN3fmt3v127fstringIJ6AnswerEEC2IZZN50format_test_custom_format_compile_time_string_Test8TestBodyEvENK3$_0clEvE18FMT_COMPILE_STRINGLi0EEERKT_
FNA:156,1,_ZN3fmt3v127fstringIJEEC1IZZ15test_format_apivENK3$_2clEvE18FMT_COMPILE_STRINGLi0EEERKT_
FNA:156,1,_ZN3fmt3v127fstringIJEEC1IZZN36format_test_compile_time_string_Test8TestBodyEvENK3$_0clEvE18FMT_COMPILE_STRINGLi0EEERKT_
FNA:156,1,_ZN3fmt3v127fstringIJEEC1IZZNKS0_13buffered_file10descriptorEvENK3$_0clEvE18FMT_COMPILE_STRINGLi0EEERKT_
FNA:156,1,_ZN3fmt3v127fstringIJEEC1IZZNKS0_4file4sizeEvENK3$_0clEvE18FMT_COMPILE_STRINGLi0EEERKT_
FNA:156,1,_ZN3fmt3v127fstringIJEEC1IZZNS0_11getpagesizeEvENK3$_0clEvE18FMT_COMPILE_STRINGLi0EEERKT_
FNA:156,3,_ZN3fmt3v127fstringIJEEC1IZZNS0_13buffered_file5closeEvENK3$_0clEvE18FMT_COMPILE_STRINGLi0EEERKT_
FNA:156,1,_ZN3fmt3v127fstringIJEEC1IZZNS0_4file4readEPvmENK3$_0clEvE18FMT_COMPILE_STRINGLi0EEERKT_
FNA:156,2,_ZN3fmt3v127fstringIJEEC1IZZNS0_4file5closeEvENK3$_0clEvE18FMT_COMPILE_STRINGLi0EEERKT_
FNA:156,1,_ZN3fmt3v127fstringIJEEC1IZZNS0_4file5writeEPKvmENK3$_0clEvE18FMT_COMPILE_STRINGLi0EEERKT_
FNA:156,1,_ZN3fmt3v127fstringIJEEC1IZZNS0_4file6fdopenEPKcENK3$_0clEvE18FMT_COMPILE_STRINGLi0EEERKT_
FNA:156,1,_ZN3fmt3v127fstringIJEEC1IZZNS0_4pipeC1EvENK3$_0clEvE18FMT_COMPILE_STRINGLi0EEERKT_
FNA:156,0,_ZN3fmt3v127fstringIJEEC1IZZNS0_6detail10fwrite_allEPKvmP7__sFILEENKUlvE_clEvE18FMT_COMPILE_STRINGLi0EEERKT_
FNA:156,0,_ZN3fmt3v127fstringIJEEC1IZZNS0_6detail9file_baseI7__sFILEE3getEvENKUlvE_clEvE18FMT_COMPILE_STRINGLi0EEERKT_
FNA:156,0,_ZN3fmt3v127fstringIJEEC1IZZNS0_6detail9file_baseI7__sFILEE5ungetEcENKUlvE_clEvE18FMT_COMPILE_STRINGLi0EEERKT_
FNA:156,1,_ZN3fmt3v127fstringIJEEC2IZZ15test_format_apivENK3$_2clEvE18FMT_COMPILE_STRINGLi0EEERKT_
FNA:156,1,_ZN3fmt3v127fstringIJEEC2IZZN36format_test_compile_time_string_Test8TestBodyEvENK3$_0clEvE18FMT_COMPILE_STRINGLi0EEERKT_
FNA:156,1,_ZN3fmt3v127fstringIJEEC2IZZNKS0_13buffered_file10descriptorEvENK3$_0clEvE18FMT_COMPILE_STRINGLi0EEERKT_
FNA:156,1,_ZN3fmt3v127fstringIJEEC2IZZNKS0_4file4sizeEvENK3$_0clEvE18FMT_COMPILE_STRINGLi0EEERKT_
FNA:156,1,_ZN3fmt3v127fstringIJEEC2IZZNS0_11getpagesizeEvENK3$_0clEvE18FMT_COMPILE_STRINGLi0EEERKT_
FNA:156,3,_ZN3fmt3v127fstringIJEEC2IZZNS0_13buffered_file5closeEvENK3$_0clEvE18FMT_COMPILE_STRINGLi0EEERKT_
FNA:156,1,_ZN3fmt3v127fstringIJEEC2IZZNS0_4file4readEPvmENK3$_0clEvE18FMT_COMPILE_STRINGLi0EEERKT_
FNA:156,2,_ZN3fmt3v127fstringIJEEC2IZZNS0_4file5closeEvENK3$_0clEvE18FMT_COMPILE_STRINGLi0EEERKT_
FNA:156,1,_ZN3fmt3v127fstringIJEEC2IZZNS0_4file5writeEPKvmENK3$_0clEvE18FMT_COMPILE_STRINGLi0EEERKT_
FNA:156,1,_ZN3fmt3v127fstringIJEEC2IZZNS0_4file6fdopenEPKcENK3$_0clEvE18FMT_COMPILE_STRINGLi0EEERKT_
FNA:156,1,_ZN3fmt3v127fstringIJEEC2IZZNS0_4pipeC1EvENK3$_0clEvE18FMT_COMPILE_STRINGLi0EEERKT_
FNA:156,0,_ZN3fmt3v127fstringIJEEC2IZZNS0_6detail10fwrite_allEPKvmP7__sFILEENKUlvE_clEvE18FMT_COMPILE_STRINGLi0EEERKT_
FNA:156,0,_ZN3fmt3v127fstringIJEEC2IZZNS0_6detail9file_baseI7__sFILEE3getEvENKUlvE_clEvE18FMT_COMPILE_STRINGLi0EEERKT_
FNA:156,0,_ZN3fmt3v127fstringIJEEC2IZZNS0_6detail9file_baseI7__sFILEE5ungetEcENKUlvE_clEvE18FMT_COMPILE_STRINGLi0EEERKT_
FNA:156,2,_ZN3fmt3v127fstringIJNS0_17basic_string_viewIcEEEEC1IZZNS0_6vprintEP7__sFILENS0_10text_styleES3_NS0_17basic_format_argsINS0_7contextEEEENKUlvE_clEvE18FMT_COMPILE_STRINGLi0EEERKT_
FNA:156,2,_ZN3fmt3v127fstringIJNS0_17basic_string_viewIcEEEEC2IZZNS0_6vprintEP7__sFILENS0_10text_styleES3_NS0_17basic_format_argsINS0_7contextEEEENKUlvE_clEvE18FMT_COMPILE_STRINGLi0EEERKT_
FNA:156,1,_ZN3fmt3v127fstringIJNSt3__112basic_stringIcNS2_11char_traitsIcEENS2_9allocatorIcEEEEEEC1IZZN34ostream_test_constexpr_string_Test8TestBodyEvENK3$_0clEvE18FMT_COMPILE_STRINGLi0EEERKT_
FNA:156,1,_ZN3fmt3v127fstringIJNSt3__112basic_stringIcNS2_11char_traitsIcEENS2_9allocatorIcEEEEEEC1IZZNS0_7printlnIJRA6_KcEEEvRNS2_13basic_ostreamIcS5_EENS1_IJDpT_EE1tEDpOSI_ENKUlvE_clEvE18FMT_COMPILE_STRINGLi0EEERKT_
FNA:156,1,_ZN3fmt3v127fstringIJNSt3__112basic_stringIcNS2_11char_traitsIcEENS2_9allocatorIcEEEEEEC2IZZN34ostream_test_constexpr_string_Test8TestBodyEvENK3$_0clEvE18FMT_COMPILE_STRINGLi0EEERKT_
FNA:156,1,_ZN3fmt3v127fstringIJNSt3__112basic_stringIcNS2_11char_traitsIcEENS2_9allocatorIcEEEEEEC2IZZNS0_7printlnIJRA6_KcEEEvRNS2_13basic_ostreamIcS5_EENS1_IJDpT_EE1tEDpOSI_ENKUlvE_clEvE18FMT_COMPILE_STRINGLi0EEERKT_
FNA:156,1,_ZN3fmt3v127fstringIJNSt3__16chrono8durationIxNS2_5ratioILl1ELl1EEEEEEEC1IZZ11test_chronovENK3$_0clEvE18FMT_COMPILE_STRINGLi0EEERKT_
FNA:156,1,_ZN3fmt3v127fstringIJNSt3__16chrono8durationIxNS2_5ratioILl1ELl1EEEEEEEC2IZZ11test_chronovENK3$_0clEvE18FMT_COMPILE_STRINGLi0EEERKT_
FNA:156,0,_ZN3fmt3v127fstringIJPKcEEC1IZZNS0_13buffered_fileC1ENS0_18basic_cstring_viewIcEES8_ENK3$_0clEvE18FMT_COMPILE_STRINGLi0EEERKT_
FNA:156,1,_ZN3fmt3v127fstringIJPKcEEC1IZZNS0_4fileC1ENS0_18basic_cstring_viewIcEEiENK3$_0clEvE18FMT_COMPILE_STRINGLi0EEERKT_
FNA:156,0,_ZN3fmt3v127fstringIJPKcEEC2IZZNS0_13buffered_fileC1ENS0_18basic_cstring_viewIcEES8_ENK3$_0clEvE18FMT_COMPILE_STRINGLi0EEERKT_
FNA:156,1,_ZN3fmt3v127fstringIJPKcEEC2IZZNS0_4fileC1ENS0_18basic_cstring_viewIcEEiENK3$_0clEvE18FMT_COMPILE_STRINGLi0EEERKT_
FNA:156,1,_ZN3fmt3v127fstringIJR6AnswerEEC1IZZN50format_test_custom_format_compile_time_string_Test8TestBodyEvENK3$_1clEvE18FMT_COMPILE_STRINGLi0EEERKT_
FNA:156,1,_ZN3fmt3v127fstringIJR6AnswerEEC1IZZN50format_test_custom_format_compile_time_string_Test8TestBodyEvENK3$_2clEvE18FMT_COMPILE_STRINGLi0EEERKT_
FNA:156,1,_ZN3fmt3v127fstringIJR6AnswerEEC2IZZN50format_test_custom_format_compile_time_string_Test8TestBodyEvENK3$_1clEvE18FMT_COMPILE_STRINGLi0EEERKT_
FNA:156,1,_ZN3fmt3v127fstringIJR6AnswerEEC2IZZN50format_test_custom_format_compile_time_string_Test8TestBodyEvENK3$_2clEvE18FMT_COMPILE_STRINGLi0EEERKT_
FNA:156,1,_ZN3fmt3v127fstringIJRA15_KcEEC1IZZ15test_text_stylevENK3$_0clEvE18FMT_COMPILE_STRINGLi0EEERKT_
FNA:156,1,_ZN3fmt3v127fstringIJRA15_KcEEC1IZZ15test_text_stylevENK3$_1clEvE18FMT_COMPILE_STRINGLi0EEERKT_
FNA:156,1,_ZN3fmt3v127fstringIJRA15_KcEEC2IZZ15test_text_stylevENK3$_0clEvE18FMT_COMPILE_STRINGLi0EEERKT_
FNA:156,1,_ZN3fmt3v127fstringIJRA15_KcEEC2IZZ15test_text_stylevENK3$_1clEvE18FMT_COMPILE_STRINGLi0EEERKT_
FNA:156,0,_ZN3fmt3v127fstringIJRA7_KcRiEEC1IZZNS0_6detail17format_error_codeERNS8_6bufferIcEEiNS0_17basic_string_viewIcEEENK3$_1clEvE18FMT_COMPILE_STRINGLi0EEERKT_
FNA:156,6,_ZN3fmt3v127fstringIJRA7_KcRiEEC1IZZNS0_6detail17format_error_codeERNS8_6bufferIcEEiNS0_17basic_string_viewIcEEENKUlvE0_clEvE18FMT_COMPILE_STRINGLi0EEERKT_
FNA:156,0,_ZN3fmt3v127fstringIJRA7_KcRiEEC2IZZNS0_6detail17format_error_codeERNS8_6bufferIcEEiNS0_17basic_string_viewIcEEENK3$_1clEvE18FMT_COMPILE_STRINGLi0EEERKT_
FNA:156,6,_ZN3fmt3v127fstringIJRA7_KcRiEEC2IZZNS0_6detail17format_error_codeERNS8_6bufferIcEEiNS0_17basic_string_viewIcEEENKUlvE0_clEvE18FMT_COMPILE_STRINGLi0EEERKT_
FNA:156,1,_ZN3fmt3v127fstringIJRK6AnswerEEC1IZZN50format_test_custom_format_compile_time_string_Test8TestBodyEvENK3$_3clEvE18FMT_COMPILE_STRINGLi0EEERKT_
FNA:156,1,_ZN3fmt3v127fstringIJRK6AnswerEEC2IZZN50format_test_custom_format_compile_time_string_Test8TestBodyEvENK3$_3clEvE18FMT_COMPILE_STRINGLi0EEERKT_
FNA:156,0,_ZN3fmt3v127fstringIJRK8abstractEEC1IZZ24format_abstract_compilesS4_ENK3$_0clEvE18FMT_COMPILE_STRINGLi0EEERKT_
FNA:156,0,_ZN3fmt3v127fstringIJRK8abstractEEC2IZZ24format_abstract_compilesS4_ENK3$_0clEvE18FMT_COMPILE_STRINGLi0EEERKT_
FNA:156,0,_ZN3fmt3v127fstringIJRNS0_17basic_string_viewIcEERA3_KcEEC1IZZNS0_6detail17format_error_codeERNSA_6bufferIcEEiS3_ENK3$_0clEvE18FMT_COMPILE_STRINGLi0EEERKT_
FNA:156,3,_ZN3fmt3v127fstringIJRNS0_17basic_string_viewIcEERA3_KcEEC1IZZNS0_6detail17format_error_codeERNSA_6bufferIcEEiS3_ENKUlvE_clEvE18FMT_COMPILE_STRINGLi0EEERKT_
FNA:156,0,_ZN3fmt3v127fstringIJRNS0_17basic_string_viewIcEERA3_KcEEC2IZZNS0_6detail17format_error_codeERNSA_6bufferIcEEiS3_ENK3$_0clEvE18FMT_COMPILE_STRINGLi0EEERKT_
FNA:156,3,_ZN3fmt3v127fstringIJRNS0_17basic_string_viewIcEERA3_KcEEC2IZZNS0_6detail17format_error_codeERNSA_6bufferIcEEiS3_ENKUlvE_clEvE18FMT_COMPILE_STRINGLi0EEERKT_
FNA:156,1,_ZN3fmt3v127fstringIJRNSt3__16vectorIcNS2_9allocatorIcEEEEEEC1IZZ10test_rangevENK3$_0clEvE18FMT_COMPILE_STRINGLi0EEERKT_
FNA:156,1,_ZN3fmt3v127fstringIJRNSt3__16vectorIcNS2_9allocatorIcEEEEEEC2IZZ10test_rangevENK3$_0clEvE18FMT_COMPILE_STRINGLi0EEERKT_
FNA:156,3,_ZN3fmt3v127fstringIJRiEEC1IZZNS0_4file3dupEiENK3$_0clEvE18FMT_COMPILE_STRINGLi0EEERKT_
FNA:156,3,_ZN3fmt3v127fstringIJRiEEC2IZZNS0_4file3dupEiENK3$_0clEvE18FMT_COMPILE_STRINGLi0EEERKT_
FNA:156,1,_ZN3fmt3v127fstringIJRiS2_EEC1IZZNS0_4file4dup2EiENK3$_0clEvE18FMT_COMPILE_STRINGLi0EEERKT_
FNA:156,1,_ZN3fmt3v127fstringIJRiS2_EEC2IZZNS0_4file4dup2EiENK3$_0clEvE18FMT_COMPILE_STRINGLi0EEERKT_
FNA:156,34,_ZN3fmt3v127fstringIJRjEEC1IZZNKS0_9formatterINS0_6detail6bigintEcvE6formatERKS7_RNS0_7contextEENKUlvE0_clEvE18FMT_COMPILE_STRINGLi0EEERKT_
FNA:156,20,_ZN3fmt3v127fstringIJRjEEC1IZZNKS0_9formatterINS0_6detail6bigintEcvE6formatERKS7_RNS0_7contextEENKUlvE_clEvE18FMT_COMPILE_STRINGLi0EEERKT_
FNA:156,34,_ZN3fmt3v127fstringIJRjEEC2IZZNKS0_9formatterINS0_6detail6bigintEcvE6formatERKS7_RNS0_7contextEENKUlvE0_clEvE18FMT_COMPILE_STRINGLi0EEERKT_
FNA:156,20,_ZN3fmt3v127fstringIJRjEEC2IZZNKS0_9formatterINS0_6detail6bigintEcvE6formatERKS7_RNS0_7contextEENKUlvE_clEvE18FMT_COMPILE_STRINGLi0EEERKT_
FNA:156,7,_ZN3fmt3v127fstringIJdRiEEC1IZZNS0_6detail22write_floating_secondsINSt3__16chrono8durationIdNS7_5ratioILl1ELl1000000000EEEEEEEvRNS0_19basic_memory_bufferIcLm500ENS5_9allocatorIcEEEET_iENKUlvE_clEvE18FMT_COMPILE_STRINGLi0EEERKSI_
FNA:156,2,_ZN3fmt3v127fstringIJdRiEEC1IZZNS0_6detail22write_floating_secondsINSt3__16chrono8durationIdNS7_5ratioILl1ELl1000EEEEEEEvRNS0_19basic_memory_bufferIcLm500ENS5_9allocatorIcEEEET_iENKUlvE_clEvE18FMT_COMPILE_STRINGLi0EEERKSI_
FNA:156,9,_ZN3fmt3v127fstringIJdRiEEC1IZZNS0_6detail22write_floating_secondsINSt3__16chrono8durationIdNS7_5ratioILl1ELl1EEEEEEEvRNS0_19basic_memory_bufferIcLm500ENS5_9allocatorIcEEEET_iENKUlvE_clEvE18FMT_COMPILE_STRINGLi0EEERKSI_
FNA:156,1,_ZN3fmt3v127fstringIJdRiEEC1IZZNS0_6detail22write_floating_secondsINSt3__16chrono8durationIdNS7_5ratioILl1ELl3EEEEEEEvRNS0_19basic_memory_bufferIcLm500ENS5_9allocatorIcEEEET_iENKUlvE_clEvE18FMT_COMPILE_STRINGLi0EEERKSI_
FNA:156,7,_ZN3fmt3v127fstringIJdRiEEC2IZZNS0_6detail22write_floating_secondsINSt3__16chrono8durationIdNS7_5ratioILl1ELl1000000000EEEEEEEvRNS0_19basic_memory_bufferIcLm500ENS5_9allocatorIcEEEET_iENKUlvE_clEvE18FMT_COMPILE_STRINGLi0EEERKSI_
FNA:156,2,_ZN3fmt3v127fstringIJdRiEEC2IZZNS0_6detail22write_floating_secondsINSt3__16chrono8durationIdNS7_5ratioILl1ELl1000EEEEEEEvRNS0_19basic_memory_bufferIcLm500ENS5_9allocatorIcEEEET_iENKUlvE_clEvE18FMT_COMPILE_STRINGLi0EEERKSI_
FNA:156,9,_ZN3fmt3v127fstringIJdRiEEC2IZZNS0_6detail22write_floating_secondsINSt3__16chrono8durationIdNS7_5ratioILl1ELl1EEEEEEEvRNS0_19basic_memory_bufferIcLm500ENS5_9allocatorIcEEEET_iENKUlvE_clEvE18FMT_COMPILE_STRINGLi0EEERKSI_
FNA:156,1,_ZN3fmt3v127fstringIJdRiEEC2IZZNS0_6detail22write_floating_secondsINSt3__16chrono8durationIdNS7_5ratioILl1ELl3EEEEEEEvRNS0_19basic_memory_bufferIcLm500ENS5_9allocatorIcEEEET_iENKUlvE_clEvE18FMT_COMPILE_STRINGLi0EEERKSI_
FNA:156,0,_ZN3fmt3v127fstringIJfRiEEC1IZZNS0_6detail22write_floating_secondsINSt3__16chrono8durationIfNS7_5ratioILl1000000000000000000ELl1EEEEEEEvRNS0_19basic_memory_bufferIcLm500ENS5_9allocatorIcEEEET_iENKUlvE_clEvE18FMT_COMPILE_STRINGLi0EEERKSI_
FNA:156,0,_ZN3fmt3v127fstringIJfRiEEC1IZZNS0_6detail22write_floating_secondsINSt3__16chrono8durationIfNS7_5ratioILl1ELl1000000000000000000EEEEEEEvRNS0_19basic_memory_bufferIcLm500ENS5_9allocatorIcEEEET_iENKUlvE_clEvE18FMT_COMPILE_STRINGLi0EEERKSI_
FNA:156,1,_ZN3fmt3v127fstringIJfRiEEC1IZZNS0_6detail22write_floating_secondsINSt3__16chrono8durationIfNS7_5ratioILl1ELl1000000000000EEEEEEEvRNS0_19basic_memory_bufferIcLm500ENS5_9allocatorIcEEEET_iENKUlvE_clEvE18FMT_COMPILE_STRINGLi0EEERKSI_
FNA:156,0,_ZN3fmt3v127fstringIJfRiEEC1IZZNS0_6detail22write_floating_secondsINSt3__16chrono8durationIfNS7_5ratioILl1ELl1000EEEEEEEvRNS0_19basic_memory_bufferIcLm500ENS5_9allocatorIcEEEET_iENKUlvE_clEvE18FMT_COMPILE_STRINGLi0EEERKSI_
FNA:156,0,_ZN3fmt3v127fstringIJfRiEEC1IZZNS0_6detail22write_floating_secondsINSt3__16chrono8durationIfNS7_5ratioILl1ELl1EEEEEEEvRNS0_19basic_memory_bufferIcLm500ENS5_9allocatorIcEEEET_iENKUlvE_clEvE18FMT_COMPILE_STRINGLi0EEERKSI_
FNA:156,0,_ZN3fmt3v127fstringIJfRiEEC2IZZNS0_6detail22write_floating_secondsINSt3__16chrono8durationIfNS7_5ratioILl1000000000000000000ELl1EEEEEEEvRNS0_19basic_memory_bufferIcLm500ENS5_9allocatorIcEEEET_iENKUlvE_clEvE18FMT_COMPILE_STRINGLi0EEERKSI_
FNA:156,0,_ZN3fmt3v127fstringIJfRiEEC2IZZNS0_6detail22write_floating_secondsINSt3__16chrono8durationIfNS7_5ratioILl1ELl1000000000000000000EEEEEEEvRNS0_19basic_memory_bufferIcLm500ENS5_9allocatorIcEEEET_iENKUlvE_clEvE18FMT_COMPILE_STRINGLi0EEERKSI_
FNA:156,1,_ZN3fmt3v127fstringIJfRiEEC2IZZNS0_6detail22write_floating_secondsINSt3__16chrono8durationIfNS7_5ratioILl1ELl1000000000000EEEEEEEvRNS0_19basic_memory_bufferIcLm500ENS5_9allocatorIcEEEET_iENKUlvE_clEvE18FMT_COMPILE_STRINGLi0EEERKSI_
FNA:156,0,_ZN3fmt3v127fstringIJfRiEEC2IZZNS0_6detail22write_floating_secondsINSt3__16chrono8durationIfNS7_5ratioILl1ELl1000EEEEEEEvRNS0_19basic_memory_bufferIcLm500ENS5_9allocatorIcEEEET_iENKUlvE_clEvE18FMT_COMPILE_STRINGLi0EEERKSI_
FNA:156,0,_ZN3fmt3v127fstringIJfRiEEC2IZZNS0_6detail22write_floating_secondsINSt3__16chrono8durationIfNS7_5ratioILl1ELl1EEEEEEEvRNS0_19basic_memory_bufferIcLm500ENS5_9allocatorIcEEEET_iENKUlvE_clEvE18FMT_COMPILE_STRINGLi0EEERKSI_
FNA:156,1,_ZN3fmt3v127fstringIJiEEC1IZZ15test_format_apivENK3$_0clEvE18FMT_COMPILE_STRINGLi0EEERKT_
FNA:156,1,_ZN3fmt3v127fstringIJiEEC1IZZ15test_format_apivENK3$_3clEvE18FMT_COMPILE_STRINGLi0EEERKT_
FNA:156,1,_ZN3fmt3v127fstringIJiEEC1IZZ15test_format_apivENK3$_4clEvE18FMT_COMPILE_STRINGLi0EEERKT_
FNA:156,1,_ZN3fmt3v127fstringIJiEEC1IZZN34compile_test_compile_fallback_Test8TestBodyEvENK3$_0clEvE18FMT_COMPILE_STRINGLi0EEERKT_
FNA:156,1,_ZN3fmt3v127fstringIJiEEC1IZZN36format_test_compile_time_string_Test8TestBodyEvENK3$_1clEvE18FMT_COMPILE_STRINGLi0EEERKT_
FNA:156,1,_ZN3fmt3v127fstringIJiEEC1IZZN36format_test_compile_time_string_Test8TestBodyEvENK3$_2clEvE18FMT_COMPILE_STRINGLi0EEERKT_
FNA:156,2,_ZN3fmt3v127fstringIJiEEC1IZZNKS0_9formatterINS0_6detail6bigintEcvE6formatERKS6_RNS0_7contextEENKUlvE1_clEvE18FMT_COMPILE_STRINGLi0EEERKT_
FNA:156,1,_ZN3fmt3v127fstringIJiEEC2IZZ15test_format_apivENK3$_0clEvE18FMT_COMPILE_STRINGLi0EEERKT_
FNA:156,1,_ZN3fmt3v127fstringIJiEEC2IZZ15test_format_apivENK3$_3clEvE18FMT_COMPILE_STRINGLi0EEERKT_
FNA:156,1,_ZN3fmt3v127fstringIJiEEC2IZZ15test_format_apivENK3$_4clEvE18FMT_COMPILE_STRINGLi0EEERKT_
FNA:156,1,_ZN3fmt3v127fstringIJiEEC2IZZN34compile_test_compile_fallback_Test8TestBodyEvENK3$_0clEvE18FMT_COMPILE_STRINGLi0EEERKT_
FNA:156,1,_ZN3fmt3v127fstringIJiEEC2IZZN36format_test_compile_time_string_Test8TestBodyEvENK3$_1clEvE18FMT_COMPILE_STRINGLi0EEERKT_
FNA:156,1,_ZN3fmt3v127fstringIJiEEC2IZZN36format_test_compile_time_string_Test8TestBodyEvENK3$_2clEvE18FMT_COMPILE_STRINGLi0EEERKT_
FNA:156,2,_ZN3fmt3v127fstringIJiEEC2IZZNKS0_9formatterINS0_6detail6bigintEcvE6formatERKS6_RNS0_7contextEENKUlvE1_clEvE18FMT_COMPILE_STRINGLi0EEERKT_
FNA:156,1,_ZN3fmt3v127fstringIJiiiEEC1IZZ15test_text_stylevENK3$_2clEvE18FMT_COMPILE_STRINGLi0EEERKT_
FNA:156,1,_ZN3fmt3v127fstringIJiiiEEC2IZZ15test_text_stylevENK3$_2clEvE18FMT_COMPILE_STRINGLi0EEERKT_
FNL:157,2788,2788
FNA:157,5,_ZN3fmt3v127fstringIJ17basic_test_stringIcEEEC1ENS0_21runtime_format_stringIcEE
FNA:157,5,_ZN3fmt3v127fstringIJ17basic_test_stringIcEEEC2ENS0_21runtime_format_stringIcEE
FNA:157,1,_ZN3fmt3v127fstringIJ4dateEEC1ENS0_21runtime_format_stringIcEE
FNA:157,1,_ZN3fmt3v127fstringIJ4dateEEC2ENS0_21runtime_format_stringIcEE
FNA:157,13,_ZN3fmt3v127fstringIJEEC1ENS0_21runtime_format_stringIcEE
FNA:157,13,_ZN3fmt3v127fstringIJEEC2ENS0_21runtime_format_stringIcEE
FNA:157,1,_ZN3fmt3v127fstringIJNS0_6detail9named_argIciEEiEEC1ENS0_21runtime_format_stringIcEE
FNA:157,1,_ZN3fmt3v127fstringIJNS0_6detail9named_argIciEEiEEC2ENS0_21runtime_format_stringIcEE
FNA:157,1,_ZN3fmt3v127fstringIJNSt3__112basic_stringIcNS2_11char_traitsIcEENS2_9allocatorIcEEEEEEC1ENS0_21runtime_format_stringIcEE
FNA:157,1,_ZN3fmt3v127fstringIJNSt3__112basic_stringIcNS2_11char_traitsIcEENS2_9allocatorIcEEEEEEC2ENS0_21runtime_format_stringIcEE
FNA:157,7,_ZN3fmt3v127fstringIJNSt3__16chrono8durationIxNS2_5ratioILl1ELl1EEEEEEEC1ENS0_21runtime_format_stringIcEE
FNA:157,7,_ZN3fmt3v127fstringIJNSt3__16chrono8durationIxNS2_5ratioILl1ELl1EEEEEEEC2ENS0_21runtime_format_stringIcEE
FNA:157,7,_ZN3fmt3v127fstringIJPvEEC1ENS0_21runtime_format_stringIcEE
FNA:157,7,_ZN3fmt3v127fstringIJPvEEC2ENS0_21runtime_format_stringIcEE
FNA:157,2,_ZN3fmt3v127fstringIJPviEEC1ENS0_21runtime_format_stringIcEE
FNA:157,2,_ZN3fmt3v127fstringIJPviEEC2ENS0_21runtime_format_stringIcEE
FNA:157,20438,_ZN3fmt3v127fstringIJR2tmEEC1ENS0_21runtime_format_stringIcEE
FNA:157,20438,_ZN3fmt3v127fstringIJR2tmEEC2ENS0_21runtime_format_stringIcEE
FNA:157,1,_ZN3fmt3v127fstringIJRA10_KcEEC1ENS0_21runtime_format_stringIcEE
FNA:157,1,_ZN3fmt3v127fstringIJRA10_KcEEC2ENS0_21runtime_format_stringIcEE
FNA:157,1,_ZN3fmt3v127fstringIJRA1_KciEEC1ENS0_21runtime_format_stringIcEE
FNA:157,1,_ZN3fmt3v127fstringIJRA1_KciEEC2ENS0_21runtime_format_stringIcEE
FNA:157,5,_ZN3fmt3v127fstringIJRA4_KcEEC1ENS0_21runtime_format_stringIcEE
FNA:157,5,_ZN3fmt3v127fstringIJRA4_KcEEC2ENS0_21runtime_format_stringIcEE
FNA:157,239,_ZN3fmt3v127fstringIJRA5_KcEEC1ENS0_21runtime_format_stringIcEE
FNA:157,239,_ZN3fmt3v127fstringIJRA5_KcEEC2ENS0_21runtime_format_stringIcEE
FNA:157,240,_ZN3fmt3v127fstringIJRKPvEEC1ENS0_21runtime_format_stringIcEE
FNA:157,240,_ZN3fmt3v127fstringIJRKPvEEC2ENS0_21runtime_format_stringIcEE
FNA:157,234,_ZN3fmt3v127fstringIJRKcEEC1ENS0_21runtime_format_stringIcEE
FNA:157,234,_ZN3fmt3v127fstringIJRKcEEC2ENS0_21runtime_format_stringIcEE
FNA:157,231,_ZN3fmt3v127fstringIJRKdEEC1ENS0_21runtime_format_stringIcEE
FNA:157,231,_ZN3fmt3v127fstringIJRKdEEC2ENS0_21runtime_format_stringIcEE
FNA:157,233,_ZN3fmt3v127fstringIJRKiEEC1ENS0_21runtime_format_stringIcEE
FNA:157,233,_ZN3fmt3v127fstringIJRKiEEC2ENS0_21runtime_format_stringIcEE
FNA:157,1,_ZN3fmt3v127fstringIJRKiS3_S3_S3_S3_S3_S3_S3_S3_S3_S3_S3_S3_S3_S3_EEC1ENS0_21runtime_format_stringIcEE
FNA:157,1,_ZN3fmt3v127fstringIJRKiS3_S3_S3_S3_S3_S3_S3_S3_S3_S3_S3_S3_S3_S3_EEC2ENS0_21runtime_format_stringIcEE
FNA:157,2,_ZN3fmt3v127fstringIJRKiS3_S3_S3_S3_S3_S3_S3_S3_S3_S3_S3_S3_S3_S3_S3_S3_S3_S3_S3_EEC1ENS0_21runtime_format_stringIcEE
FNA:157,2,_ZN3fmt3v127fstringIJRKiS3_S3_S3_S3_S3_S3_S3_S3_S3_S3_S3_S3_S3_S3_S3_S3_S3_S3_S3_EEC2ENS0_21runtime_format_stringIcEE
FNA:157,1,_ZN3fmt3v127fstringIJRKiS3_S3_S3_S3_S3_S3_S3_S3_S3_S3_S3_S3_S3_S3_S3_S3_S3_S3_S3_S3_EEC1ENS0_21runtime_format_stringIcEE
FNA:157,1,_ZN3fmt3v127fstringIJRKiS3_S3_S3_S3_S3_S3_S3_S3_S3_S3_S3_S3_S3_S3_S3_S3_S3_S3_S3_S3_EEC2ENS0_21runtime_format_stringIcEE
FNA:157,2,_ZN3fmt3v127fstringIJRNSt3__16chrono10time_pointINS0_6detail7local_tENS3_8durationIxNS2_5ratioILl1ELl1EEEEEEEEEC1ENS0_21runtime_format_stringIcEE
FNA:157,2,_ZN3fmt3v127fstringIJRNSt3__16chrono10time_pointINS0_6detail7local_tENS3_8durationIxNS2_5ratioILl1ELl1EEEEEEEEEC2ENS0_21runtime_format_stringIcEE
FNA:157,20,_ZN3fmt3v127fstringIJRNSt3__16chrono8durationIxNS2_5ratioILl1ELl1EEEEEEEC1ENS0_21runtime_format_stringIcEE
FNA:157,20,_ZN3fmt3v127fstringIJRNSt3__16chrono8durationIxNS2_5ratioILl1ELl1EEEEEEEC2ENS0_21runtime_format_stringIcEE
FNA:157,6,_ZN3fmt3v127fstringIJRiEEC1ENS0_21runtime_format_stringIcEE
FNA:157,6,_ZN3fmt3v127fstringIJRiEEC2ENS0_21runtime_format_stringIcEE
FNA:157,1,_ZN3fmt3v127fstringIJbEEC1ENS0_21runtime_format_stringIcEE
FNA:157,1,_ZN3fmt3v127fstringIJbEEC2ENS0_21runtime_format_stringIcEE
FNA:157,16,_ZN3fmt3v127fstringIJcEEC1ENS0_21runtime_format_stringIcEE
FNA:157,16,_ZN3fmt3v127fstringIJcEEC2ENS0_21runtime_format_stringIcEE
FNA:157,2,_ZN3fmt3v127fstringIJccEEC1ENS0_21runtime_format_stringIcEE
FNA:157,2,_ZN3fmt3v127fstringIJccEEC2ENS0_21runtime_format_stringIcEE
FNA:157,1,_ZN3fmt3v127fstringIJciEEC1ENS0_21runtime_format_stringIcEE
FNA:157,1,_ZN3fmt3v127fstringIJciEEC2ENS0_21runtime_format_stringIcEE
FNA:157,15,_ZN3fmt3v127fstringIJdEEC1ENS0_21runtime_format_stringIcEE
FNA:157,15,_ZN3fmt3v127fstringIJdEEC2ENS0_21runtime_format_stringIcEE
FNA:157,1,_ZN3fmt3v127fstringIJdcEEC1ENS0_21runtime_format_stringIcEE
FNA:157,1,_ZN3fmt3v127fstringIJdcEEC2ENS0_21runtime_format_stringIcEE
FNA:157,1,_ZN3fmt3v127fstringIJddEEC1ENS0_21runtime_format_stringIcEE
FNA:157,1,_ZN3fmt3v127fstringIJddEEC2ENS0_21runtime_format_stringIcEE
FNA:157,6,_ZN3fmt3v127fstringIJdiEEC1ENS0_21runtime_format_stringIcEE
FNA:157,6,_ZN3fmt3v127fstringIJdiEEC2ENS0_21runtime_format_stringIcEE
FNA:157,1,_ZN3fmt3v127fstringIJdjEEC1ENS0_21runtime_format_stringIcEE
FNA:157,1,_ZN3fmt3v127fstringIJdjEEC2ENS0_21runtime_format_stringIcEE
FNA:157,2,_ZN3fmt3v127fstringIJdlEEC1ENS0_21runtime_format_stringIcEE
FNA:157,2,_ZN3fmt3v127fstringIJdlEEC2ENS0_21runtime_format_stringIcEE
FNA:157,1,_ZN3fmt3v127fstringIJdmEEC1ENS0_21runtime_format_stringIcEE
FNA:157,1,_ZN3fmt3v127fstringIJdmEEC2ENS0_21runtime_format_stringIcEE
FNA:157,17,_ZN3fmt3v127fstringIJiEEC1ENS0_21runtime_format_stringIcEE
FNA:157,17,_ZN3fmt3v127fstringIJiEEC2ENS0_21runtime_format_stringIcEE
FNA:157,1,_ZN3fmt3v127fstringIJicEEC1ENS0_21runtime_format_stringIcEE
FNA:157,1,_ZN3fmt3v127fstringIJicEEC2ENS0_21runtime_format_stringIcEE
FNA:157,1,_ZN3fmt3v127fstringIJidEEC1ENS0_21runtime_format_stringIcEE
FNA:157,1,_ZN3fmt3v127fstringIJidEEC2ENS0_21runtime_format_stringIcEE
FNA:157,4,_ZN3fmt3v127fstringIJiiEEC1ENS0_21runtime_format_stringIcEE
FNA:157,4,_ZN3fmt3v127fstringIJiiEEC2ENS0_21runtime_format_stringIcEE
FNA:157,1,_ZN3fmt3v127fstringIJijEEC1ENS0_21runtime_format_stringIcEE
FNA:157,1,_ZN3fmt3v127fstringIJijEEC2ENS0_21runtime_format_stringIcEE
FNA:157,2,_ZN3fmt3v127fstringIJilEEC1ENS0_21runtime_format_stringIcEE
FNA:157,2,_ZN3fmt3v127fstringIJilEEC2ENS0_21runtime_format_stringIcEE
FNA:157,1,_ZN3fmt3v127fstringIJimEEC1ENS0_21runtime_format_stringIcEE
FNA:157,1,_ZN3fmt3v127fstringIJimEEC2ENS0_21runtime_format_stringIcEE
FNA:157,5,_ZN3fmt3v127fstringIJjEEC1ENS0_21runtime_format_stringIcEE
FNA:157,5,_ZN3fmt3v127fstringIJjEEC2ENS0_21runtime_format_stringIcEE
FNA:157,2,_ZN3fmt3v127fstringIJjiEEC1ENS0_21runtime_format_stringIcEE
FNA:157,2,_ZN3fmt3v127fstringIJjiEEC2ENS0_21runtime_format_stringIcEE
FNA:157,2,_ZN3fmt3v127fstringIJlEEC1ENS0_21runtime_format_stringIcEE
FNA:157,2,_ZN3fmt3v127fstringIJlEEC2ENS0_21runtime_format_stringIcEE
FNA:157,2,_ZN3fmt3v127fstringIJliEEC1ENS0_21runtime_format_stringIcEE
FNA:157,2,_ZN3fmt3v127fstringIJliEEC2ENS0_21runtime_format_stringIcEE
FNA:157,5,_ZN3fmt3v127fstringIJmEEC1ENS0_21runtime_format_stringIcEE
FNA:157,5,_ZN3fmt3v127fstringIJmEEC2ENS0_21runtime_format_stringIcEE
FNA:157,2,_ZN3fmt3v127fstringIJmiEEC1ENS0_21runtime_format_stringIcEE
FNA:157,2,_ZN3fmt3v127fstringIJmiEEC2ENS0_21runtime_format_stringIcEE
FNA:157,2,_ZN3fmt3v127fstringIJxEEC1ENS0_21runtime_format_stringIcEE
FNA:157,2,_ZN3fmt3v127fstringIJxEEC2ENS0_21runtime_format_stringIcEE
FNA:157,2,_ZN3fmt3v127fstringIJxiEEC1ENS0_21runtime_format_stringIcEE
FNA:157,2,_ZN3fmt3v127fstringIJxiEEC2ENS0_21runtime_format_stringIcEE
FNA:157,5,_ZN3fmt3v127fstringIJyEEC1ENS0_21runtime_format_stringIcEE
FNA:157,5,_ZN3fmt3v127fstringIJyEEC2ENS0_21runtime_format_stringIcEE
FNA:157,2,_ZN3fmt3v127fstringIJyiEEC1ENS0_21runtime_format_stringIcEE
FNA:157,2,_ZN3fmt3v127fstringIJyiEEC2ENS0_21runtime_format_stringIcEE
FNL:158,2808
FNA:158,5,_ZN3fmt3v129formatterINS0_17basic_string_viewIcEEcvEC1Ev
FNA:158,71,_ZN3fmt3v129formatterINS0_17basic_string_viewIcEEcvEC2Ev
FNA:158,3,_ZN3fmt3v129formatterINS0_17basic_string_viewIwEEwvEC1Ev
FNA:158,9,_ZN3fmt3v129formatterINS0_17basic_string_viewIwEEwvEC2Ev
FNA:158,4,_ZN3fmt3v129formatterIPKccvEC1Ev
FNA:158,5,_ZN3fmt3v129formatterIPKccvEC2Ev
FNA:158,1,_ZN3fmt3v129formatterIPKvcvEC2Ev
FNA:158,10,_ZN3fmt3v129formatterIbcvEC2Ev
FNA:158,20,_ZN3fmt3v129formatterIccvEC1Ev
FNA:158,20,_ZN3fmt3v129formatterIccvEC2Ev
FNA:158,2,_ZN3fmt3v129formatterIdcvEC1Ev
FNA:158,2,_ZN3fmt3v129formatterIdcvEC2Ev
FNA:158,9,_ZN3fmt3v129formatterIfcvEC1Ev
FNA:158,9,_ZN3fmt3v129formatterIfcvEC2Ev
FNA:158,1,_ZN3fmt3v129formatterIfwvEC1Ev
FNA:158,1,_ZN3fmt3v129formatterIfwvEC2Ev
FNA:158,60,_ZN3fmt3v129formatterIicvEC1Ev
FNA:158,82,_ZN3fmt3v129formatterIicvEC2Ev
FNA:158,3,_ZN3fmt3v129formatterIiwvEC1Ev
FNA:158,3,_ZN3fmt3v129formatterIiwvEC2Ev
FNA:158,1,_ZN3fmt3v129formatterIwwvEC1Ev
FNA:158,1,_ZN3fmt3v129formatterIwwvEC2Ev
FNL:159,2825,2829
FNA:159,1,_ZN3fmt3v1216make_format_argsINS0_15generic_contextINS0_14basic_appenderIwEEwEEJ15streamable_enumELi1ELi0ELy15EEENS0_6detail16format_arg_storeIT_XT1_EXT2_EXT3_EEEDpRT0_
FNA:159,1,_ZN3fmt3v1216make_format_argsINS0_15generic_contextINS0_14basic_appenderIwEEwEEJ17unstreamable_enumELi1ELi0ELy1EEENS0_6detail16format_arg_storeIT_XT1_EXT2_EXT3_EEEDpRT0_
FNA:159,2,_ZN3fmt3v1216make_format_argsINS0_15generic_contextINS0_14basic_appenderIwEEwEEJ2tmELi1ELi0ELy15EEENS0_6detail16format_arg_storeIT_XT1_EXT2_EXT3_EEEDpRT0_
FNA:159,1,_ZN3fmt3v1216make_format_argsINS0_15generic_contextINS0_14basic_appenderIwEEwEEJA3_KwiELi2ELi0ELy28EEENS0_6detail16format_arg_storeIT_XT1_EXT2_EXT3_EEEDpRT0_
FNA:159,1,_ZN3fmt3v1216make_format_argsINS0_15generic_contextINS0_14basic_appenderIwEEwEEJA4_KwELi1ELi0ELy12EEENS0_6detail16format_arg_storeIT_XT1_EXT2_EXT3_EEEDpRT0_
FNA:159,2,_ZN3fmt3v1216make_format_argsINS0_15generic_contextINS0_14basic_appenderIwEEwEEJA6_KwELi1ELi0ELy12EEENS0_6detail16format_arg_storeIT_XT1_EXT2_EXT3_EEEDpRT0_
FNA:159,1,_ZN3fmt3v1216make_format_argsINS0_15generic_contextINS0_14basic_appenderIwEEwEEJELi0ELi0ELy0EEENS0_6detail16format_arg_storeIT_XT1_EXT2_EXT3_EEEDpRT0_
FNA:159,2,_ZN3fmt3v1216make_format_argsINS0_15generic_contextINS0_14basic_appenderIwEEwEEJKiELi1ELi0ELy1EEENS0_6detail16format_arg_storeIT_XT1_EXT2_EXT3_EEEDpRT0_
FNA:159,1,_ZN3fmt3v1216make_format_argsINS0_15generic_contextINS0_14basic_appenderIwEEwEEJN4test22struct_as_wstring_viewEELi1ELi0ELy15EEENS0_6detail16format_arg_storeIT_XT1_EXT2_EXT3_EEEDpRT0_
FNA:159,1,_ZN3fmt3v1216make_format_argsINS0_15generic_contextINS0_14basic_appenderIwEEwEEJNS0_15tuple_join_viewINSt3__15tupleIJwifEEEwEEELi1ELi0ELy15EEENS0_6detail16format_arg_storeIT_XT1_EXT2_EXT3_EEEDpRT0_
FNA:159,1,_ZN3fmt3v1216make_format_argsINS0_15generic_contextINS0_14basic_appenderIwEEwEEJNS0_6detail13streamed_viewI28streamable_and_unformattableEEELi1ELi0ELy15EEENS6_16format_arg_storeIT_XT1_EXT2_EXT3_EEEDpRT0_
FNA:159,1,_ZN3fmt3v1216make_format_argsINS0_15generic_contextINS0_14basic_appenderIwEEwEEJNS0_6detail9named_argIwA5_wEENS7_IwA4_wEENS7_IwiEEELi3ELi3ELy460EEENS6_16format_arg_storeIT_XT1_EXT2_EXT3_EEEDpRT0_
FNA:159,1,_ZN3fmt3v1216make_format_argsINS0_15generic_contextINS0_14basic_appenderIwEEwEEJNS0_6detail9named_argIwRA5_KwEENS7_IwRA4_S8_EENS7_IwiEEELi3ELi3ELy460EEENS6_16format_arg_storeIT_XT1_EXT2_EXT3_EEEDpRT0_
FNA:159,2,_ZN3fmt3v1216make_format_argsINS0_15generic_contextINS0_14basic_appenderIwEEwEEJNS0_7weekdayEELi1ELi0ELy15EEENS0_6detail16format_arg_storeIT_XT1_EXT2_EXT3_EEEDpRT0_
FNA:159,1,_ZN3fmt3v1216make_format_argsINS0_15generic_contextINS0_14basic_appenderIwEEwEEJNS0_9join_viewIPiS7_wEEELi1ELi0ELy15EEENS0_6detail16format_arg_storeIT_XT1_EXT2_EXT3_EEEDpRT0_
FNA:159,1,_ZN3fmt3v1216make_format_argsINS0_15generic_contextINS0_14basic_appenderIwEEwEEJNSt3__112basic_stringIwNS6_11char_traitsIwEENS6_9allocatorIwEEEEELi1ELi0ELy13EEENS0_6detail16format_arg_storeIT_XT1_EXT2_EXT3_EEEDpRT0_
FNA:159,1,_ZN3fmt3v1216make_format_argsINS0_15generic_contextINS0_14basic_appenderIwEEwEEJNSt3__13mapINS6_12basic_stringIwNS6_11char_traitsIwEENS6_9allocatorIwEEEEiNS6_4lessISD_EENSB_INS6_4pairIKSD_iEEEEEEELi1ELi0ELy15EEENS0_6detail16format_arg_storeIT_XT1_EXT2_EXT3_EEEDpRT0_
FNA:159,3,_ZN3fmt3v1216make_format_argsINS0_15generic_contextINS0_14basic_appenderIwEEwEEJNSt3__16bitsetILm6EEEELi1ELi0ELy15EEENS0_6detail16format_arg_storeIT_XT1_EXT2_EXT3_EEEDpRT0_
FNA:159,2,_ZN3fmt3v1216make_format_argsINS0_15generic_contextINS0_14basic_appenderIwEEwEEJNSt3__16chrono8durationIxNS6_5ratioILl1ELl1EEEEEELi1ELi0ELy15EEENS0_6detail16format_arg_storeIT_XT1_EXT2_EXT3_EEEDpRT0_
FNA:159,2,_ZN3fmt3v1216make_format_argsINS0_15generic_contextINS0_14basic_appenderIwEEwEEJNSt3__16vectorINS6_12basic_stringIwNS6_11char_traitsIwEENS6_9allocatorIwEEEENSB_ISD_EEEEELi1ELi0ELy15EEENS0_6detail16format_arg_storeIT_XT1_EXT2_EXT3_EEEDpRT0_
FNA:159,4,_ZN3fmt3v1216make_format_argsINS0_15generic_contextINS0_14basic_appenderIwEEwEEJNSt3__17complexIdEEELi1ELi0ELy15EEENS0_6detail16format_arg_storeIT_XT1_EXT2_EXT3_EEEDpRT0_
FNA:159,1,_ZN3fmt3v1216make_format_argsINS0_15generic_contextINS0_14basic_appenderIwEEwEEJbELi1ELi0ELy7EEENS0_6detail16format_arg_storeIT_XT1_EXT2_EXT3_EEEDpRT0_
FNA:159,2,_ZN3fmt3v1216make_format_argsINS0_15generic_contextINS0_14basic_appenderIwEEwEEJdELi1ELi0ELy10EEENS0_6detail16format_arg_storeIT_XT1_EXT2_EXT3_EEEDpRT0_
FNA:159,17,_ZN3fmt3v1216make_format_argsINS0_15generic_contextINS0_14basic_appenderIwEEwEEJiELi1ELi0ELy1EEENS0_6detail16format_arg_storeIT_XT1_EXT2_EXT3_EEEDpRT0_
FNA:159,1,_ZN3fmt3v1216make_format_argsINS0_15generic_contextINS0_14basic_appenderIwEEwEEJiwELi2ELi0ELy129EEENS0_6detail16format_arg_storeIT_XT1_EXT2_EXT3_EEEDpRT0_
FNA:159,1,_ZN3fmt3v1216make_format_argsINS0_15generic_contextINS0_14basic_appenderIwEEwEEJjELi1ELi0ELy2EEENS0_6detail16format_arg_storeIT_XT1_EXT2_EXT3_EEEDpRT0_
FNA:159,4,_ZN3fmt3v1216make_format_argsINS0_15generic_contextINS0_14basic_appenderIwEEwEEJwELi1ELi0ELy8EEENS0_6detail16format_arg_storeIT_XT1_EXT2_EXT3_EEEDpRT0_
FNA:159,1,_ZN3fmt3v1216make_format_argsINS0_15generic_contextINS0_14basic_appenderIwEEwEEJwwELi2ELi0ELy136EEENS0_6detail16format_arg_storeIT_XT1_EXT2_EXT3_EEEDpRT0_
FNA:159,12,_ZN3fmt3v1216make_format_argsINS0_20basic_printf_contextIcEEJA4_KcELi1ELi0ELy12EEENS0_6detail16format_arg_storeIT_XT1_EXT2_EXT3_EEEDpRT0_
FNA:159,1,_ZN3fmt3v1216make_format_argsINS0_20basic_printf_contextIcEEJA5_KcA4_S4_ELi2ELi0ELy204EEENS0_6detail16format_arg_storeIT_XT1_EXT2_EXT3_EEEDpRT0_
FNA:159,1,_ZN3fmt3v1216make_format_argsINS0_20basic_printf_contextIcEEJA5_KcELi1ELi0ELy12EEENS0_6detail16format_arg_storeIT_XT1_EXT2_EXT3_EEEDpRT0_
FNA:159,2,_ZN3fmt3v1216make_format_argsINS0_20basic_printf_contextIcEEJA7_KcKiELi2ELi0ELy28EEENS0_6detail16format_arg_storeIT_XT1_EXT2_EXT3_EEEDpRT0_
FNA:159,11,_ZN3fmt3v1216make_format_argsINS0_20basic_printf_contextIcEEJELi0ELi0ELy0EEENS0_6detail16format_arg_storeIT_XT1_EXT2_EXT3_EEEDpRT0_
FNA:159,2,_ZN3fmt3v1216make_format_argsINS0_20basic_printf_contextIcEEJK9test_enumELi1ELi0ELy1EEENS0_6detail16format_arg_storeIT_XT1_EXT2_EXT3_EEEDpRT0_
FNA:159,8,_ZN3fmt3v1216make_format_argsINS0_20basic_printf_contextIcEEJKPKcELi1ELi0ELy12EEENS0_6detail16format_arg_storeIT_XT1_EXT2_EXT3_EEEDpRT0_
FNA:159,1,_ZN3fmt3v1216make_format_argsINS0_20basic_printf_contextIcEEJKPKcS6_KiELi3ELi0ELy460EEENS0_6detail16format_arg_storeIT_XT1_EXT2_EXT3_EEEDpRT0_
FNA:159,6,_ZN3fmt3v1216make_format_argsINS0_20basic_printf_contextIcEEJKPvELi1ELi0ELy14EEENS0_6detail16format_arg_storeIT_XT1_EXT2_EXT3_EEEDpRT0_
FNA:159,24,_ZN3fmt3v1216make_format_argsINS0_20basic_printf_contextIcEEJKaELi1ELi0ELy1EEENS0_6detail16format_arg_storeIT_XT1_EXT2_EXT3_EEEDpRT0_
FNA:159,2,_ZN3fmt3v1216make_format_argsINS0_20basic_printf_contextIcEEJKbELi1ELi0ELy7EEENS0_6detail16format_arg_storeIT_XT1_EXT2_EXT3_EEEDpRT0_
FNA:159,1,_ZN3fmt3v1216make_format_argsINS0_20basic_printf_contextIcEEJKcA1_S4_ELi2ELi0ELy200EEENS0_6detail16format_arg_storeIT_XT1_EXT2_EXT3_EEEDpRT0_
FNA:159,50,_ZN3fmt3v1216make_format_argsINS0_20basic_printf_contextIcEEJKcELi1ELi0ELy8EEENS0_6detail16format_arg_storeIT_XT1_EXT2_EXT3_EEEDpRT0_
FNA:159,1,_ZN3fmt3v1216make_format_argsINS0_20basic_printf_contextIcEEJKcS4_S4_ELi3ELi0ELy2184EEENS0_6detail16format_arg_storeIT_XT1_EXT2_EXT3_EEEDpRT0_
FNA:159,66,_ZN3fmt3v1216make_format_argsINS0_20basic_printf_contextIcEEJKdELi1ELi0ELy10EEENS0_6detail16format_arg_storeIT_XT1_EXT2_EXT3_EEEDpRT0_
FNA:159,2,_ZN3fmt3v1216make_format_argsINS0_20basic_printf_contextIcEEJKdKiELi2ELi0ELy26EEENS0_6detail16format_arg_storeIT_XT1_EXT2_EXT3_EEEDpRT0_
FNA:159,4,_ZN3fmt3v1216make_format_argsINS0_20basic_printf_contextIcEEJKeELi1ELi0ELy11EEENS0_6detail16format_arg_storeIT_XT1_EXT2_EXT3_EEEDpRT0_
FNA:159,24,_ZN3fmt3v1216make_format_argsINS0_20basic_printf_contextIcEEJKhELi1ELi0ELy2EEENS0_6detail16format_arg_storeIT_XT1_EXT2_EXT3_EEEDpRT0_
FNA:159,704,_ZN3fmt3v1216make_format_argsINS0_20basic_printf_contextIcEEJKiELi1ELi0ELy1EEENS0_6detail16format_arg_storeIT_XT1_EXT2_EXT3_EEEDpRT0_
FNA:159,1,_ZN3fmt3v1216make_format_argsINS0_20basic_printf_contextIcEEJKiKdELi2ELi0ELy161EEENS0_6detail16format_arg_storeIT_XT1_EXT2_EXT3_EEEDpRT0_
FNA:159,12,_ZN3fmt3v1216make_format_argsINS0_20basic_printf_contextIcEEJKiS4_ELi2ELi0ELy17EEENS0_6detail16format_arg_storeIT_XT1_EXT2_EXT3_EEEDpRT0_
FNA:159,288,_ZN3fmt3v1216make_format_argsINS0_20basic_printf_contextIcEEJKjELi1ELi0ELy2EEENS0_6detail16format_arg_storeIT_XT1_EXT2_EXT3_EEEDpRT0_
FNA:159,2,_ZN3fmt3v1216make_format_argsINS0_20basic_printf_contextIcEEJKjKiELi2ELi0ELy18EEENS0_6detail16format_arg_storeIT_XT1_EXT2_EXT3_EEEDpRT0_
FNA:159,72,_ZN3fmt3v1216make_format_argsINS0_20basic_printf_contextIcEEJKlELi1ELi0ELy3EEENS0_6detail16format_arg_storeIT_XT1_EXT2_EXT3_EEEDpRT0_
FNA:159,48,_ZN3fmt3v1216make_format_argsINS0_20basic_printf_contextIcEEJKmELi1ELi0ELy4EEENS0_6detail16format_arg_storeIT_XT1_EXT2_EXT3_EEEDpRT0_
FNA:159,168,_ZN3fmt3v1216make_format_argsINS0_20basic_printf_contextIcEEJKsELi1ELi0ELy1EEENS0_6detail16format_arg_storeIT_XT1_EXT2_EXT3_EEEDpRT0_
FNA:159,168,_ZN3fmt3v1216make_format_argsINS0_20basic_printf_contextIcEEJKtELi1ELi0ELy2EEENS0_6detail16format_arg_storeIT_XT1_EXT2_EXT3_EEEDpRT0_
FNA:159,470,_ZN3fmt3v1216make_format_argsINS0_20basic_printf_contextIcEEJKxELi1ELi0ELy3EEENS0_6detail16format_arg_storeIT_XT1_EXT2_EXT3_EEEDpRT0_
FNA:159,1,_ZN3fmt3v1216make_format_argsINS0_20basic_printf_contextIcEEJKxKiELi2ELi0ELy19EEENS0_6detail16format_arg_storeIT_XT1_EXT2_EXT3_EEEDpRT0_
FNA:159,312,_ZN3fmt3v1216make_format_argsINS0_20basic_printf_contextIcEEJKyELi1ELi0ELy4EEENS0_6detail16format_arg_storeIT_XT1_EXT2_EXT3_EEEDpRT0_
FNA:159,2,_ZN3fmt3v1216make_format_argsINS0_20basic_printf_contextIcEEJVK9test_enumELi1ELi0ELy1EEENS0_6detail16format_arg_storeIT_XT1_EXT2_EXT3_EEEDpRT0_
FNA:159,1,_ZN3fmt3v1216make_format_argsINS0_20basic_printf_contextIcEEJiA10_KcELi2ELi0ELy193EEENS0_6detail16format_arg_storeIT_XT1_EXT2_EXT3_EEEDpRT0_
FNA:159,1,_ZN3fmt3v1216make_format_argsINS0_20basic_printf_contextIcEEJiELi1ELi0ELy1EEENS0_6detail16format_arg_storeIT_XT1_EXT2_EXT3_EEEDpRT0_
FNA:159,1,_ZN3fmt3v1216make_format_argsINS0_20basic_printf_contextIwEEJiA10_KwELi2ELi0ELy193EEENS0_6detail16format_arg_storeIT_XT1_EXT2_EXT3_EEEDpRT0_
FNA:159,1,_ZN3fmt3v1216make_format_argsINS0_7contextEJA10_KcELi1ELi0ELy12EEENS0_6detail16format_arg_storeIT_XT1_EXT2_EXT3_EEEDpRT0_
FNA:159,2,_ZN3fmt3v1216make_format_argsINS0_7contextEJiELi1ELi0ELy1EEENS0_6detail16format_arg_storeIT_XT1_EXT2_EXT3_EEEDpRT0_
FNL:160,2847,2848
FNA:160,4,_ZN3fmt3v123argIc11custom_typeEENS0_6detail9named_argIT_T0_EEPKS5_RKS6_
FNA:160,1,_ZN3fmt3v123argIcA11_cEENS0_6detail9named_argIT_T0_EEPKS5_RKS6_
FNA:160,1,_ZN3fmt3v123argIcA2_cEENS0_6detail9named_argIT_T0_EEPKS5_RKS6_
FNA:160,2,_ZN3fmt3v123argIcA4_cEENS0_6detail9named_argIT_T0_EEPKS5_RKS6_
FNA:160,1,_ZN3fmt3v123argIcA5_cEENS0_6detail9named_argIT_T0_EEPKS5_RKS6_
FNA:160,2,_ZN3fmt3v123argIcNSt3__112basic_stringIcNS2_11char_traitsIcEENS2_9allocatorIcEEEEEENS0_6detail9named_argIT_T0_EEPKSB_RKSC_
FNA:160,2,_ZN3fmt3v123argIcNSt3__117reference_wrapperIA11_KcEEEENS0_6detail9named_argIT_T0_EEPKS9_RKSA_
FNA:160,2,_ZN3fmt3v123argIcNSt3__117reference_wrapperIA15_KcEEEENS0_6detail9named_argIT_T0_EEPKS9_RKSA_
FNA:160,2,_ZN3fmt3v123argIcNSt3__117reference_wrapperIK11custom_typeEEEENS0_6detail9named_argIT_T0_EEPKS9_RKSA_
FNA:160,1,_ZN3fmt3v123argIccEENS0_6detail9named_argIT_T0_EEPKS4_RKS5_
FNA:160,31,_ZN3fmt3v123argIciEENS0_6detail9named_argIT_T0_EEPKS4_RKS5_
FNA:160,1,_ZN3fmt3v123argIwA4_wEENS0_6detail9named_argIT_T0_EEPKS5_RKS6_
FNA:160,1,_ZN3fmt3v123argIwA5_wEENS0_6detail9named_argIT_T0_EEPKS5_RKS6_
FNA:160,1,_ZN3fmt3v123argIwiEENS0_6detail9named_argIT_T0_EEPKS4_RKS5_
FNL:161,2855,2860
FNA:161,11,_ZN3fmt3v1210vformat_toINS0_14basic_appenderIcEELi0EEENSt3__19remove_cvINS4_16remove_referenceIT_E4typeEE4typeEOS7_NS0_17basic_string_viewIcEENS0_17basic_format_argsINS0_7contextEEE
FNA:161,2,_ZN3fmt3v1210vformat_toINSt3__120back_insert_iteratorINS2_12basic_stringIcNS2_11char_traitsIcEENS2_9allocatorIcEEEEEELi0EEENS2_9remove_cvINS2_16remove_referenceIT_E4typeEE4typeEOSD_NS0_17basic_string_viewIcEENS0_17basic_format_argsINS0_7contextEEE
FNA:161,180,_ZN3fmt3v1210vformat_toIRNS0_14basic_appenderIcEELi0EEENSt3__19remove_cvINS5_16remove_referenceIT_E4typeEE4typeEOS8_NS0_17basic_string_viewIcEENS0_17basic_format_argsINS0_7contextEEE
FNA:161,1,_ZN3fmt3v1210vformat_toIRNSt3__116ostream_iteratorIccNS2_11char_traitsIcEEEELi0EEENS2_9remove_cvINS2_16remove_referenceIT_E4typeEE4typeEOSA_NS0_17basic_string_viewIcEENS0_17basic_format_argsINS0_7contextEEE
FNA:161,1,_ZN3fmt3v1210vformat_toIRNSt3__119ostreambuf_iteratorIcNS2_11char_traitsIcEEEELi0EEENS2_9remove_cvINS2_16remove_referenceIT_E4typeEE4typeEOSA_NS0_17basic_string_viewIcEENS0_17basic_format_argsINS0_7contextEEE
FNA:161,1,_ZN3fmt3v1210vformat_toIRNSt3__120back_insert_iteratorI16custom_containerEELi0EEENS2_9remove_cvINS2_16remove_referenceIT_E4typeEE4typeEOS9_NS0_17basic_string_viewIcEENS0_17basic_format_argsINS0_7contextEEE
FNA:161,1,_ZN3fmt3v1210vformat_toIRNSt3__120back_insert_iteratorI20nongrowing_containerEELi0EEENS2_9remove_cvINS2_16remove_referenceIT_E4typeEE4typeEOS9_NS0_17basic_string_viewIcEENS0_17basic_format_argsINS0_7contextEEE
FNA:161,21,_ZN3fmt3v1210vformat_toIRNSt3__120back_insert_iteratorINS0_19basic_memory_bufferIcLm500ENS0_6detail9allocatorIcEEEEEELi0EEENS2_9remove_cvINS2_16remove_referenceIT_E4typeEE4typeEOSD_NS0_17basic_string_viewIcEENS0_17basic_format_argsINS0_7contextEEE
FNA:161,9,_ZN3fmt3v1210vformat_toIRNSt3__120back_insert_iteratorINS2_12basic_stringIcNS2_11char_traitsIcEENS2_9allocatorIcEEEEEELi0EEENS2_9remove_cvINS2_16remove_referenceIT_E4typeEE4typeEOSE_NS0_17basic_string_viewIcEENS0_17basic_format_argsINS0_7contextEEE
FNA:161,1,_ZN3fmt3v1210vformat_toIRNSt3__120back_insert_iteratorINS2_4listIcNS2_9allocatorIcEEEEEELi0EEENS2_9remove_cvINS2_16remove_referenceIT_E4typeEE4typeEOSC_NS0_17basic_string_viewIcEENS0_17basic_format_argsINS0_7contextEEE
FNA:161,2,_ZN3fmt3v1210vformat_toIRNSt3__120back_insert_iteratorINS2_6vectorIcNS2_9allocatorIcEEEEEELi0EEENS2_9remove_cvINS2_16remove_referenceIT_E4typeEE4typeEOSC_NS0_17basic_string_viewIcEENS0_17basic_format_argsINS0_7contextEEE
FNA:161,2,_ZN3fmt3v1210vformat_toIRZN32format_test_large_precision_Test8TestBodyEvE17throwing_iteratorLi0EEENSt3__19remove_cvINS5_16remove_referenceIT_E4typeEE4typeEOS8_NS0_17basic_string_viewIcEENS0_17basic_format_argsINS0_7contextEEE
FNA:161,1,_ZN3fmt3v1210vformat_toIRZN35base_test_throw_in_buffer_dtor_Test8TestBodyEvE17throwing_iteratorLi0EEENSt3__19remove_cvINS5_16remove_referenceIT_E4typeEE4typeEOS8_NS0_17basic_string_viewIcEENS0_17basic_format_argsINS0_7contextEEE
FNL:162,2875,2877
FNA:162,2,_ZN3fmt3v129format_toINS0_14basic_appenderIcEEJELi0EEENSt3__19remove_cvINS4_16remove_referenceIT_E4typeEE4typeEOS7_NS0_7fstringIJDpT0_EE1tEDpOSE_
FNA:162,1,_ZN3fmt3v129format_toINS0_14basic_appenderIcEEJNSt3__117basic_string_viewIcNS4_11char_traitsIcEEEEELi0EEENS4_9remove_cvINS4_16remove_referenceIT_E4typeEE4typeEOSB_NS0_7fstringIJDpT0_EE1tEDpOSI_
FNA:162,1,_ZN3fmt3v129format_toINS0_14basic_appenderIcEEJRA4_KcELi0EEENSt3__19remove_cvINS7_16remove_referenceIT_E4typeEE4typeEOSA_NS0_7fstringIJDpT0_EE1tEDpOSH_
FNA:162,106,_ZN3fmt3v129format_toINS0_14basic_appenderIcEEJRKiELi0EEENSt3__19remove_cvINS6_16remove_referenceIT_E4typeEE4typeEOS9_NS0_7fstringIJDpT0_EE1tEDpOSG_
FNA:162,1,_ZN3fmt3v129format_toINS0_14basic_appenderIcEEJRiELi0EEENSt3__19remove_cvINS5_16remove_referenceIT_E4typeEE4typeEOS8_NS0_7fstringIJDpT0_EE1tEDpOSF_
FNA:162,0,_ZN3fmt3v129format_toINS0_14basic_appenderIcEEJiELi0EEENSt3__19remove_cvINS4_16remove_referenceIT_E4typeEE4typeEOS7_NS0_7fstringIJDpT0_EE1tEDpOSE_
FNA:162,1,_ZN3fmt3v129format_toINS0_14basic_appenderIcEEJiiiELi0EEENSt3__19remove_cvINS4_16remove_referenceIT_E4typeEE4typeEOS7_NS0_7fstringIJDpT0_EE1tEDpOSE_
FNA:162,1,_ZN3fmt3v129format_toINSt3__116ostream_iteratorIccNS2_11char_traitsIcEEEEJiELi0EEENS2_9remove_cvINS2_16remove_referenceIT_E4typeEE4typeEOS9_NS0_7fstringIJDpT0_EE1tEDpOSG_
FNA:162,1,_ZN3fmt3v129format_toINSt3__119ostreambuf_iteratorIcNS2_11char_traitsIcEEEEJiiELi0EEENS2_9remove_cvINS2_16remove_referenceIT_E4typeEE4typeEOS9_NS0_7fstringIJDpT0_EE1tEDpOSG_
FNA:162,1,_ZN3fmt3v129format_toINSt3__120back_insert_iteratorI16custom_containerEEJELi0EEENS2_9remove_cvINS2_16remove_referenceIT_E4typeEE4typeEOS8_NS0_7fstringIJDpT0_EE1tEDpOSF_
FNA:162,1,_ZN3fmt3v129format_toINSt3__120back_insert_iteratorI20nongrowing_containerEEJiELi0EEENS2_9remove_cvINS2_16remove_referenceIT_E4typeEE4typeEOS8_NS0_7fstringIJDpT0_EE1tEDpOSF_
FNA:162,19,_ZN3fmt3v129format_toINSt3__120back_insert_iteratorINS0_19basic_memory_bufferIcLm500ENS0_6detail9allocatorIcEEEEEEJdRiELi0EEENS2_9remove_cvINS2_16remove_referenceIT_E4typeEE4typeEOSD_NS0_7fstringIJDpT0_EE1tEDpOSK_
FNA:162,1,_ZN3fmt3v129format_toINSt3__120back_insert_iteratorINS0_19basic_memory_bufferIcLm500ENS0_6detail9allocatorIcEEEEEEJfRiELi0EEENS2_9remove_cvINS2_16remove_referenceIT_E4typeEE4typeEOSD_NS0_7fstringIJDpT0_EE1tEDpOSK_
FNA:162,1,_ZN3fmt3v129format_toINSt3__120back_insert_iteratorINS0_19basic_memory_bufferIcLm500ENS0_6detail9allocatorIcEEEEEEJiELi0EEENS2_9remove_cvINS2_16remove_referenceIT_E4typeEE4typeEOSC_NS0_7fstringIJDpT0_EE1tEDpOSJ_
FNA:162,1,_ZN3fmt3v129format_toINSt3__120back_insert_iteratorINS2_12basic_stringIcNS2_11char_traitsIcEENS2_9allocatorIcEEEEEEJ11test_structELi0EEENS2_9remove_cvINS2_16remove_referenceIT_E4typeEE4typeEOSE_NS0_7fstringIJDpT0_EE1tEDpOSL_
FNA:162,1,_ZN3fmt3v129format_toINSt3__120back_insert_iteratorINS2_12basic_stringIcNS2_11char_traitsIcEENS2_9allocatorIcEEEEEEJ20nonconst_formattableELi0EEENS2_9remove_cvINS2_16remove_referenceIT_E4typeEE4typeEOSE_NS0_7fstringIJDpT0_EE1tEDpOSL_
FNA:162,1,_ZN3fmt3v129format_toINSt3__120back_insert_iteratorINS2_12basic_stringIcNS2_11char_traitsIcEENS2_9allocatorIcEEEEEEJ37convertible_to_any_type_with_member_xELi0EEENS2_9remove_cvINS2_16remove_referenceIT_E4typeEE4typeEOSE_NS0_7fstringIJDpT0_EE1tEDpOSL_
FNA:162,1,_ZN3fmt3v129format_toINSt3__120back_insert_iteratorINS2_12basic_stringIcNS2_11char_traitsIcEENS2_9allocatorIcEEEEEEJELi0EEENS2_9remove_cvINS2_16remove_referenceIT_E4typeEE4typeEOSD_NS0_7fstringIJDpT0_EE1tEDpOSK_
FNA:162,1,_ZN3fmt3v129format_toINSt3__120back_insert_iteratorINS2_12basic_stringIcNS2_11char_traitsIcEENS2_9allocatorIcEEEEEEJR2tmELi0EEENS2_9remove_cvINS2_16remove_referenceIT_E4typeEE4typeEOSF_NS0_7fstringIJDpT0_EE1tEDpOSM_
FNA:162,1,_ZN3fmt3v129format_toINSt3__120back_insert_iteratorINS2_12basic_stringIcNS2_11char_traitsIcEENS2_9allocatorIcEEEEEEJRK34convertible_to_pointer_formattableELi0EEENS2_9remove_cvINS2_16remove_referenceIT_E4typeEE4typeEOSG_NS0_7fstringIJDpT0_EE1tEDpOSN_
FNA:162,3,_ZN3fmt3v129format_toINSt3__120back_insert_iteratorINS2_12basic_stringIcNS2_11char_traitsIcEENS2_9allocatorIcEEEEEEJiELi0EEENS2_9remove_cvINS2_16remove_referenceIT_E4typeEE4typeEOSD_NS0_7fstringIJDpT0_EE1tEDpOSK_
FNA:162,1,_ZN3fmt3v129format_toINSt3__120back_insert_iteratorINS2_4listIcNS2_9allocatorIcEEEEEEJiELi0EEENS2_9remove_cvINS2_16remove_referenceIT_E4typeEE4typeEOSB_NS0_7fstringIJDpT0_EE1tEDpOSI_
FNA:162,1,_ZN3fmt3v129format_toINSt3__120back_insert_iteratorINS2_6vectorIcNS2_9allocatorIcEEEEEEJRA4_KcELi0EEENS2_9remove_cvINS2_16remove_referenceIT_E4typeEE4typeEOSE_NS0_7fstringIJDpT0_EE1tEDpOSL_
FNA:162,1,_ZN3fmt3v129format_toINSt3__120back_insert_iteratorINS2_6vectorIcNS2_9allocatorIcEEEEEEJiELi0EEENS2_9remove_cvINS2_16remove_referenceIT_E4typeEE4typeEOSB_NS0_7fstringIJDpT0_EE1tEDpOSI_
FNA:162,1,_ZN3fmt3v129format_toIRNS0_14basic_appenderIcEEJNS0_11nested_viewIdcEES6_ELi0EEENSt3__19remove_cvINS7_16remove_referenceIT_E4typeEE4typeEOSA_NS0_7fstringIJDpT0_EE1tEDpOSH_
FNA:162,6,_ZN3fmt3v129format_toIRNS0_14basic_appenderIcEEJRA7_KcRiELi0EEENSt3__19remove_cvINS9_16remove_referenceIT_E4typeEE4typeEOSC_NS0_7fstringIJDpT0_EE1tEDpOSJ_
FNA:162,3,_ZN3fmt3v129format_toIRNS0_14basic_appenderIcEEJRNS0_17basic_string_viewIcEERA3_KcELi0EEENSt3__19remove_cvINSB_16remove_referenceIT_E4typeEE4typeEOSE_NS0_7fstringIJDpT0_EE1tEDpOSL_
FNA:162,2,_ZN3fmt3v129format_toIRNS0_14basic_appenderIcEEJRiELi0EEENSt3__19remove_cvINS6_16remove_referenceIT_E4typeEE4typeEOS9_NS0_7fstringIJDpT0_EE1tEDpOSG_
FNA:162,54,_ZN3fmt3v129format_toIRNS0_14basic_appenderIcEEJRjELi0EEENSt3__19remove_cvINS6_16remove_referenceIT_E4typeEE4typeEOS9_NS0_7fstringIJDpT0_EE1tEDpOSG_
FNA:162,0,_ZN3fmt3v129format_toIRNS0_14basic_appenderIcEEJRnELi0EEENSt3__19remove_cvINS6_16remove_referenceIT_E4typeEE4typeEOS9_NS0_7fstringIJDpT0_EE1tEDpOSG_
FNA:162,0,_ZN3fmt3v129format_toIRNS0_14basic_appenderIcEEJRoELi0EEENSt3__19remove_cvINS6_16remove_referenceIT_E4typeEE4typeEOS9_NS0_7fstringIJDpT0_EE1tEDpOSG_
FNA:162,0,_ZN3fmt3v129format_toIRNS0_14basic_appenderIcEEJRxELi0EEENSt3__19remove_cvINS6_16remove_referenceIT_E4typeEE4typeEOS9_NS0_7fstringIJDpT0_EE1tEDpOSG_
FNA:162,0,_ZN3fmt3v129format_toIRNS0_14basic_appenderIcEEJRyELi0EEENSt3__19remove_cvINS6_16remove_referenceIT_E4typeEE4typeEOS9_NS0_7fstringIJDpT0_EE1tEDpOSG_
FNA:162,2,_ZN3fmt3v129format_toIRNS0_14basic_appenderIcEEJiELi0EEENSt3__19remove_cvINS5_16remove_referenceIT_E4typeEE4typeEOS8_NS0_7fstringIJDpT0_EE1tEDpOSF_
FNA:162,2,_ZN3fmt3v129format_toIRZN32format_test_large_precision_Test8TestBodyEvE17throwing_iteratorJdiELi0EEENSt3__19remove_cvINS5_16remove_referenceIT_E4typeEE4typeEOS8_NS0_7fstringIJDpT0_EE1tEDpOSF_
FNA:162,1,_ZN3fmt3v129format_toIZN35base_test_throw_in_buffer_dtor_Test8TestBodyEvE17throwing_iteratorJRA1_KciELi0EEENSt3__19remove_cvINS7_16remove_referenceIT_E4typeEE4typeEOSA_NS0_7fstringIJDpT0_EE1tEDpOSH_
FNL:163,2889,2895
FNA:163,1,_ZN3fmt3v1212vformat_to_nI20test_output_iteratorJELi0EEENS0_18format_to_n_resultIT_EES4_mNS0_17basic_string_viewIcEENS0_17basic_format_argsINS0_7contextEEE
FNA:163,19,_ZN3fmt3v1212vformat_to_nIPcJELi0EEENS0_18format_to_n_resultIT_EES4_mNS0_17basic_string_viewIcEENS0_17basic_format_argsINS0_7contextEEE
FNL:164,2905,2907
FNA:164,1,_ZN3fmt3v1211format_to_nI20test_output_iteratorJiELi0EEENS0_18format_to_n_resultIT_EES4_mNS0_7fstringIJDpT0_EE1tEDpOS7_
FNA:164,2,_ZN3fmt3v1211format_to_nIPcJN8fmt_test3abcEELi0EEENS0_18format_to_n_resultIT_EES6_mNS0_7fstringIJDpT0_EE1tEDpOS9_
FNA:164,1,_ZN3fmt3v1211format_to_nIPcJNSt3__112basic_stringIcNS3_11char_traitsIcEENS3_9allocatorIcEEEEELi0EEENS0_18format_to_n_resultIT_EESB_mNS0_7fstringIJDpT0_EE1tEDpOSE_
FNA:164,1,_ZN3fmt3v1211format_to_nIPcJRA6_KcELi0EEENS0_18format_to_n_resultIT_EES7_mNS0_7fstringIJDpT0_EE1tEDpOSA_
FNA:164,1,_ZN3fmt3v1211format_to_nIPcJRA7_KcELi0EEENS0_18format_to_n_resultIT_EES7_mNS0_7fstringIJDpT0_EE1tEDpOSA_
FNA:164,1,_ZN3fmt3v1211format_to_nIPcJcELi0EEENS0_18format_to_n_resultIT_EES4_mNS0_7fstringIJDpT0_EE1tEDpOS7_
FNA:164,1,_ZN3fmt3v1211format_to_nIPcJccELi0EEENS0_18format_to_n_resultIT_EES4_mNS0_7fstringIJDpT0_EE1tEDpOS7_
FNA:164,2,_ZN3fmt3v1211format_to_nIPcJiELi0EEENS0_18format_to_n_resultIT_EES4_mNS0_7fstringIJDpT0_EE1tEDpOS7_
FNL:165,2916,2919
FNA:165,3,_ZNK3fmt3v1216format_to_resultcvPcEv
FNL:166,2931,2935
FNA:166,1,_ZN3fmt3v129format_toILm10EJ6AnswerEEENS0_16format_to_resultERAT__cNS0_7fstringIJDpT0_EE1tEDpOS7_
FNA:166,1,_ZN3fmt3v129format_toILm10EJEEENS0_16format_to_resultERAT__cNS0_7fstringIJDpT0_EE1tEDpOS6_
FNA:166,1,_ZN3fmt3v129format_toILm10EJNSt3__16vectorIiNS2_9allocatorIiEEEEEEENS0_16format_to_resultERAT__cNS0_7fstringIJDpT0_EE1tEDpOSB_
FNA:166,1,_ZN3fmt3v129format_toILm10EJR6AnswerEEENS0_16format_to_resultERAT__cNS0_7fstringIJDpT0_EE1tEDpOS8_
FNA:166,1,_ZN3fmt3v129format_toILm4EJPKcEEENS0_16format_to_resultERAT__cNS0_7fstringIJDpT0_EE1tEDpOS8_
FNA:166,1,_ZN3fmt3v129format_toILm4EJRA6_KcEEENS0_16format_to_resultERAT__cNS0_7fstringIJDpT0_EE1tEDpOS9_
FNA:166,1,_ZN3fmt3v129format_toILm4EJRA7_KcEEENS0_16format_to_resultERAT__cNS0_7fstringIJDpT0_EE1tEDpOS9_
FNA:166,1,_ZN3fmt3v129format_toILm4EJcEEENS0_16format_to_resultERAT__cNS0_7fstringIJDpT0_EE1tEDpOS6_
FNA:166,1,_ZN3fmt3v129format_toILm4EJccEEENS0_16format_to_resultERAT__cNS0_7fstringIJDpT0_EE1tEDpOS6_
FNA:166,1,_ZN3fmt3v129format_toILm4EJiEEENS0_16format_to_resultERAT__cNS0_7fstringIJDpT0_EE1tEDpOS6_
FNL:167,2939,2944
FNA:167,1,_ZN3fmt3v1214formatted_sizeIJiEEEmNS0_7fstringIJDpT_EE1tEDpOS3_
FNL:168,2960,2966
FNA:168,1000,_ZN3fmt3v125printIJEEEvNS0_7fstringIJDpT_EE1tEDpOS3_
FNA:168,1,_ZN3fmt3v125printIJPKcEEEvNS0_7fstringIJDpT_EE1tEDpOS5_
FNA:168,1,_ZN3fmt3v125printIJRA6_KcEEEvNS0_7fstringIJDpT_EE1tEDpOS6_
FNA:168,1,_ZN3fmt3v125printIJdEEEvNS0_7fstringIJDpT_EE1tEDpOS3_
FNL:169,2977,2983
FNA:169,4,_ZN3fmt3v125printIJEEEvP7__sFILENS0_7fstringIJDpT_EE1tEDpOS5_
FNA:169,2,_ZN3fmt3v125printIJNS0_17basic_string_viewIcEEEEEvP7__sFILENS0_7fstringIJDpT_EE1tEDpOS7_
FNA:169,100,_ZN3fmt3v125printIJR12deadlockableEEEvP7__sFILENS0_7fstringIJDpT_EE1tEDpOS7_
FNA:169,1,_ZN3fmt3v125printIJRA6_KcEEEvP7__sFILENS0_7fstringIJDpT_EE1tEDpOS8_
FNA:169,20001,_ZN3fmt3v125printIJRNSt3__112basic_stringIcNS2_11char_traitsIcEENS2_9allocatorIcEEEEEEEvP7__sFILENS0_7fstringIJDpT_EE1tEDpOSD_
FNA:169,1,_ZN3fmt3v125printIJRPKcEEEvP7__sFILENS0_7fstringIJDpT_EE1tEDpOS8_
FNA:169,1,_ZN3fmt3v125printIJRmEEEvP7__sFILENS0_7fstringIJDpT_EE1tEDpOS6_
FNA:169,1,_ZN3fmt3v125printIJiEEEvP7__sFILENS0_7fstringIJDpT_EE1tEDpOS5_
FNL:170,2988,2993
FNA:170,2,_ZN3fmt3v127printlnIJRA6_KcEEEvP7__sFILENS0_7fstringIJDpT_EE1tEDpOS8_
FNL:171,2998,2999
FNA:171,1,_ZN3fmt3v127printlnIJRA6_KcEEEvNS0_7fstringIJDpT_EE1tEDpOS6_
FNL:172,334,334
FNA:172,96068,_ZN3fmt3v129monostateC1Ev
FNA:172,96068,_ZN3fmt3v129monostateC2Ev
FNL:173,346,347
FNA:173,2661,_ZN3fmt3v126min_ofIiEET_S2_S2_
FNA:173,80071,_ZN3fmt3v126min_ofImEET_S2_S2_
FNL:174,349,350
FNA:174,191,_ZN3fmt3v126max_ofIiEET_S2_S2_
FNA:174,1,_ZN3fmt3v126max_ofImEET_S2_S2_
FNL:175,360,360
FNA:175,2,_ZN3fmt3v126detail13ignore_unusedIJA1_iEEEvDpRKT_
FNA:175,0,_ZN3fmt3v126detail13ignore_unusedIJA2_iEEEvDpRKT_
FNA:175,23,_ZN3fmt3v126detail13ignore_unusedIJA3_iEEEvDpRKT_
FNA:175,4,_ZN3fmt3v126detail13ignore_unusedIJA5_iEEEvDpRKT_
FNA:175,8,_ZN3fmt3v126detail13ignore_unusedIJNS0_10locale_refEEEEvDpRKT_
FNA:175,125,_ZN3fmt3v126detail13ignore_unusedIJNS0_17basic_string_viewIcEEEEEvDpRKT_
FNA:175,6,_ZN3fmt3v126detail13ignore_unusedIJNS0_17basic_string_viewIwEEEEEvDpRKT_
FNA:175,3,_ZN3fmt3v126detail13ignore_unusedIJP7__sFILEEEEvDpRKT_
FNA:175,1,_ZN3fmt3v126detail13ignore_unusedIJZN39base_test_format_context_accessors_Test8TestBodyEvE3$_0EEEvDpRKT_
FNA:175,2,_ZN3fmt3v126detail13ignore_unusedIJbA13_cEEEvDpRKT_
FNA:175,603326,_ZN3fmt3v126detail13ignore_unusedIJbA15_cEEEvDpRKT_
FNA:175,8288,_ZN3fmt3v126detail13ignore_unusedIJbA18_cEEEvDpRKT_
FNA:175,4770,_ZN3fmt3v126detail13ignore_unusedIJbA19_cEEEvDpRKT_
FNA:175,212677,_ZN3fmt3v126detail13ignore_unusedIJbA1_cEEEvDpRKT_
FNA:175,65134,_ZN3fmt3v126detail13ignore_unusedIJbA20_cEEEvDpRKT_
FNA:175,33,_ZN3fmt3v126detail13ignore_unusedIJbA22_cEEEvDpRKT_
FNA:175,2,_ZN3fmt3v126detail13ignore_unusedIJbA29_cEEEvDpRKT_
FNA:175,13,_ZN3fmt3v126detail13ignore_unusedIJbA37_cEEEvDpRKT_
FNA:175,21,_ZN3fmt3v126detail13ignore_unusedIJbA39_cEEEvDpRKT_
FNA:175,1,_ZN3fmt3v126detail13ignore_unusedIJbA49_cEEEvDpRKT_
FNA:175,206,_ZN3fmt3v126detail13ignore_unusedIJbEEEvDpRKT_
FNA:175,130,_ZN3fmt3v126detail13ignore_unusedIJiEEEvDpRKT_
FNL:176,379,380
FNA:176,320,_ZN3fmt3v126detail11const_checkIbEET_S3_
FNA:176,2,_ZN3fmt3v126detail11const_checkIiEET_S3_
FNL:177,406,406
FNA:177,19,_ZN3fmt3v126detail3mapEn
FNL:178,407,407
FNA:178,6,_ZN3fmt3v126detail3mapEo
FNL:179,438,440
FNA:179,2,_ZN3fmt3v126detail11to_unsignedIaEENSt3__113make_unsignedIT_E4typeES5_
FNA:179,5,_ZN3fmt3v126detail11to_unsignedIcEENSt3__113make_unsignedIT_E4typeES5_
FNA:179,215514,_ZN3fmt3v126detail11to_unsignedIiEENSt3__113make_unsignedIT_E4typeES5_
FNA:179,0,_ZN3fmt3v126detail11to_unsignedIjEENSt3__113make_unsignedIT_E4typeES5_
FNA:179,356537,_ZN3fmt3v126detail11to_unsignedIlEENSt3__113make_unsignedIT_E4typeES5_
FNA:179,33,_ZN3fmt3v126detail11to_unsignedImEENSt3__113make_unsignedIT_E4typeES5_
FNA:179,2,_ZN3fmt3v126detail11to_unsignedIsEENSt3__113make_unsignedIT_E4typeES5_
FNA:179,41045,_ZN3fmt3v126detail11to_unsignedIxEENSt3__113make_unsignedIT_E4typeES5_
FNL:180,468,469
FNA:180,9786,_ZN3fmt3v126detail6narrowEPKc
FNL:181,473,480
FNA:181,319,_ZN3fmt3v126detail7compareIcEEiPKT_S5_m
FNA:181,23,_ZN3fmt3v126detail7compareIwEEiPKT_S5_m
FNL:182,501,501
FNA:182,459723,_ZN3fmt3v126detail13get_containerINS0_14basic_appenderIcEEEERNT_14container_typeES5_
FNA:182,313,_ZN3fmt3v126detail13get_containerINS0_14basic_appenderIwEEEERNT_14container_typeES5_
FNA:182,1,_ZN3fmt3v126detail13get_containerINSt3__120back_insert_iteratorI11mock_bufferIcEEEEERNT_14container_typeES8_
FNA:182,1,_ZN3fmt3v126detail13get_containerINSt3__120back_insert_iteratorI16custom_containerEEEERNT_14container_typeES7_
FNA:182,23,_ZN3fmt3v126detail13get_containerINSt3__120back_insert_iteratorINS0_19basic_memory_bufferIcLm500ENS1_9allocatorIcEEEEEEEERNT_14container_typeESA_
FNA:182,13,_ZN3fmt3v126detail13get_containerINSt3__120back_insert_iteratorINS3_12basic_stringIcNS3_11char_traitsIcEENS3_9allocatorIcEEEEEEEERNT_14container_typeESC_
FNA:182,2,_ZN3fmt3v126detail13get_containerINSt3__120back_insert_iteratorINS3_12basic_stringIwNS3_11char_traitsIwEENS3_9allocatorIwEEEEEEEERNT_14container_typeESC_
FNL:183,504,507
FNA:183,459723,_ZZN3fmt3v126detail13get_containerINS0_14basic_appenderIcEEEERNT_14container_typeES5_EN8accessorC1ES4_
FNA:183,459723,_ZZN3fmt3v126detail13get_containerINS0_14basic_appenderIcEEEERNT_14container_typeES5_EN8accessorC2ES4_
FNA:183,313,_ZZN3fmt3v126detail13get_containerINS0_14basic_appenderIwEEEERNT_14container_typeES5_EN8accessorC1ES4_
FNA:183,313,_ZZN3fmt3v126detail13get_containerINS0_14basic_appenderIwEEEERNT_14container_typeES5_EN8accessorC2ES4_
FNA:183,1,_ZZN3fmt3v126detail13get_containerINSt3__120back_insert_iteratorI11mock_bufferIcEEEEERNT_14container_typeES8_EN8accessorC1ES7_
FNA:183,1,_ZZN3fmt3v126detail13get_containerINSt3__120back_insert_iteratorI11mock_bufferIcEEEEERNT_14container_typeES8_EN8accessorC2ES7_
FNA:183,1,_ZZN3fmt3v126detail13get_containerINSt3__120back_insert_iteratorI16custom_containerEEEERNT_14container_typeES7_EN8accessorC1ES6_
FNA:183,1,_ZZN3fmt3v126detail13get_containerINSt3__120back_insert_iteratorI16custom_containerEEEERNT_14container_typeES7_EN8accessorC2ES6_
FNA:183,23,_ZZN3fmt3v126detail13get_containerINSt3__120back_insert_iteratorINS0_19basic_memory_bufferIcLm500ENS1_9allocatorIcEEEEEEEERNT_14container_typeESA_EN8accessorC1ES9_
FNA:183,23,_ZZN3fmt3v126detail13get_containerINSt3__120back_insert_iteratorINS0_19basic_memory_bufferIcLm500ENS1_9allocatorIcEEEEEEEERNT_14container_typeESA_EN8accessorC2ES9_
FNA:183,13,_ZZN3fmt3v126detail13get_containerINSt3__120back_insert_iteratorINS3_12basic_stringIcNS3_11char_traitsIcEENS3_9allocatorIcEEEEEEEERNT_14container_typeESC_EN8accessorC1ESB_
FNA:183,13,_ZZN3fmt3v126detail13get_containerINSt3__120back_insert_iteratorINS3_12basic_stringIcNS3_11char_traitsIcEENS3_9allocatorIcEEEEEEEERNT_14container_typeESC_EN8accessorC2ESB_
FNA:183,2,_ZZN3fmt3v126detail13get_containerINSt3__120back_insert_iteratorINS3_12basic_stringIwNS3_11char_traitsIwEENS3_9allocatorIwEEEEEEEERNT_14container_typeESC_EN8accessorC1ESB_
FNA:183,2,_ZZN3fmt3v126detail13get_containerINSt3__120back_insert_iteratorINS3_12basic_stringIwNS3_11char_traitsIwEENS3_9allocatorIwEEEEEEEERNT_14container_typeESC_EN8accessorC2ESB_
FNL:184,530,530
FNA:184,587,_ZN3fmt3v1217basic_string_viewIcEC1Ev
FNA:184,587,_ZN3fmt3v1217basic_string_viewIcEC2Ev
FNA:184,15,_ZN3fmt3v1217basic_string_viewIwEC1Ev
FNA:184,15,_ZN3fmt3v1217basic_string_viewIwEC2Ev
FNL:185,533,534
FNA:185,5,_ZN3fmt3v1217basic_string_viewIDiEC1EPKDim
FNA:185,5,_ZN3fmt3v1217basic_string_viewIDiEC2EPKDim
FNA:185,177018,_ZN3fmt3v1217basic_string_viewIcEC1EPKcm
FNA:185,177018,_ZN3fmt3v1217basic_string_viewIcEC2EPKcm
FNA:185,58,_ZN3fmt3v1217basic_string_viewIwEC1EPKwm
FNA:185,58,_ZN3fmt3v1217basic_string_viewIwEC2EPKwm
FNL:186,542,552
FNA:186,9786,_ZN3fmt3v1217basic_string_viewIcEC1EPKc
FNA:186,9786,_ZN3fmt3v1217basic_string_viewIcEC2EPKc
FNA:186,98,_ZN3fmt3v1217basic_string_viewIwEC1EPKw
FNA:186,98,_ZN3fmt3v1217basic_string_viewIwEC2EPKw
FNL:187,559,560
FNA:187,64365,_ZN3fmt3v1217basic_string_viewIcEC1INSt3__112basic_stringIcNS4_11char_traitsIcEENS4_9allocatorIcEEEELi0EEERKT_
FNA:187,4,_ZN3fmt3v1217basic_string_viewIcEC1INSt3__117basic_string_viewIcNS4_11char_traitsIcEEEELi0EEERKT_
FNA:187,64365,_ZN3fmt3v1217basic_string_viewIcEC2INSt3__112basic_stringIcNS4_11char_traitsIcEENS4_9allocatorIcEEEELi0EEERKT_
FNA:187,4,_ZN3fmt3v1217basic_string_viewIcEC2INSt3__117basic_string_viewIcNS4_11char_traitsIcEEEELi0EEERKT_
FNA:187,5,_ZN3fmt3v1217basic_string_viewIwEC1INSt3__112basic_stringIwNS4_11char_traitsIwEENS4_9allocatorIwEEEELi0EEERKT_
FNA:187,5,_ZN3fmt3v1217basic_string_viewIwEC2INSt3__112basic_stringIwNS4_11char_traitsIwEENS4_9allocatorIwEEEELi0EEERKT_
FNL:188,563,563
FNA:188,137749,_ZNK3fmt3v1217basic_string_viewIcE4dataEv
FNA:188,76,_ZNK3fmt3v1217basic_string_viewIwE4dataEv
FNL:189,566,566
FNA:189,226045,_ZNK3fmt3v1217basic_string_viewIcE4sizeEv
FNA:189,80,_ZNK3fmt3v1217basic_string_viewIwE4sizeEv
FNL:190,568,568
FNA:190,5,_ZNK3fmt3v1217basic_string_viewIDiE5beginEv
FNA:190,177484,_ZNK3fmt3v1217basic_string_viewIcE5beginEv
FNA:190,126,_ZNK3fmt3v1217basic_string_viewIwE5beginEv
FNL:191,569,569
FNA:191,25,_ZNK3fmt3v1217basic_string_viewIDiE3endEv
FNA:191,113998,_ZNK3fmt3v1217basic_string_viewIcE3endEv
FNA:191,74,_ZNK3fmt3v1217basic_string_viewIwE3endEv
FNL:192,571,572
FNA:192,296,_ZNK3fmt3v1217basic_string_viewIcEixEm
FNA:192,4,_ZNK3fmt3v1217basic_string_viewIwEixEm
FNL:193,575,578
FNA:193,42228,_ZN3fmt3v1217basic_string_viewIcE13remove_prefixEm
FNA:193,31,_ZN3fmt3v1217basic_string_viewIwE13remove_prefixEm
FNL:194,580,582
FNA:194,9,_ZNK3fmt3v1217basic_string_viewIcE11starts_withES2_
FNL:195,584,585
FNA:195,3,_ZNK3fmt3v1217basic_string_viewIcE11starts_withEc
FNL:196,587,588
FNA:196,9,_ZNK3fmt3v1217basic_string_viewIcE11starts_withEPKc
FNL:197,591,596
FNA:197,312,_ZNK3fmt3v1217basic_string_viewIcE7compareES2_
FNA:197,23,_ZNK3fmt3v1217basic_string_viewIwE7compareES2_
FNL:198,598,600
FNA:198,208,_ZN3fmt3v12eqENS0_17basic_string_viewIcEES2_
FNA:198,23,_ZN3fmt3v12eqENS0_17basic_string_viewIwEES2_
FNL:199,602,603
FNA:199,9,_ZN3fmt3v12neENS0_17basic_string_viewIcEES2_
FNL:200,605,606
FNA:200,9,_ZN3fmt3v12ltENS0_17basic_string_viewIcEES2_
FNL:201,608,609
FNA:201,9,_ZN3fmt3v12leENS0_17basic_string_viewIcEES2_
FNL:202,611,612
FNA:202,9,_ZN3fmt3v12gtENS0_17basic_string_viewIcEES2_
FNL:203,614,615
FNA:203,9,_ZN3fmt3v12geENS0_17basic_string_viewIcEES2_
FNL:204,692,735
FNA:204,7,_ZN3fmt3v1211basic_specsC1Ev
FNA:204,26692,_ZN3fmt3v1211basic_specsC2Ev
FNL:205,737,740
FNA:205,273,_ZN3fmt3v1211basic_specs13set_fill_sizeEm
FNL:206,743,744
FNA:206,29182,_ZNK3fmt3v1211basic_specs4typeEv
FNL:207,746,748
FNA:207,2882,_ZN3fmt3v1211basic_specs8set_typeENS0_17presentation_typeE
FNL:208,750,751
FNA:208,1698,_ZNK3fmt3v1211basic_specs5alignEv
FNL:209,753,755
FNA:209,23648,_ZN3fmt3v1211basic_specs9set_alignENS0_5alignE
FNL:210,757,758
FNA:210,20990,_ZNK3fmt3v1211basic_specs13dynamic_widthEv
FNL:211,760,762
FNA:211,1465,_ZN3fmt3v1211basic_specs17set_dynamic_widthENS0_11arg_id_kindE
FNL:212,764,765
FNA:212,238,_ZNK3fmt3v1211basic_specs17dynamic_precisionEv
FNL:213,768,771
FNA:213,170,_ZN3fmt3v1211basic_specs21set_dynamic_precisionENS0_11arg_id_kindE
FNL:214,773,774
FNA:214,952,_ZNK3fmt3v1211basic_specs7dynamicEv
FNL:215,777,778
FNA:215,3238,_ZNK3fmt3v1211basic_specs4signEv
FNL:216,780,782
FNA:216,166,_ZN3fmt3v1211basic_specs8set_signENS0_4signE
FNL:217,784,784
FNA:217,1073,_ZNK3fmt3v1211basic_specs5upperEv
FNL:218,785,785
FNA:218,434,_ZN3fmt3v1211basic_specs9set_upperEv
FNL:219,787,787
FNA:219,4440,_ZNK3fmt3v1211basic_specs3altEv
FNL:220,788,788
FNA:220,215,_ZN3fmt3v1211basic_specs7set_altEv
FNL:221,789,789
FNA:221,30,_ZN3fmt3v1211basic_specs9clear_altEv
FNL:222,791,792
FNA:222,24562,_ZNK3fmt3v1211basic_specs9localizedEv
FNL:223,794,794
FNA:223,47,_ZN3fmt3v1211basic_specs13set_localizedEv
FNL:224,796,797
FNA:224,1322,_ZNK3fmt3v1211basic_specs9fill_sizeEv
FNL:225,801,802
FNA:225,1,_ZNK3fmt3v1211basic_specs4fillIcLi0EEEPKT_v
FNL:226,805,806
FNA:226,0,_ZNK3fmt3v1211basic_specs4fillIwLi0EEEPKT_v
FNL:227,809,813
FNA:227,2836,_ZNK3fmt3v1211basic_specs9fill_unitIcEET_v
FNA:227,8,_ZNK3fmt3v1211basic_specs9fill_unitIwEET_v
FNL:228,816,819
FNA:228,201,_ZN3fmt3v1211basic_specs8set_fillEc
FNL:229,822,835
FNA:229,55,_ZN3fmt3v1211basic_specs8set_fillIcEEvNS0_17basic_string_viewIT_EE
FNA:229,4,_ZN3fmt3v1211basic_specs8set_fillIwEEvNS0_17basic_string_viewIT_EE
FNL:230,837,841
FNA:230,13,_ZN3fmt3v1211basic_specs14copy_fill_fromERKS1_
FNL:231,849,849
FNA:231,24641,_ZN3fmt3v1212format_specsC1Ev
FNA:231,26685,_ZN3fmt3v1212format_specsC2Ev
FNL:232,869,871
FNA:232,69425,_ZN3fmt3v1213parse_contextIcEC1ENS0_17basic_string_viewIcEEi
FNA:232,69425,_ZN3fmt3v1213parse_contextIcEC2ENS0_17basic_string_viewIcEEi
FNA:232,73,_ZN3fmt3v1213parse_contextIwEC1ENS0_17basic_string_viewIwEEi
FNA:232,73,_ZN3fmt3v1213parse_contextIwEC2ENS0_17basic_string_viewIwEEi
FNL:233,875,875
FNA:233,87282,_ZNK3fmt3v1213parse_contextIcE5beginEv
FNA:233,86,_ZNK3fmt3v1213parse_contextIwE5beginEv
FNL:234,878,878
FNA:234,23770,_ZNK3fmt3v1213parse_contextIcE3endEv
FNA:234,30,_ZNK3fmt3v1213parse_contextIwE3endEv
FNL:235,881,883
FNA:235,42224,_ZN3fmt3v1213parse_contextIcE10advance_toEPKc
FNA:235,31,_ZN3fmt3v1213parse_contextIwE10advance_toEPKw
FNL:236,887,895
FNA:236,65324,_ZN3fmt3v1213parse_contextIcE11next_arg_idEv
FNA:236,60,_ZN3fmt3v1213parse_contextIwE11next_arg_idEv
FNL:237,899,906
FNA:237,2865,_ZN3fmt3v1213parse_contextIcE12check_arg_idEi
FNA:237,1,_ZN3fmt3v1213parse_contextIwE12check_arg_idEi
FNL:238,907,909
FNA:238,32,_ZN3fmt3v1213parse_contextIcE12check_arg_idENS0_17basic_string_viewIcEE
FNA:238,8,_ZN3fmt3v1213parse_contextIwE12check_arg_idENS0_17basic_string_viewIwEE
FNL:239,924,924
FNA:239,117094,_ZN3fmt3v1210locale_refC1Ev
FNA:239,117094,_ZN3fmt3v1210locale_refC2Ev
FNL:240,927,930
FNA:240,46,_ZN3fmt3v1210locale_refC1INSt3__16localeELi0EEERKT_
FNA:240,46,_ZN3fmt3v1210locale_refC2INSt3__16localeELi0EEERKT_
FNL:241,932,932
FNA:241,20733,_ZNK3fmt3v1210locale_refcvbEv
FNL:242,957,958
FNA:242,10,_ZN3fmt3v126detail14to_string_viewIwLi0EEENS0_17basic_string_viewIT_EEPKS4_
FNL:243,961,963
FNA:243,40456,_ZN3fmt3v126detail14to_string_viewINSt3__112basic_stringIcNS3_11char_traitsIcEENS3_9allocatorIcEEEELi0EEENS0_17basic_string_viewINT_10value_typeEEERKSB_
FNA:243,1,_ZN3fmt3v126detail14to_string_viewINSt3__112basic_stringIwNS3_11char_traitsIwEENS3_9allocatorIwEEEELi0EEENS0_17basic_string_viewINT_10value_typeEEERKSB_
FNA:243,2,_ZN3fmt3v126detail14to_string_viewINSt3__117basic_string_viewIcNS3_11char_traitsIcEEEELi0EEENS0_17basic_string_viewINT_10value_typeEEERKS9_
FNL:244,966,968
FNA:244,16,_ZN3fmt3v126detail14to_string_viewIcEENS0_17basic_string_viewIT_EES5_
FNA:244,10,_ZN3fmt3v126detail14to_string_viewIwEENS0_17basic_string_viewIT_EES5_
FNF:245
FNH:243
DA:334,192136
DA:346,82732
DA:347,82732
DA:349,192
DA:350,192
DA:360,894775
DA:379,322
DA:380,322
DA:406,19
DA:407,6
DA:438,613138
DA:439,613138
DA:440,613138
DA:468,9786
DA:469,9786
DA:473,342
DA:474,319
DA:475,77
DA:476,66
DA:477,54
DA:478,54
DA:479,11
DA:480,23
DA:501,460076
DA:504,920152
DA:507,460076
DA:530,1204
DA:533,354162
DA:534,354162
DA:542,19768
DA:545,9786
DA:546,9786
DA:549,98
DA:550,585
DA:551,98
DA:552,9982
DA:559,128748
DA:560,128748
DA:563,137825
DA:566,226125
DA:568,177615
DA:569,114097
DA:571,300
DA:572,300
DA:575,42259
DA:576,42259
DA:577,42259
DA:578,42259
DA:580,9
DA:582,9
DA:584,3
DA:585,3
DA:587,9
DA:588,9
DA:591,335
DA:592,670
DA:593,335
DA:594,335
DA:595,148
DA:596,335
DA:598,231
DA:600,231
DA:602,9
DA:603,9
DA:605,9
DA:606,9
DA:608,9
DA:609,9
DA:611,9
DA:612,9
DA:614,9
DA:615,9
DA:692,26692
DA:731,26692
DA:735,26692
DA:737,273
DA:738,546
DA:739,273
DA:740,273
DA:743,29182
DA:744,29182
DA:746,2882
DA:747,2882
DA:748,2882
DA:750,1698
DA:751,1698
DA:753,23648
DA:754,23648
DA:755,23648
DA:757,20990
DA:758,20990
DA:760,1465
DA:761,1465
DA:762,1465
DA:764,238
DA:765,238
DA:768,170
DA:769,340
DA:770,170
DA:771,170
DA:773,952
DA:774,952
DA:777,3238
DA:778,3238
DA:780,166
DA:781,166
DA:782,166
DA:784,1073
DA:785,434
DA:787,4440
DA:788,215
DA:789,30
DA:791,24562
DA:792,24562
DA:794,47
DA:796,1322
DA:797,1322
DA:801,1
DA:802,1
DA:805,0
DA:806,0
DA:809,2844
DA:811,8532
DA:812,5688
DA:813,2844
DA:816,201
DA:817,201
DA:818,201
DA:819,201
DA:822,59
DA:823,59
DA:824,59
DA:825,59
DA:826,58
DA:827,58
DA:828,58
DA:829,58
DA:831,58
DA:832,1
DA:833,3
DA:834,2
DA:835,59
DA:837,13
DA:838,13
DA:839,65
DA:840,52
DA:841,13
DA:849,51326
DA:869,138996
DA:871,138996
DA:875,87368
DA:878,23800
DA:881,42255
DA:882,42255
DA:883,42255
DA:887,65384
DA:888,65384
DA:889,7
DA:892,65377
DA:893,65377
DA:894,130754
DA:895,65377
DA:899,2866
DA:900,2866
DA:901,5
DA:904,2861
DA:905,2861
DA:906,2861
DA:907,40
DA:908,40
DA:909,40
DA:924,234188
DA:927,92
DA:929,46
DA:930,92
DA:932,20733
DA:957,10
DA:958,10
DA:961,40459
DA:963,40459
DA:966,26
DA:968,26
DA:1031,2514
DA:1032,2514
DA:1034,218
DA:1035,218
DA:1039,3084
DA:1040,3084
DA:1076,118
DA:1099,41
DA:1102,177
DA:1103,137
DA:1104,136
DA:1105,40
DA:1108,4
DA:1109,4
DA:1110,4
DA:1112,41
DA:1114,41
DA:1115,41
DA:1116,41
DA:1174,2
DA:1175,2
DA:1289,50698
DA:1290,8
DA:1306,48135
DA:1307,48135
DA:1312,22025
DA:1313,8
DA:1314,22017
DA:1315,44034
DA:1316,22017
DA:1321,2995
DA:1323,2995
DA:1324,2995
DA:1325,2995
DA:1326,2995
DA:1327,4521
DA:1328,4521
DA:1329,4521
DA:1330,4521
DA:1331,2995
DA:1332,2995
DA:1333,2995
DA:1334,2995
DA:1336,29
DA:1337,29
DA:1338,28
DA:1339,4
DA:1340,25
DA:1341,2995
DA:1343,2744
DA:1344,2744
DA:1345,64
DA:1346,52
DA:1347,36
DA:1349,2592
DA:1350,2744
DA:1352,199
DA:1353,199
DA:1357,1680
DA:1359,1680
DA:1360,1680
DA:1361,1637
DA:1362,1637
DA:1363,68
DA:1365,1569
DA:1366,1637
DA:1367,7
DA:1369,1630
DA:1370,1630
DA:1371,1630
DA:1372,43
DA:1373,3
DA:1376,40
DA:1377,40
DA:1378,156
DA:1379,196
DA:1380,40
DA:1381,40
DA:1382,1670
DA:1389,48
DA:1390,48
DA:1391,48
DA:1392,48
DA:1393,48
DA:1394,48
DA:1395,4
DA:1396,4
DA:1397,4
DA:1398,4
DA:1399,4
DA:1409,1657
DA:1413,1657
DA:1414,1657
DA:1415,1657
DA:1416,1536
DA:1417,1536
DA:1418,1530
DA:1419,1530
DA:1420,121
DA:1421,119
DA:1422,119
DA:1423,114
DA:1424,114
DA:1425,58
DA:1426,58
DA:1427,58
DA:1428,58
DA:1429,58
DA:1430,112
DA:1431,56
DA:1433,114
DA:1434,119
DA:1435,4
DA:1436,6
DA:1438,1530
DA:1439,1635
DA:1442,1472
DA:1445,1472
DA:1446,1472
DA:1447,2944
DA:1448,1472
DA:1451,183
DA:1455,183
DA:1456,183
DA:1457,1
DA:1460,182
DA:1461,182
DA:1462,182
DA:1463,364
DA:1464,182
DA:1470,1846
DA:1474,1846
DA:1475,1846
DA:1476,1833
DA:1477,1833
DA:1478,1833
DA:1479,13
DA:1480,11
DA:1483,3688
DA:1484,1844
DA:1485,2827
DA:1486,2827
DA:1487,896
DA:1488,1931
DA:1489,1931
DA:1490,1844
DA:1493,1844
DA:1494,1844
DA:1499,378
DA:1500,378
DA:1501,316
DA:1502,316
DA:1504,1844
DA:1506,3688
DA:1507,3688
DA:1511,87
DA:1512,87
DA:1513,87
DA:1514,87
DA:1517,69
DA:1520,90
DA:1521,90
DA:1522,90
DA:1524,58
DA:1525,58
DA:1526,58
DA:1527,58
DA:1529,78
DA:1530,78
DA:1531,3
DA:1532,75
DA:1534,62
DA:1535,62
DA:1536,62
DA:1537,75
DA:1538,75
DA:1543,1419
DA:1544,1419
DA:1545,1419
DA:1547,159
DA:1548,159
DA:1549,159
DA:1550,159
DA:1552,38
DA:1553,38
DA:1554,38
DA:1555,38
DA:1556,13
DA:1557,12
DA:1558,116
DA:1559,44
DA:1560,6
DA:1561,22
DA:1562,5
DA:1563,18
DA:1564,8
DA:1565,79
DA:1566,6
DA:1567,20
DA:1568,7
DA:1569,21
DA:1571,7
DA:1572,6
DA:1574,11
DA:1577,6
DA:1579,22
DA:1581,257
DA:1583,1123
DA:1585,1122
DA:1586,1122
DA:1587,281
DA:1590,841
DA:1591,2
DA:1594,839
DA:1595,839
DA:1596,1678
DA:1597,839
DA:1598,839
DA:1599,839
DA:1600,839
DA:1601,839
DA:1602,2765
DA:1603,1844
DA:1605,1559
DA:1608,87174
DA:1612,87174
DA:1613,87174
DA:1614,4
DA:1617,87170
DA:1618,87170
DA:1620,43844
DA:1621,43844
DA:1622,20446
DA:1623,21265
DA:1625,1615
DA:1629,1582
DA:1630,36
DA:1631,36
DA:1632,36
DA:1633,1615
DA:1634,1615
DA:1635,1615
DA:1636,1615
DA:1637,1615
DA:1638,103
DA:1639,103
DA:1641,1512
DA:1642,0
DA:1645,1512
DA:1646,1615
DA:1648,21458
DA:1649,21458
DA:1650,1
DA:1651,21449
DA:1652,87165
DA:1655,67709
DA:1657,67709
DA:1658,67709
DA:1659,225585
DA:1660,159231
DA:1661,159231
DA:1662,87183
DA:1663,87183
DA:1664,159231
DA:1665,20447
DA:1666,1
DA:1667,20446
DA:1668,20446
DA:1669,20446
DA:1670,159230
DA:1671,66354
DA:1672,67708
DA:1675,116
DA:1676,116
DA:1677,116
DA:1678,47
DA:1679,8
DA:1681,108
DA:1682,104
DA:1683,4
DA:1685,104
DA:1686,112
DA:1784,25121
DA:1785,25121
DA:1787,92057
DA:1789,92057
DA:1795,117204
DA:1796,117204
DA:1797,117204
DA:1798,117204
DA:1807,21
DA:1808,24
DA:1814,439368
DA:1817,63846
DA:1820,180008
DA:1821,66461
DA:1824,123
DA:1828,79671
DA:1829,79671
DA:1830,79671
DA:1831,79671
DA:1837,346313
DA:1838,346313
DA:1839,346313
DA:1841,174270
DA:1842,174270
DA:1843,174270
DA:1844,174270
DA:1854,367598
DA:1855,624810
DA:1856,257212
DA:1857,257212
DA:1858,257212
DA:1859,257212
DA:1860,60
DA:1861,60
DA:1862,60
DA:1863,60
DA:1864,60
DA:1866,257212
DA:1867,1440891
DA:1868,257212
DA:1869,257212
DA:1870,257212
DA:1871,367598
DA:1873,250324
DA:1874,250324
DA:1877,147124
DA:1878,147124
DA:1883,15
DA:1885,30
DA:1890,24
DA:1894,48
DA:1895,24
DA:1896,66
DA:1897,66
DA:1898,66
DA:1899,132
DA:1900,66
DA:1911,8
DA:1912,8
DA:1913,8
DA:1915,32
DA:1916,32
DA:1917,32
DA:1918,32
DA:1919,32
DA:1920,330
DA:1921,32
DA:1924,32
DA:1925,32
DA:1930,32
DA:1932,17
DA:1933,1
DA:1934,33
DA:1936,13
DA:1937,13
DA:1938,13
DA:1940,1
DA:1951,43
DA:1952,43
DA:1953,18
DA:1954,43
DA:1956,64
DA:1957,64
DA:1958,64
DA:1959,23
DA:1960,23
DA:1961,23
DA:1962,64
DA:1963,64
DA:1966,46
DA:1967,46
DA:1977,46
DA:1979,23
DA:1980,23
DA:1981,23
DA:1983,23
DA:1984,23
DA:2001,24
DA:2002,24
DA:2003,24
DA:2004,24
DA:2005,24
DA:2010,14
DA:2011,14
DA:2027,24
DA:2028,24
DA:2030,12
DA:2038,12
DA:2040,0
DA:2041,0
DA:2042,0
DA:2043,0
DA:2044,0
DA:2047,36
DA:2049,12
DA:2050,12
DA:2082,367480
DA:2084,367480
DA:2085,367480
DA:2107,257
DA:2108,964
DA:2109,257
DA:2113,21280
DA:2114,21280
DA:2130,27
DA:2131,27
DA:2135,215
DA:2136,215
DA:2140,24
DA:2141,24
DA:2144,213
DA:2145,213
DA:2154,40475
DA:2200,192120
DA:2201,54
DA:2202,58
DA:2203,346
DA:2204,344
DA:2205,43990
DA:2206,3134
DA:2207,104
DA:2208,74
DA:2209,74
DA:2210,2010
DA:2211,1536
DA:2212,1536
DA:2213,38
DA:2214,12
DA:2215,28
DA:2218,12
DA:2220,12
DA:2222,12
DA:2224,12
DA:2227,9002
DA:2231,9002
DA:2233,26
DA:2234,5174
DA:2235,74
DA:2237,4
DA:2238,2
DA:2240,4
DA:2241,5100
DA:2242,2550
DA:2244,5100
DA:2247,80948
DA:2250,40474
DA:2251,40474
DA:2252,40474
DA:2253,80948
DA:2254,542
DA:2255,20
DA:2256,2
DA:2257,2
DA:2258,2
DA:2259,2
DA:2260,2
DA:2273,14
DA:2278,41
DA:2282,21287
DA:2284,58
DA:2285,58
DA:2289,42574
DA:2293,21287
DA:2294,21287
DA:2302,21287
DA:2303,42574
DA:2314,21286
DA:2316,21286
DA:2317,21286
DA:2321,21286
DA:2322,21286
DA:2323,21286
DA:2372,42
DA:2373,28
DA:2374,14
DA:2375,14
DA:2377,28
DA:2390,13
DA:2415,192
DA:2416,192
DA:2417,24
DA:2418,0
DA:2419,24
DA:2420,192
DA:2425,49
DA:2426,49
DA:2427,49
DA:2442,1
DA:2443,1
DA:2463,68238
DA:2470,68238
DA:2473,103
DA:2477,103
DA:2490,233780
DA:2492,173082
DA:2493,173082
DA:2494,173082
DA:2496,173082
DA:2497,25
DA:2498,173057
DA:2518,630
DA:2520,315
DA:2521,315
DA:2522,315
DA:2525,189912
DA:2526,32
DA:2527,32
DA:2529,5182
DA:2530,5182
DA:2532,25356
DA:2533,25356
DA:2535,6874
DA:2543,75309
DA:2545,75309
DA:2547,21840
DA:2548,1760
DA:2549,1003
DA:2550,759
DA:2551,19
DA:2552,6
DA:2553,13
DA:2554,4260
DA:2555,13
DA:2556,2416
DA:2557,39
DA:2558,2342
DA:2559,40475
DA:2560,41
DA:2561,315
DA:2563,8
DA:2564,75309
DA:2566,22772
DA:2569,22772
DA:2570,20971
DA:2571,20971
DA:2572,20971
DA:2573,22772
DA:2601,95038
DA:2602,95038
DA:2604,40
DA:2605,40
DA:2608,94896
DA:2609,94896
DA:2610,94896
DA:2611,189792
DA:2612,94896
DA:2621,694
DA:2626,191618
DA:2628,95809
DA:2629,191618
DA:2633,10
DA:2634,5
DA:2635,10
DA:2638,28
DA:2640,28
DA:2641,14
DA:2642,28
DA:2645,94954
DA:2646,94954
DA:2647,94954
DA:2648,47
DA:2649,47
DA:2651,94907
DA:2652,94896
DA:2653,94896
DA:2654,94896
DA:2655,94954
DA:2658,4
DA:2659,4
DA:2660,4
DA:2661,4
DA:2664,40
DA:2665,40
DA:2666,74
DA:2667,37
DA:2668,96
DA:2669,59
DA:2670,22
DA:2671,0
DA:2672,40
DA:2674,47
DA:2675,47
DA:2676,47
DA:2677,47
DA:2678,47
DA:2696,133910
DA:2697,133910
DA:2702,65729
DA:2703,4
DA:2704,4
DA:2706,28
DA:2707,28
DA:2712,257260
DA:2715,21564
DA:2717,1045
DA:2732,21794
DA:2753,134528
DA:2766,134528
DA:2769,6
DA:2770,3
DA:2778,6
DA:2782,250
DA:2783,125
DA:2784,125
DA:2786,125
DA:2787,250
DA:2788,43588
DA:2825,2531
DA:2829,2531
DA:2847,52
DA:2848,52
DA:2855,233
DA:2857,233
DA:2858,233
DA:2859,230
DA:2860,233
DA:2875,220
DA:2877,220
DA:2889,20
DA:2892,20
DA:2893,20
DA:2894,20
DA:2895,20
DA:2905,10
DA:2907,10
DA:2916,3
DA:2918,3
DA:2919,2
DA:2931,10
DA:2933,10
DA:2934,10
DA:2935,10
DA:2939,1
DA:2941,1
DA:2942,1
DA:2943,2
DA:2944,1
DA:2960,1003
DA:2961,1003
DA:2965,1003
DA:2966,1003
DA:2977,20111
DA:2978,20111
DA:2981,100
DA:2982,20011
DA:2983,20111
DA:2988,2
DA:2989,2
DA:2991,2
DA:2993,2
DA:2998,1
DA:2999,1
LF:836
LH:826
end_of_record
TN:
SF:/Users/raywang/USI/Thesis/2025-xiaorui-wang/fmt/include/fmt/chrono.h
FNL:0,1020,1036
FNA:0,7,_ZN3fmt3v126detail22write_floating_secondsINSt3__16chrono8durationIdNS3_5ratioILl1ELl1000000000EEEEEEEvRNS0_19basic_memory_bufferIcLm500ENS1_9allocatorIcEEEET_i
FNA:0,2,_ZN3fmt3v126detail22write_floating_secondsINSt3__16chrono8durationIdNS3_5ratioILl1ELl1000EEEEEEEvRNS0_19basic_memory_bufferIcLm500ENS1_9allocatorIcEEEET_i
FNA:0,9,_ZN3fmt3v126detail22write_floating_secondsINSt3__16chrono8durationIdNS3_5ratioILl1ELl1EEEEEEEvRNS0_19basic_memory_bufferIcLm500ENS1_9allocatorIcEEEET_i
FNA:0,1,_ZN3fmt3v126detail22write_floating_secondsINSt3__16chrono8durationIdNS3_5ratioILl1ELl3EEEEEEEvRNS0_19basic_memory_bufferIcLm500ENS1_9allocatorIcEEEET_i
FNA:0,0,_ZN3fmt3v126detail22write_floating_secondsINSt3__16chrono8durationIfNS3_5ratioILl1000000000000000000ELl1EEEEEEEvRNS0_19basic_memory_bufferIcLm500ENS1_9allocatorIcEEEET_i
FNA:0,0,_ZN3fmt3v126detail22write_floating_secondsINSt3__16chrono8durationIfNS3_5ratioILl1ELl1000000000000000000EEEEEEEvRNS0_19basic_memory_bufferIcLm500ENS1_9allocatorIcEEEET_i
FNA:0,1,_ZN3fmt3v126detail22write_floating_secondsINSt3__16chrono8durationIfNS3_5ratioILl1ELl1000000000000EEEEEEEvRNS0_19basic_memory_bufferIcLm500ENS1_9allocatorIcEEEET_i
FNA:0,0,_ZN3fmt3v126detail22write_floating_secondsINSt3__16chrono8durationIfNS3_5ratioILl1ELl1000EEEEEEEvRNS0_19basic_memory_bufferIcLm500ENS1_9allocatorIcEEEET_i
FNA:0,0,_ZN3fmt3v126detail22write_floating_secondsINSt3__16chrono8durationIfNS3_5ratioILl1ELl1EEEEEEEvRNS0_19basic_memory_bufferIcLm500ENS1_9allocatorIcEEEET_i
FNL:1,1038,1043
FNA:1,7,_ZZN3fmt3v126detail22write_floating_secondsINSt3__16chrono8durationIdNS3_5ratioILl1ELl1000000000EEEEEEEvRNS0_19basic_memory_bufferIcLm500ENS1_9allocatorIcEEEET_iENKUlvE_clEv
FNA:1,2,_ZZN3fmt3v126detail22write_floating_secondsINSt3__16chrono8durationIdNS3_5ratioILl1ELl1000EEEEEEEvRNS0_19basic_memory_bufferIcLm500ENS1_9allocatorIcEEEET_iENKUlvE_clEv
FNA:1,9,_ZZN3fmt3v126detail22write_floating_secondsINSt3__16chrono8durationIdNS3_5ratioILl1ELl1EEEEEEEvRNS0_19basic_memory_bufferIcLm500ENS1_9allocatorIcEEEET_iENKUlvE_clEv
FNA:1,1,_ZZN3fmt3v126detail22write_floating_secondsINSt3__16chrono8durationIdNS3_5ratioILl1ELl3EEEEEEEvRNS0_19basic_memory_bufferIcLm500ENS1_9allocatorIcEEEET_iENKUlvE_clEv
FNA:1,0,_ZZN3fmt3v126detail22write_floating_secondsINSt3__16chrono8durationIfNS3_5ratioILl1000000000000000000ELl1EEEEEEEvRNS0_19basic_memory_bufferIcLm500ENS1_9allocatorIcEEEET_iENKUlvE_clEv
FNA:1,0,_ZZN3fmt3v126detail22write_floating_secondsINSt3__16chrono8durationIfNS3_5ratioILl1ELl1000000000000000000EEEEEEEvRNS0_19basic_memory_bufferIcLm500ENS1_9allocatorIcEEEET_iENKUlvE_clEv
FNA:1,1,_ZZN3fmt3v126detail22write_floating_secondsINSt3__16chrono8durationIfNS3_5ratioILl1ELl1000000000000EEEEEEEvRNS0_19basic_memory_bufferIcLm500ENS1_9allocatorIcEEEET_iENKUlvE_clEv
FNA:1,0,_ZZN3fmt3v126detail22write_floating_secondsINSt3__16chrono8durationIfNS3_5ratioILl1ELl1000EEEEEEEvRNS0_19basic_memory_bufferIcLm500ENS1_9allocatorIcEEEET_iENKUlvE_clEv
FNA:1,0,_ZZN3fmt3v126detail22write_floating_secondsINSt3__16chrono8durationIfNS3_5ratioILl1ELl1EEEEEEEvRNS0_19basic_memory_bufferIcLm500ENS1_9allocatorIcEEEET_iENKUlvE_clEv
FNA:1,14,_ZZZN3fmt3v126detail22write_floating_secondsINSt3__16chrono8durationIdNS3_5ratioILl1ELl1000000000EEEEEEEvRNS0_19basic_memory_bufferIcLm500ENS1_9allocatorIcEEEET_iENKUlvE_clEvENK18FMT_COMPILE_STRINGcvNS0_17basic_string_viewIcEEEv
FNA:1,4,_ZZZN3fmt3v126detail22write_floating_secondsINSt3__16chrono8durationIdNS3_5ratioILl1ELl1000EEEEEEEvRNS0_19basic_memory_bufferIcLm500ENS1_9allocatorIcEEEET_iENKUlvE_clEvENK18FMT_COMPILE_STRINGcvNS0_17basic_string_viewIcEEEv
FNA:1,18,_ZZZN3fmt3v126detail22write_floating_secondsINSt3__16chrono8durationIdNS3_5ratioILl1ELl1EEEEEEEvRNS0_19basic_memory_bufferIcLm500ENS1_9allocatorIcEEEET_iENKUlvE_clEvENK18FMT_COMPILE_STRINGcvNS0_17basic_string_viewIcEEEv
FNA:1,2,_ZZZN3fmt3v126detail22write_floating_secondsINSt3__16chrono8durationIdNS3_5ratioILl1ELl3EEEEEEEvRNS0_19basic_memory_bufferIcLm500ENS1_9allocatorIcEEEET_iENKUlvE_clEvENK18FMT_COMPILE_STRINGcvNS0_17basic_string_viewIcEEEv
FNA:1,0,_ZZZN3fmt3v126detail22write_floating_secondsINSt3__16chrono8durationIfNS3_5ratioILl1000000000000000000ELl1EEEEEEEvRNS0_19basic_memory_bufferIcLm500ENS1_9allocatorIcEEEET_iENKUlvE_clEvENK18FMT_COMPILE_STRINGcvNS0_17basic_string_viewIcEEEv
FNA:1,0,_ZZZN3fmt3v126detail22write_floating_secondsINSt3__16chrono8durationIfNS3_5ratioILl1ELl1000000000000000000EEEEEEEvRNS0_19basic_memory_bufferIcLm500ENS1_9allocatorIcEEEET_iENKUlvE_clEvENK18FMT_COMPILE_STRINGcvNS0_17basic_string_viewIcEEEv
FNA:1,2,_ZZZN3fmt3v126detail22write_floating_secondsINSt3__16chrono8durationIfNS3_5ratioILl1ELl1000000000000EEEEEEEvRNS0_19basic_memory_bufferIcLm500ENS1_9allocatorIcEEEET_iENKUlvE_clEvENK18FMT_COMPILE_STRINGcvNS0_17basic_string_viewIcEEEv
FNA:1,0,_ZZZN3fmt3v126detail22write_floating_secondsINSt3__16chrono8durationIfNS3_5ratioILl1ELl1000EEEEEEEvRNS0_19basic_memory_bufferIcLm500ENS1_9allocatorIcEEEET_iENKUlvE_clEvENK18FMT_COMPILE_STRINGcvNS0_17basic_string_viewIcEEEv
FNA:1,0,_ZZZN3fmt3v126detail22write_floating_secondsINSt3__16chrono8durationIfNS3_5ratioILl1ELl1EEEEEEEvRNS0_19basic_memory_bufferIcLm500ENS1_9allocatorIcEEEET_iENKUlvE_clEvENK18FMT_COMPILE_STRINGcvNS0_17basic_string_viewIcEEEv
FNL:2,1057,1059
FNA:2,2,_ZNK3fmt3v126detail9tm_writerINS0_14basic_appenderIcEEcNSt3__16chrono8durationIdNS5_5ratioILl1ELl1EEEEEE6tm_secEv
FNA:2,1,_ZNK3fmt3v126detail9tm_writerINS0_14basic_appenderIcEEcNSt3__16chrono8durationIdNS5_5ratioILl1ELl3EEEEEE6tm_secEv
FNA:2,1,_ZNK3fmt3v126detail9tm_writerINS0_14basic_appenderIcEEcNSt3__16chrono8durationIiNS5_5ratioILl63ELl1EEEEEE6tm_secEv
FNA:2,1,_ZNK3fmt3v126detail9tm_writerINS0_14basic_appenderIcEEcNSt3__16chrono8durationIiNS5_5ratioILl9ELl1EEEEEE6tm_secEv
FNA:2,1,_ZNK3fmt3v126detail9tm_writerINS0_14basic_appenderIcEEcNSt3__16chrono8durationIlNS5_5ratioILl60ELl1EEEEEE6tm_secEv
FNA:2,2,_ZNK3fmt3v126detail9tm_writerINS0_14basic_appenderIcEEcNSt3__16chrono8durationIxNS5_5ratioILl1ELl1000000000EEEEEE6tm_secEv
FNA:2,10,_ZNK3fmt3v126detail9tm_writerINS0_14basic_appenderIcEEcNSt3__16chrono8durationIxNS5_5ratioILl1ELl1000000EEEEEE6tm_secEv
FNA:2,6,_ZNK3fmt3v126detail9tm_writerINS0_14basic_appenderIcEEcNSt3__16chrono8durationIxNS5_5ratioILl1ELl1000EEEEEE6tm_secEv
FNA:2,92,_ZNK3fmt3v126detail9tm_writerINS0_14basic_appenderIcEEcNSt3__16chrono8durationIxNS5_5ratioILl1ELl1EEEEEE6tm_secEv
FNA:2,1,_ZNK3fmt3v126detail9tm_writerINS0_14basic_appenderIcEEcNSt3__16chrono8durationIxNS5_5ratioILl1ELl3EEEEEE6tm_secEv
FNA:2,0,_ZNK3fmt3v126detail9tm_writerINS0_14basic_appenderIcEEcNSt3__16chrono8durationIxNS5_5ratioILl31556952ELl1EEEEEE6tm_secEv
FNA:2,1,_ZNK3fmt3v126detail9tm_writerINS0_14basic_appenderIwEEwNSt3__16chrono8durationIxNS5_5ratioILl1ELl1EEEEEE6tm_secEv
FNL:3,1061,1063
FNA:3,0,_ZNK3fmt3v126detail9tm_writerINS0_14basic_appenderIcEEcNSt3__16chrono8durationIdNS5_5ratioILl1ELl1EEEEEE6tm_minEv
FNA:3,0,_ZNK3fmt3v126detail9tm_writerINS0_14basic_appenderIcEEcNSt3__16chrono8durationIdNS5_5ratioILl1ELl3EEEEEE6tm_minEv
FNA:3,1,_ZNK3fmt3v126detail9tm_writerINS0_14basic_appenderIcEEcNSt3__16chrono8durationIiNS5_5ratioILl63ELl1EEEEEE6tm_minEv
FNA:3,1,_ZNK3fmt3v126detail9tm_writerINS0_14basic_appenderIcEEcNSt3__16chrono8durationIiNS5_5ratioILl9ELl1EEEEEE6tm_minEv
FNA:3,1,_ZNK3fmt3v126detail9tm_writerINS0_14basic_appenderIcEEcNSt3__16chrono8durationIlNS5_5ratioILl60ELl1EEEEEE6tm_minEv
FNA:3,1,_ZNK3fmt3v126detail9tm_writerINS0_14basic_appenderIcEEcNSt3__16chrono8durationIxNS5_5ratioILl1ELl1000000000EEEEEE6tm_minEv
FNA:3,9,_ZNK3fmt3v126detail9tm_writerINS0_14basic_appenderIcEEcNSt3__16chrono8durationIxNS5_5ratioILl1ELl1000000EEEEEE6tm_minEv
FNA:3,1,_ZNK3fmt3v126detail9tm_writerINS0_14basic_appenderIcEEcNSt3__16chrono8durationIxNS5_5ratioILl1ELl1000EEEEEE6tm_minEv
FNA:3,93,_ZNK3fmt3v126detail9tm_writerINS0_14basic_appenderIcEEcNSt3__16chrono8durationIxNS5_5ratioILl1ELl1EEEEEE6tm_minEv
FNA:3,0,_ZNK3fmt3v126detail9tm_writerINS0_14basic_appenderIcEEcNSt3__16chrono8durationIxNS5_5ratioILl1ELl3EEEEEE6tm_minEv
FNA:3,0,_ZNK3fmt3v126detail9tm_writerINS0_14basic_appenderIcEEcNSt3__16chrono8durationIxNS5_5ratioILl31556952ELl1EEEEEE6tm_minEv
FNA:3,1,_ZNK3fmt3v126detail9tm_writerINS0_14basic_appenderIwEEwNSt3__16chrono8durationIxNS5_5ratioILl1ELl1EEEEEE6tm_minEv
FNL:4,1065,1067
FNA:4,0,_ZNK3fmt3v126detail9tm_writerINS0_14basic_appenderIcEEcNSt3__16chrono8durationIdNS5_5ratioILl1ELl1EEEEEE7tm_hourEv
FNA:4,0,_ZNK3fmt3v126detail9tm_writerINS0_14basic_appenderIcEEcNSt3__16chrono8durationIdNS5_5ratioILl1ELl3EEEEEE7tm_hourEv
FNA:4,0,_ZNK3fmt3v126detail9tm_writerINS0_14basic_appenderIcEEcNSt3__16chrono8durationIiNS5_5ratioILl63ELl1EEEEEE7tm_hourEv
FNA:4,0,_ZNK3fmt3v126detail9tm_writerINS0_14basic_appenderIcEEcNSt3__16chrono8durationIiNS5_5ratioILl9ELl1EEEEEE7tm_hourEv
FNA:4,0,_ZNK3fmt3v126detail9tm_writerINS0_14basic_appenderIcEEcNSt3__16chrono8durationIlNS5_5ratioILl60ELl1EEEEEE7tm_hourEv
FNA:4,1,_ZNK3fmt3v126detail9tm_writerINS0_14basic_appenderIcEEcNSt3__16chrono8durationIxNS5_5ratioILl1ELl1000000000EEEEEE7tm_hourEv
FNA:4,0,_ZNK3fmt3v126detail9tm_writerINS0_14basic_appenderIcEEcNSt3__16chrono8durationIxNS5_5ratioILl1ELl1000000EEEEEE7tm_hourEv
FNA:4,0,_ZNK3fmt3v126detail9tm_writerINS0_14basic_appenderIcEEcNSt3__16chrono8durationIxNS5_5ratioILl1ELl1000EEEEEE7tm_hourEv
FNA:4,114,_ZNK3fmt3v126detail9tm_writerINS0_14basic_appenderIcEEcNSt3__16chrono8durationIxNS5_5ratioILl1ELl1EEEEEE7tm_hourEv
FNA:4,0,_ZNK3fmt3v126detail9tm_writerINS0_14basic_appenderIcEEcNSt3__16chrono8durationIxNS5_5ratioILl1ELl3EEEEEE7tm_hourEv
FNA:4,0,_ZNK3fmt3v126detail9tm_writerINS0_14basic_appenderIcEEcNSt3__16chrono8durationIxNS5_5ratioILl31556952ELl1EEEEEE7tm_hourEv
FNA:4,1,_ZNK3fmt3v126detail9tm_writerINS0_14basic_appenderIwEEwNSt3__16chrono8durationIxNS5_5ratioILl1ELl1EEEEEE7tm_hourEv
FNL:5,1069,1071
FNA:5,0,_ZNK3fmt3v126detail9tm_writerINS0_14basic_appenderIcEEcNSt3__16chrono8durationIdNS5_5ratioILl1ELl1EEEEEE7tm_mdayEv
FNA:5,0,_ZNK3fmt3v126detail9tm_writerINS0_14basic_appenderIcEEcNSt3__16chrono8durationIdNS5_5ratioILl1ELl3EEEEEE7tm_mdayEv
FNA:5,0,_ZNK3fmt3v126detail9tm_writerINS0_14basic_appenderIcEEcNSt3__16chrono8durationIiNS5_5ratioILl63ELl1EEEEEE7tm_mdayEv
FNA:5,0,_ZNK3fmt3v126detail9tm_writerINS0_14basic_appenderIcEEcNSt3__16chrono8durationIiNS5_5ratioILl9ELl1EEEEEE7tm_mdayEv
FNA:5,0,_ZNK3fmt3v126detail9tm_writerINS0_14basic_appenderIcEEcNSt3__16chrono8durationIlNS5_5ratioILl60ELl1EEEEEE7tm_mdayEv
FNA:5,0,_ZNK3fmt3v126detail9tm_writerINS0_14basic_appenderIcEEcNSt3__16chrono8durationIxNS5_5ratioILl1ELl1000000000EEEEEE7tm_mdayEv
FNA:5,0,_ZNK3fmt3v126detail9tm_writerINS0_14basic_appenderIcEEcNSt3__16chrono8durationIxNS5_5ratioILl1ELl1000000EEEEEE7tm_mdayEv
FNA:5,1,_ZNK3fmt3v126detail9tm_writerINS0_14basic_appenderIcEEcNSt3__16chrono8durationIxNS5_5ratioILl1ELl1000EEEEEE7tm_mdayEv
FNA:5,20534,_ZNK3fmt3v126detail9tm_writerINS0_14basic_appenderIcEEcNSt3__16chrono8durationIxNS5_5ratioILl1ELl1EEEEEE7tm_mdayEv
FNA:5,0,_ZNK3fmt3v126detail9tm_writerINS0_14basic_appenderIcEEcNSt3__16chrono8durationIxNS5_5ratioILl1ELl3EEEEEE7tm_mdayEv
FNA:5,0,_ZNK3fmt3v126detail9tm_writerINS0_14basic_appenderIcEEcNSt3__16chrono8durationIxNS5_5ratioILl31556952ELl1EEEEEE7tm_mdayEv
FNA:5,1,_ZNK3fmt3v126detail9tm_writerINS0_14basic_appenderIwEEwNSt3__16chrono8durationIxNS5_5ratioILl1ELl1EEEEEE7tm_mdayEv
FNL:6,107,110
FNA:6,3,_ZN3fmt3v1218safe_duration_cast28lossless_integral_conversionIllLi0EEET_T0_Ri
FNA:6,17,_ZN3fmt3v1218safe_duration_cast28lossless_integral_conversionImmLi0EEET_T0_Ri
FNA:6,154,_ZN3fmt3v1218safe_duration_cast28lossless_integral_conversionIxxLi0EEET_T0_Ri
FNA:6,99,_ZN3fmt3v1218safe_duration_cast28lossless_integral_conversionIyyLi0EEET_T0_Ri
FNL:7,1073,1075
FNA:7,0,_ZNK3fmt3v126detail9tm_writerINS0_14basic_appenderIcEEcNSt3__16chrono8durationIdNS5_5ratioILl1ELl1EEEEEE6tm_monEv
FNA:7,0,_ZNK3fmt3v126detail9tm_writerINS0_14basic_appenderIcEEcNSt3__16chrono8durationIdNS5_5ratioILl1ELl3EEEEEE6tm_monEv
FNA:7,0,_ZNK3fmt3v126detail9tm_writerINS0_14basic_appenderIcEEcNSt3__16chrono8durationIiNS5_5ratioILl63ELl1EEEEEE6tm_monEv
FNA:7,0,_ZNK3fmt3v126detail9tm_writerINS0_14basic_appenderIcEEcNSt3__16chrono8durationIiNS5_5ratioILl9ELl1EEEEEE6tm_monEv
FNA:7,0,_ZNK3fmt3v126detail9tm_writerINS0_14basic_appenderIcEEcNSt3__16chrono8durationIlNS5_5ratioILl60ELl1EEEEEE6tm_monEv
FNA:7,0,_ZNK3fmt3v126detail9tm_writerINS0_14basic_appenderIcEEcNSt3__16chrono8durationIxNS5_5ratioILl1ELl1000000000EEEEEE6tm_monEv
FNA:7,0,_ZNK3fmt3v126detail9tm_writerINS0_14basic_appenderIcEEcNSt3__16chrono8durationIxNS5_5ratioILl1ELl1000000EEEEEE6tm_monEv
FNA:7,1,_ZNK3fmt3v126detail9tm_writerINS0_14basic_appenderIcEEcNSt3__16chrono8durationIxNS5_5ratioILl1ELl1000EEEEEE6tm_monEv
FNA:7,20537,_ZNK3fmt3v126detail9tm_writerINS0_14basic_appenderIcEEcNSt3__16chrono8durationIxNS5_5ratioILl1ELl1EEEEEE6tm_monEv
FNA:7,0,_ZNK3fmt3v126detail9tm_writerINS0_14basic_appenderIcEEcNSt3__16chrono8durationIxNS5_5ratioILl1ELl3EEEEEE6tm_monEv
FNA:7,0,_ZNK3fmt3v126detail9tm_writerINS0_14basic_appenderIcEEcNSt3__16chrono8durationIxNS5_5ratioILl31556952ELl1EEEEEE6tm_monEv
FNA:7,1,_ZNK3fmt3v126detail9tm_writerINS0_14basic_appenderIwEEwNSt3__16chrono8durationIxNS5_5ratioILl1ELl1EEEEEE6tm_monEv
FNL:8,1077,1077
FNA:8,0,_ZNK3fmt3v126detail9tm_writerINS0_14basic_appenderIcEEcNSt3__16chrono8durationIdNS5_5ratioILl1ELl1EEEEEE7tm_yearEv
FNA:8,0,_ZNK3fmt3v126detail9tm_writerINS0_14basic_appenderIcEEcNSt3__16chrono8durationIdNS5_5ratioILl1ELl3EEEEEE7tm_yearEv
FNA:8,0,_ZNK3fmt3v126detail9tm_writerINS0_14basic_appenderIcEEcNSt3__16chrono8durationIiNS5_5ratioILl63ELl1EEEEEE7tm_yearEv
FNA:8,0,_ZNK3fmt3v126detail9tm_writerINS0_14basic_appenderIcEEcNSt3__16chrono8durationIiNS5_5ratioILl9ELl1EEEEEE7tm_yearEv
FNA:8,0,_ZNK3fmt3v126detail9tm_writerINS0_14basic_appenderIcEEcNSt3__16chrono8durationIlNS5_5ratioILl60ELl1EEEEEE7tm_yearEv
FNA:8,0,_ZNK3fmt3v126detail9tm_writerINS0_14basic_appenderIcEEcNSt3__16chrono8durationIxNS5_5ratioILl1ELl1000000000EEEEEE7tm_yearEv
FNA:8,0,_ZNK3fmt3v126detail9tm_writerINS0_14basic_appenderIcEEcNSt3__16chrono8durationIxNS5_5ratioILl1ELl1000000EEEEEE7tm_yearEv
FNA:8,1,_ZNK3fmt3v126detail9tm_writerINS0_14basic_appenderIcEEcNSt3__16chrono8durationIxNS5_5ratioILl1ELl1000EEEEEE7tm_yearEv
FNA:8,81891,_ZNK3fmt3v126detail9tm_writerINS0_14basic_appenderIcEEcNSt3__16chrono8durationIxNS5_5ratioILl1ELl1EEEEEE7tm_yearEv
FNA:8,0,_ZNK3fmt3v126detail9tm_writerINS0_14basic_appenderIcEEcNSt3__16chrono8durationIxNS5_5ratioILl1ELl3EEEEEE7tm_yearEv
FNA:8,0,_ZNK3fmt3v126detail9tm_writerINS0_14basic_appenderIcEEcNSt3__16chrono8durationIxNS5_5ratioILl31556952ELl1EEEEEE7tm_yearEv
FNA:8,1,_ZNK3fmt3v126detail9tm_writerINS0_14basic_appenderIwEEwNSt3__16chrono8durationIxNS5_5ratioILl1ELl1EEEEEE7tm_yearEv
FNL:9,1078,1080
FNA:9,0,_ZNK3fmt3v126detail9tm_writerINS0_14basic_appenderIcEEcNSt3__16chrono8durationIdNS5_5ratioILl1ELl1EEEEEE7tm_wdayEv
FNA:9,0,_ZNK3fmt3v126detail9tm_writerINS0_14basic_appenderIcEEcNSt3__16chrono8durationIdNS5_5ratioILl1ELl3EEEEEE7tm_wdayEv
FNA:9,0,_ZNK3fmt3v126detail9tm_writerINS0_14basic_appenderIcEEcNSt3__16chrono8durationIiNS5_5ratioILl63ELl1EEEEEE7tm_wdayEv
FNA:9,0,_ZNK3fmt3v126detail9tm_writerINS0_14basic_appenderIcEEcNSt3__16chrono8durationIiNS5_5ratioILl9ELl1EEEEEE7tm_wdayEv
FNA:9,0,_ZNK3fmt3v126detail9tm_writerINS0_14basic_appenderIcEEcNSt3__16chrono8durationIlNS5_5ratioILl60ELl1EEEEEE7tm_wdayEv
FNA:9,0,_ZNK3fmt3v126detail9tm_writerINS0_14basic_appenderIcEEcNSt3__16chrono8durationIxNS5_5ratioILl1ELl1000000000EEEEEE7tm_wdayEv
FNA:9,0,_ZNK3fmt3v126detail9tm_writerINS0_14basic_appenderIcEEcNSt3__16chrono8durationIxNS5_5ratioILl1ELl1000000EEEEEE7tm_wdayEv
FNA:9,0,_ZNK3fmt3v126detail9tm_writerINS0_14basic_appenderIcEEcNSt3__16chrono8durationIxNS5_5ratioILl1ELl1000EEEEEE7tm_wdayEv
FNA:9,61391,_ZNK3fmt3v126detail9tm_writerINS0_14basic_appenderIcEEcNSt3__16chrono8durationIxNS5_5ratioILl1ELl1EEEEEE7tm_wdayEv
FNA:9,0,_ZNK3fmt3v126detail9tm_writerINS0_14basic_appenderIcEEcNSt3__16chrono8durationIxNS5_5ratioILl1ELl3EEEEEE7tm_wdayEv
FNA:9,0,_ZNK3fmt3v126detail9tm_writerINS0_14basic_appenderIcEEcNSt3__16chrono8durationIxNS5_5ratioILl31556952ELl1EEEEEE7tm_wdayEv
FNA:9,1,_ZNK3fmt3v126detail9tm_writerINS0_14basic_appenderIwEEwNSt3__16chrono8durationIxNS5_5ratioILl1ELl1EEEEEE7tm_wdayEv
FNL:10,1082,1084
FNA:10,0,_ZNK3fmt3v126detail9tm_writerINS0_14basic_appenderIcEEcNSt3__16chrono8durationIdNS5_5ratioILl1ELl1EEEEEE7tm_ydayEv
FNA:10,0,_ZNK3fmt3v126detail9tm_writerINS0_14basic_appenderIcEEcNSt3__16chrono8durationIdNS5_5ratioILl1ELl3EEEEEE7tm_ydayEv
FNA:10,0,_ZNK3fmt3v126detail9tm_writerINS0_14basic_appenderIcEEcNSt3__16chrono8durationIiNS5_5ratioILl63ELl1EEEEEE7tm_ydayEv
FNA:10,0,_ZNK3fmt3v126detail9tm_writerINS0_14basic_appenderIcEEcNSt3__16chrono8durationIiNS5_5ratioILl9ELl1EEEEEE7tm_ydayEv
FNA:10,0,_ZNK3fmt3v126detail9tm_writerINS0_14basic_appenderIcEEcNSt3__16chrono8durationIlNS5_5ratioILl60ELl1EEEEEE7tm_ydayEv
FNA:10,0,_ZNK3fmt3v126detail9tm_writerINS0_14basic_appenderIcEEcNSt3__16chrono8durationIxNS5_5ratioILl1ELl1000000000EEEEEE7tm_ydayEv
FNA:10,0,_ZNK3fmt3v126detail9tm_writerINS0_14basic_appenderIcEEcNSt3__16chrono8durationIxNS5_5ratioILl1ELl1000000EEEEEE7tm_ydayEv
FNA:10,0,_ZNK3fmt3v126detail9tm_writerINS0_14basic_appenderIcEEcNSt3__16chrono8durationIxNS5_5ratioILl1ELl1000EEEEEE7tm_ydayEv
FNA:10,61339,_ZNK3fmt3v126detail9tm_writerINS0_14basic_appenderIcEEcNSt3__16chrono8durationIxNS5_5ratioILl1ELl1EEEEEE7tm_ydayEv
FNA:10,0,_ZNK3fmt3v126detail9tm_writerINS0_14basic_appenderIcEEcNSt3__16chrono8durationIxNS5_5ratioILl1ELl3EEEEEE7tm_ydayEv
FNA:10,0,_ZNK3fmt3v126detail9tm_writerINS0_14basic_appenderIcEEcNSt3__16chrono8durationIxNS5_5ratioILl31556952ELl1EEEEEE7tm_ydayEv
FNA:10,0,_ZNK3fmt3v126detail9tm_writerINS0_14basic_appenderIwEEwNSt3__16chrono8durationIxNS5_5ratioILl1ELl1EEEEEE7tm_ydayEv
FNL:11,1087,1091
FNA:11,0,_ZNK3fmt3v126detail9tm_writerINS0_14basic_appenderIcEEcNSt3__16chrono8durationIdNS5_5ratioILl1ELl1EEEEEE9tm_hour12Ev
FNA:11,0,_ZNK3fmt3v126detail9tm_writerINS0_14basic_appenderIcEEcNSt3__16chrono8durationIdNS5_5ratioILl1ELl3EEEEEE9tm_hour12Ev
FNA:11,0,_ZNK3fmt3v126detail9tm_writerINS0_14basic_appenderIcEEcNSt3__16chrono8durationIiNS5_5ratioILl63ELl1EEEEEE9tm_hour12Ev
FNA:11,0,_ZNK3fmt3v126detail9tm_writerINS0_14basic_appenderIcEEcNSt3__16chrono8durationIiNS5_5ratioILl9ELl1EEEEEE9tm_hour12Ev
FNA:11,0,_ZNK3fmt3v126detail9tm_writerINS0_14basic_appenderIcEEcNSt3__16chrono8durationIlNS5_5ratioILl60ELl1EEEEEE9tm_hour12Ev
FNA:11,0,_ZNK3fmt3v126detail9tm_writerINS0_14basic_appenderIcEEcNSt3__16chrono8durationIxNS5_5ratioILl1ELl1000000000EEEEEE9tm_hour12Ev
FNA:11,0,_ZNK3fmt3v126detail9tm_writerINS0_14basic_appenderIcEEcNSt3__16chrono8durationIxNS5_5ratioILl1ELl1000000EEEEEE9tm_hour12Ev
FNA:11,0,_ZNK3fmt3v126detail9tm_writerINS0_14basic_appenderIcEEcNSt3__16chrono8durationIxNS5_5ratioILl1ELl1000EEEEEE9tm_hour12Ev
FNA:11,18,_ZNK3fmt3v126detail9tm_writerINS0_14basic_appenderIcEEcNSt3__16chrono8durationIxNS5_5ratioILl1ELl1EEEEEE9tm_hour12Ev
FNA:11,0,_ZNK3fmt3v126detail9tm_writerINS0_14basic_appenderIcEEcNSt3__16chrono8durationIxNS5_5ratioILl1ELl3EEEEEE9tm_hour12Ev
FNA:11,0,_ZNK3fmt3v126detail9tm_writerINS0_14basic_appenderIcEEcNSt3__16chrono8durationIxNS5_5ratioILl31556952ELl1EEEEEE9tm_hour12Ev
FNA:11,0,_ZNK3fmt3v126detail9tm_writerINS0_14basic_appenderIwEEwNSt3__16chrono8durationIxNS5_5ratioILl1ELl1EEEEEE9tm_hour12Ev
FNL:12,1097,1101
FNA:12,0,_ZNK3fmt3v126detail9tm_writerINS0_14basic_appenderIcEEcNSt3__16chrono8durationIdNS5_5ratioILl1ELl1EEEEEE16split_year_lowerEx
FNA:12,0,_ZNK3fmt3v126detail9tm_writerINS0_14basic_appenderIcEEcNSt3__16chrono8durationIdNS5_5ratioILl1ELl3EEEEEE16split_year_lowerEx
FNA:12,0,_ZNK3fmt3v126detail9tm_writerINS0_14basic_appenderIcEEcNSt3__16chrono8durationIiNS5_5ratioILl63ELl1EEEEEE16split_year_lowerEx
FNA:12,0,_ZNK3fmt3v126detail9tm_writerINS0_14basic_appenderIcEEcNSt3__16chrono8durationIiNS5_5ratioILl9ELl1EEEEEE16split_year_lowerEx
FNA:12,0,_ZNK3fmt3v126detail9tm_writerINS0_14basic_appenderIcEEcNSt3__16chrono8durationIlNS5_5ratioILl60ELl1EEEEEE16split_year_lowerEx
FNA:12,0,_ZNK3fmt3v126detail9tm_writerINS0_14basic_appenderIcEEcNSt3__16chrono8durationIxNS5_5ratioILl1ELl1000000000EEEEEE16split_year_lowerEx
FNA:12,0,_ZNK3fmt3v126detail9tm_writerINS0_14basic_appenderIcEEcNSt3__16chrono8durationIxNS5_5ratioILl1ELl1000000EEEEEE16split_year_lowerEx
FNA:12,0,_ZNK3fmt3v126detail9tm_writerINS0_14basic_appenderIcEEcNSt3__16chrono8durationIxNS5_5ratioILl1ELl1000EEEEEE16split_year_lowerEx
FNA:12,20465,_ZNK3fmt3v126detail9tm_writerINS0_14basic_appenderIcEEcNSt3__16chrono8durationIxNS5_5ratioILl1ELl1EEEEEE16split_year_lowerEx
FNA:12,0,_ZNK3fmt3v126detail9tm_writerINS0_14basic_appenderIcEEcNSt3__16chrono8durationIxNS5_5ratioILl1ELl3EEEEEE16split_year_lowerEx
FNA:12,0,_ZNK3fmt3v126detail9tm_writerINS0_14basic_appenderIcEEcNSt3__16chrono8durationIxNS5_5ratioILl31556952ELl1EEEEEE16split_year_lowerEx
FNA:12,0,_ZNK3fmt3v126detail9tm_writerINS0_14basic_appenderIwEEwNSt3__16chrono8durationIxNS5_5ratioILl1ELl1EEEEEE16split_year_lowerEx
FNL:13,1104,1113
FNA:13,0,_ZNK3fmt3v126detail9tm_writerINS0_14basic_appenderIcEEcNSt3__16chrono8durationIdNS5_5ratioILl1ELl1EEEEEE14iso_year_weeksEx
FNA:13,0,_ZNK3fmt3v126detail9tm_writerINS0_14basic_appenderIcEEcNSt3__16chrono8durationIdNS5_5ratioILl1ELl3EEEEEE14iso_year_weeksEx
FNA:13,0,_ZNK3fmt3v126detail9tm_writerINS0_14basic_appenderIcEEcNSt3__16chrono8durationIiNS5_5ratioILl63ELl1EEEEEE14iso_year_weeksEx
FNA:13,0,_ZNK3fmt3v126detail9tm_writerINS0_14basic_appenderIcEEcNSt3__16chrono8durationIiNS5_5ratioILl9ELl1EEEEEE14iso_year_weeksEx
FNA:13,0,_ZNK3fmt3v126detail9tm_writerINS0_14basic_appenderIcEEcNSt3__16chrono8durationIlNS5_5ratioILl60ELl1EEEEEE14iso_year_weeksEx
FNA:13,0,_ZNK3fmt3v126detail9tm_writerINS0_14basic_appenderIcEEcNSt3__16chrono8durationIxNS5_5ratioILl1ELl1000000000EEEEEE14iso_year_weeksEx
FNA:13,0,_ZNK3fmt3v126detail9tm_writerINS0_14basic_appenderIcEEcNSt3__16chrono8durationIxNS5_5ratioILl1ELl1000000EEEEEE14iso_year_weeksEx
FNA:13,0,_ZNK3fmt3v126detail9tm_writerINS0_14basic_appenderIcEEcNSt3__16chrono8durationIxNS5_5ratioILl1ELl1000EEEEEE14iso_year_weeksEx
FNA:13,61213,_ZNK3fmt3v126detail9tm_writerINS0_14basic_appenderIcEEcNSt3__16chrono8durationIxNS5_5ratioILl1ELl1EEEEEE14iso_year_weeksEx
FNA:13,0,_ZNK3fmt3v126detail9tm_writerINS0_14basic_appenderIcEEcNSt3__16chrono8durationIxNS5_5ratioILl1ELl3EEEEEE14iso_year_weeksEx
FNA:13,0,_ZNK3fmt3v126detail9tm_writerINS0_14basic_appenderIcEEcNSt3__16chrono8durationIxNS5_5ratioILl31556952ELl1EEEEEE14iso_year_weeksEx
FNA:13,0,_ZNK3fmt3v126detail9tm_writerINS0_14basic_appenderIwEEwNSt3__16chrono8durationIxNS5_5ratioILl1ELl1EEEEEE14iso_year_weeksEx
FNL:14,1114,1115
FNA:14,0,_ZNK3fmt3v126detail9tm_writerINS0_14basic_appenderIcEEcNSt3__16chrono8durationIdNS5_5ratioILl1ELl1EEEEEE12iso_week_numEii
FNA:14,0,_ZNK3fmt3v126detail9tm_writerINS0_14basic_appenderIcEEcNSt3__16chrono8durationIdNS5_5ratioILl1ELl3EEEEEE12iso_week_numEii
FNA:14,0,_ZNK3fmt3v126detail9tm_writerINS0_14basic_appenderIcEEcNSt3__16chrono8durationIiNS5_5ratioILl63ELl1EEEEEE12iso_week_numEii
FNA:14,0,_ZNK3fmt3v126detail9tm_writerINS0_14basic_appenderIcEEcNSt3__16chrono8durationIiNS5_5ratioILl9ELl1EEEEEE12iso_week_numEii
FNA:14,0,_ZNK3fmt3v126detail9tm_writerINS0_14basic_appenderIcEEcNSt3__16chrono8durationIlNS5_5ratioILl60ELl1EEEEEE12iso_week_numEii
FNA:14,0,_ZNK3fmt3v126detail9tm_writerINS0_14basic_appenderIcEEcNSt3__16chrono8durationIxNS5_5ratioILl1ELl1000000000EEEEEE12iso_week_numEii
FNA:14,0,_ZNK3fmt3v126detail9tm_writerINS0_14basic_appenderIcEEcNSt3__16chrono8durationIxNS5_5ratioILl1ELl1000000EEEEEE12iso_week_numEii
FNA:14,0,_ZNK3fmt3v126detail9tm_writerINS0_14basic_appenderIcEEcNSt3__16chrono8durationIxNS5_5ratioILl1ELl1000EEEEEE12iso_week_numEii
FNA:14,61315,_ZNK3fmt3v126detail9tm_writerINS0_14basic_appenderIcEEcNSt3__16chrono8durationIxNS5_5ratioILl1ELl1EEEEEE12iso_week_numEii
FNA:14,0,_ZNK3fmt3v126detail9tm_writerINS0_14basic_appenderIcEEcNSt3__16chrono8durationIxNS5_5ratioILl1ELl3EEEEEE12iso_week_numEii
FNA:14,0,_ZNK3fmt3v126detail9tm_writerINS0_14basic_appenderIcEEcNSt3__16chrono8durationIxNS5_5ratioILl31556952ELl1EEEEEE12iso_week_numEii
FNA:14,0,_ZNK3fmt3v126detail9tm_writerINS0_14basic_appenderIwEEwNSt3__16chrono8durationIxNS5_5ratioILl1ELl1EEEEEE12iso_week_numEii
FNL:15,1118,1124
FNA:15,0,_ZNK3fmt3v126detail9tm_writerINS0_14basic_appenderIcEEcNSt3__16chrono8durationIdNS5_5ratioILl1ELl1EEEEEE16tm_iso_week_yearEv
FNA:15,0,_ZNK3fmt3v126detail9tm_writerINS0_14basic_appenderIcEEcNSt3__16chrono8durationIdNS5_5ratioILl1ELl3EEEEEE16tm_iso_week_yearEv
FNA:15,0,_ZNK3fmt3v126detail9tm_writerINS0_14basic_appenderIcEEcNSt3__16chrono8durationIiNS5_5ratioILl63ELl1EEEEEE16tm_iso_week_yearEv
FNA:15,0,_ZNK3fmt3v126detail9tm_writerINS0_14basic_appenderIcEEcNSt3__16chrono8durationIiNS5_5ratioILl9ELl1EEEEEE16tm_iso_week_yearEv
FNA:15,0,_ZNK3fmt3v126detail9tm_writerINS0_14basic_appenderIcEEcNSt3__16chrono8durationIlNS5_5ratioILl60ELl1EEEEEE16tm_iso_week_yearEv
FNA:15,0,_ZNK3fmt3v126detail9tm_writerINS0_14basic_appenderIcEEcNSt3__16chrono8durationIxNS5_5ratioILl1ELl1000000000EEEEEE16tm_iso_week_yearEv
FNA:15,0,_ZNK3fmt3v126detail9tm_writerINS0_14basic_appenderIcEEcNSt3__16chrono8durationIxNS5_5ratioILl1ELl1000000EEEEEE16tm_iso_week_yearEv
FNA:15,0,_ZNK3fmt3v126detail9tm_writerINS0_14basic_appenderIcEEcNSt3__16chrono8durationIxNS5_5ratioILl1ELl1000EEEEEE16tm_iso_week_yearEv
FNA:15,40873,_ZNK3fmt3v126detail9tm_writerINS0_14basic_appenderIcEEcNSt3__16chrono8durationIxNS5_5ratioILl1ELl1EEEEEE16tm_iso_week_yearEv
FNA:15,0,_ZNK3fmt3v126detail9tm_writerINS0_14basic_appenderIcEEcNSt3__16chrono8durationIxNS5_5ratioILl1ELl3EEEEEE16tm_iso_week_yearEv
FNA:15,0,_ZNK3fmt3v126detail9tm_writerINS0_14basic_appenderIcEEcNSt3__16chrono8durationIxNS5_5ratioILl31556952ELl1EEEEEE16tm_iso_week_yearEv
FNA:15,0,_ZNK3fmt3v126detail9tm_writerINS0_14basic_appenderIwEEwNSt3__16chrono8durationIxNS5_5ratioILl1ELl1EEEEEE16tm_iso_week_yearEv
FNL:16,1125,1131
FNA:16,0,_ZNK3fmt3v126detail9tm_writerINS0_14basic_appenderIcEEcNSt3__16chrono8durationIdNS5_5ratioILl1ELl1EEEEEE19tm_iso_week_of_yearEv
FNA:16,0,_ZNK3fmt3v126detail9tm_writerINS0_14basic_appenderIcEEcNSt3__16chrono8durationIdNS5_5ratioILl1ELl3EEEEEE19tm_iso_week_of_yearEv
FNA:16,0,_ZNK3fmt3v126detail9tm_writerINS0_14basic_appenderIcEEcNSt3__16chrono8durationIiNS5_5ratioILl63ELl1EEEEEE19tm_iso_week_of_yearEv
FNA:16,0,_ZNK3fmt3v126detail9tm_writerINS0_14basic_appenderIcEEcNSt3__16chrono8durationIiNS5_5ratioILl9ELl1EEEEEE19tm_iso_week_of_yearEv
FNA:16,0,_ZNK3fmt3v126detail9tm_writerINS0_14basic_appenderIcEEcNSt3__16chrono8durationIlNS5_5ratioILl60ELl1EEEEEE19tm_iso_week_of_yearEv
FNA:16,0,_ZNK3fmt3v126detail9tm_writerINS0_14basic_appenderIcEEcNSt3__16chrono8durationIxNS5_5ratioILl1ELl1000000000EEEEEE19tm_iso_week_of_yearEv
FNA:16,0,_ZNK3fmt3v126detail9tm_writerINS0_14basic_appenderIcEEcNSt3__16chrono8durationIxNS5_5ratioILl1ELl1000000EEEEEE19tm_iso_week_of_yearEv
FNA:16,0,_ZNK3fmt3v126detail9tm_writerINS0_14basic_appenderIcEEcNSt3__16chrono8durationIxNS5_5ratioILl1ELl1000EEEEEE19tm_iso_week_of_yearEv
FNA:16,20442,_ZNK3fmt3v126detail9tm_writerINS0_14basic_appenderIcEEcNSt3__16chrono8durationIxNS5_5ratioILl1ELl1EEEEEE19tm_iso_week_of_yearEv
FNA:16,0,_ZNK3fmt3v126detail9tm_writerINS0_14basic_appenderIcEEcNSt3__16chrono8durationIxNS5_5ratioILl1ELl3EEEEEE19tm_iso_week_of_yearEv
FNA:16,0,_ZNK3fmt3v126detail9tm_writerINS0_14basic_appenderIcEEcNSt3__16chrono8durationIxNS5_5ratioILl31556952ELl1EEEEEE19tm_iso_week_of_yearEv
FNA:16,0,_ZNK3fmt3v126detail9tm_writerINS0_14basic_appenderIwEEwNSt3__16chrono8durationIxNS5_5ratioILl1ELl1EEEEEE19tm_iso_week_of_yearEv
FNL:17,1133,1135
FNA:17,0,_ZN3fmt3v126detail9tm_writerINS0_14basic_appenderIcEEcNSt3__16chrono8durationIdNS5_5ratioILl1ELl1EEEEEE6write1Ei
FNA:17,0,_ZN3fmt3v126detail9tm_writerINS0_14basic_appenderIcEEcNSt3__16chrono8durationIdNS5_5ratioILl1ELl3EEEEEE6write1Ei
FNA:17,0,_ZN3fmt3v126detail9tm_writerINS0_14basic_appenderIcEEcNSt3__16chrono8durationIiNS5_5ratioILl63ELl1EEEEEE6write1Ei
FNA:17,0,_ZN3fmt3v126detail9tm_writerINS0_14basic_appenderIcEEcNSt3__16chrono8durationIiNS5_5ratioILl9ELl1EEEEEE6write1Ei
FNA:17,0,_ZN3fmt3v126detail9tm_writerINS0_14basic_appenderIcEEcNSt3__16chrono8durationIlNS5_5ratioILl60ELl1EEEEEE6write1Ei
FNA:17,0,_ZN3fmt3v126detail9tm_writerINS0_14basic_appenderIcEEcNSt3__16chrono8durationIxNS5_5ratioILl1ELl1000000000EEEEEE6write1Ei
FNA:17,0,_ZN3fmt3v126detail9tm_writerINS0_14basic_appenderIcEEcNSt3__16chrono8durationIxNS5_5ratioILl1ELl1000000EEEEEE6write1Ei
FNA:17,0,_ZN3fmt3v126detail9tm_writerINS0_14basic_appenderIcEEcNSt3__16chrono8durationIxNS5_5ratioILl1ELl1000EEEEEE6write1Ei
FNA:17,12,_ZN3fmt3v126detail9tm_writerINS0_14basic_appenderIcEEcNSt3__16chrono8durationIxNS5_5ratioILl1ELl1EEEEEE6write1Ei
FNA:17,0,_ZN3fmt3v126detail9tm_writerINS0_14basic_appenderIcEEcNSt3__16chrono8durationIxNS5_5ratioILl1ELl3EEEEEE6write1Ei
FNA:17,0,_ZN3fmt3v126detail9tm_writerINS0_14basic_appenderIcEEcNSt3__16chrono8durationIxNS5_5ratioILl31556952ELl1EEEEEE6write1Ei
FNA:17,0,_ZN3fmt3v126detail9tm_writerINS0_14basic_appenderIwEEwNSt3__16chrono8durationIxNS5_5ratioILl1ELl1EEEEEE6write1Ei
FNL:18,1136,1140
FNA:18,0,_ZN3fmt3v126detail9tm_writerINS0_14basic_appenderIcEEcNSt3__16chrono8durationIdNS5_5ratioILl1ELl1EEEEEE6write2Ei
FNA:18,0,_ZN3fmt3v126detail9tm_writerINS0_14basic_appenderIcEEcNSt3__16chrono8durationIdNS5_5ratioILl1ELl3EEEEEE6write2Ei
FNA:18,0,_ZN3fmt3v126detail9tm_writerINS0_14basic_appenderIcEEcNSt3__16chrono8durationIiNS5_5ratioILl63ELl1EEEEEE6write2Ei
FNA:18,0,_ZN3fmt3v126detail9tm_writerINS0_14basic_appenderIcEEcNSt3__16chrono8durationIiNS5_5ratioILl9ELl1EEEEEE6write2Ei
FNA:18,0,_ZN3fmt3v126detail9tm_writerINS0_14basic_appenderIcEEcNSt3__16chrono8durationIlNS5_5ratioILl60ELl1EEEEEE6write2Ei
FNA:18,2,_ZN3fmt3v126detail9tm_writerINS0_14basic_appenderIcEEcNSt3__16chrono8durationIxNS5_5ratioILl1ELl1000000000EEEEEE6write2Ei
FNA:18,0,_ZN3fmt3v126detail9tm_writerINS0_14basic_appenderIcEEcNSt3__16chrono8durationIxNS5_5ratioILl1ELl1000000EEEEEE6write2Ei
FNA:18,0,_ZN3fmt3v126detail9tm_writerINS0_14basic_appenderIcEEcNSt3__16chrono8durationIxNS5_5ratioILl1ELl1000EEEEEE6write2Ei
FNA:18,20609,_ZN3fmt3v126detail9tm_writerINS0_14basic_appenderIcEEcNSt3__16chrono8durationIxNS5_5ratioILl1ELl1EEEEEE6write2Ei
FNA:18,0,_ZN3fmt3v126detail9tm_writerINS0_14basic_appenderIcEEcNSt3__16chrono8durationIxNS5_5ratioILl1ELl3EEEEEE6write2Ei
FNA:18,0,_ZN3fmt3v126detail9tm_writerINS0_14basic_appenderIcEEcNSt3__16chrono8durationIxNS5_5ratioILl31556952ELl1EEEEEE6write2Ei
FNA:18,2,_ZN3fmt3v126detail9tm_writerINS0_14basic_appenderIwEEwNSt3__16chrono8durationIxNS5_5ratioILl1ELl1EEEEEE6write2Ei
FNL:19,1141,1151
FNA:19,2,_ZN3fmt3v126detail9tm_writerINS0_14basic_appenderIcEEcNSt3__16chrono8durationIdNS5_5ratioILl1ELl1EEEEEE6write2EiNS1_8pad_typeE
FNA:19,1,_ZN3fmt3v126detail9tm_writerINS0_14basic_appenderIcEEcNSt3__16chrono8durationIdNS5_5ratioILl1ELl3EEEEEE6write2EiNS1_8pad_typeE
FNA:19,2,_ZN3fmt3v126detail9tm_writerINS0_14basic_appenderIcEEcNSt3__16chrono8durationIiNS5_5ratioILl63ELl1EEEEEE6write2EiNS1_8pad_typeE
FNA:19,2,_ZN3fmt3v126detail9tm_writerINS0_14basic_appenderIcEEcNSt3__16chrono8durationIiNS5_5ratioILl9ELl1EEEEEE6write2EiNS1_8pad_typeE
FNA:19,2,_ZN3fmt3v126detail9tm_writerINS0_14basic_appenderIcEEcNSt3__16chrono8durationIlNS5_5ratioILl60ELl1EEEEEE6write2EiNS1_8pad_typeE
FNA:19,2,_ZN3fmt3v126detail9tm_writerINS0_14basic_appenderIcEEcNSt3__16chrono8durationIxNS5_5ratioILl1ELl1000000000EEEEEE6write2EiNS1_8pad_typeE
FNA:19,19,_ZN3fmt3v126detail9tm_writerINS0_14basic_appenderIcEEcNSt3__16chrono8durationIxNS5_5ratioILl1ELl1000000EEEEEE6write2EiNS1_8pad_typeE
FNA:19,9,_ZN3fmt3v126detail9tm_writerINS0_14basic_appenderIcEEcNSt3__16chrono8durationIxNS5_5ratioILl1ELl1000EEEEEE6write2EiNS1_8pad_typeE
FNA:19,61567,_ZN3fmt3v126detail9tm_writerINS0_14basic_appenderIcEEcNSt3__16chrono8durationIxNS5_5ratioILl1ELl1EEEEEE6write2EiNS1_8pad_typeE
FNA:19,1,_ZN3fmt3v126detail9tm_writerINS0_14basic_appenderIcEEcNSt3__16chrono8durationIxNS5_5ratioILl1ELl3EEEEEE6write2EiNS1_8pad_typeE
FNA:19,0,_ZN3fmt3v126detail9tm_writerINS0_14basic_appenderIcEEcNSt3__16chrono8durationIxNS5_5ratioILl31556952ELl1EEEEEE6write2EiNS1_8pad_typeE
FNA:19,1,_ZN3fmt3v126detail9tm_writerINS0_14basic_appenderIwEEwNSt3__16chrono8durationIxNS5_5ratioILl1ELl1EEEEEE6write2EiNS1_8pad_typeE
FNL:20,1153,1168
FNA:20,0,_ZN3fmt3v126detail9tm_writerINS0_14basic_appenderIcEEcNSt3__16chrono8durationIdNS5_5ratioILl1ELl1EEEEEE19write_year_extendedExNS1_8pad_typeE
FNA:20,0,_ZN3fmt3v126detail9tm_writerINS0_14basic_appenderIcEEcNSt3__16chrono8durationIdNS5_5ratioILl1ELl3EEEEEE19write_year_extendedExNS1_8pad_typeE
FNA:20,0,_ZN3fmt3v126detail9tm_writerINS0_14basic_appenderIcEEcNSt3__16chrono8durationIiNS5_5ratioILl63ELl1EEEEEE19write_year_extendedExNS1_8pad_typeE
FNA:20,0,_ZN3fmt3v126detail9tm_writerINS0_14basic_appenderIcEEcNSt3__16chrono8durationIiNS5_5ratioILl9ELl1EEEEEE19write_year_extendedExNS1_8pad_typeE
FNA:20,0,_ZN3fmt3v126detail9tm_writerINS0_14basic_appenderIcEEcNSt3__16chrono8durationIlNS5_5ratioILl60ELl1EEEEEE19write_year_extendedExNS1_8pad_typeE
FNA:20,0,_ZN3fmt3v126detail9tm_writerINS0_14basic_appenderIcEEcNSt3__16chrono8durationIxNS5_5ratioILl1ELl1000000000EEEEEE19write_year_extendedExNS1_8pad_typeE
FNA:20,0,_ZN3fmt3v126detail9tm_writerINS0_14basic_appenderIcEEcNSt3__16chrono8durationIxNS5_5ratioILl1ELl1000000EEEEEE19write_year_extendedExNS1_8pad_typeE
FNA:20,1,_ZN3fmt3v126detail9tm_writerINS0_14basic_appenderIcEEcNSt3__16chrono8durationIxNS5_5ratioILl1ELl1000EEEEEE19write_year_extendedExNS1_8pad_typeE
FNA:20,40947,_ZN3fmt3v126detail9tm_writerINS0_14basic_appenderIcEEcNSt3__16chrono8durationIxNS5_5ratioILl1ELl1EEEEEE19write_year_extendedExNS1_8pad_typeE
FNA:20,0,_ZN3fmt3v126detail9tm_writerINS0_14basic_appenderIcEEcNSt3__16chrono8durationIxNS5_5ratioILl1ELl3EEEEEE19write_year_extendedExNS1_8pad_typeE
FNA:20,0,_ZN3fmt3v126detail9tm_writerINS0_14basic_appenderIcEEcNSt3__16chrono8durationIxNS5_5ratioILl31556952ELl1EEEEEE19write_year_extendedExNS1_8pad_typeE
FNA:20,0,_ZN3fmt3v126detail9tm_writerINS0_14basic_appenderIwEEwNSt3__16chrono8durationIxNS5_5ratioILl1ELl1EEEEEE19write_year_extendedExNS1_8pad_typeE
FNL:21,1169,1171
FNA:21,0,_ZN3fmt3v126detail9tm_writerINS0_14basic_appenderIcEEcNSt3__16chrono8durationIdNS5_5ratioILl1ELl1EEEEEE10write_yearExNS1_8pad_typeE
FNA:21,0,_ZN3fmt3v126detail9tm_writerINS0_14basic_appenderIcEEcNSt3__16chrono8durationIdNS5_5ratioILl1ELl3EEEEEE10write_yearExNS1_8pad_typeE
FNA:21,0,_ZN3fmt3v126detail9tm_writerINS0_14basic_appenderIcEEcNSt3__16chrono8durationIiNS5_5ratioILl63ELl1EEEEEE10write_yearExNS1_8pad_typeE
FNA:21,0,_ZN3fmt3v126detail9tm_writerINS0_14basic_appenderIcEEcNSt3__16chrono8durationIiNS5_5ratioILl9ELl1EEEEEE10write_yearExNS1_8pad_typeE
FNA:21,0,_ZN3fmt3v126detail9tm_writerINS0_14basic_appenderIcEEcNSt3__16chrono8durationIlNS5_5ratioILl60ELl1EEEEEE10write_yearExNS1_8pad_typeE
FNA:21,0,_ZN3fmt3v126detail9tm_writerINS0_14basic_appenderIcEEcNSt3__16chrono8durationIxNS5_5ratioILl1ELl1000000000EEEEEE10write_yearExNS1_8pad_typeE
FNA:21,0,_ZN3fmt3v126detail9tm_writerINS0_14basic_appenderIcEEcNSt3__16chrono8durationIxNS5_5ratioILl1ELl1000000EEEEEE10write_yearExNS1_8pad_typeE
FNA:21,1,_ZN3fmt3v126detail9tm_writerINS0_14basic_appenderIcEEcNSt3__16chrono8durationIxNS5_5ratioILl1ELl1000EEEEEE10write_yearExNS1_8pad_typeE
FNA:21,40945,_ZN3fmt3v126detail9tm_writerINS0_14basic_appenderIcEEcNSt3__16chrono8durationIxNS5_5ratioILl1ELl1EEEEEE10write_yearExNS1_8pad_typeE
FNA:21,0,_ZN3fmt3v126detail9tm_writerINS0_14basic_appenderIcEEcNSt3__16chrono8durationIxNS5_5ratioILl1ELl3EEEEEE10write_yearExNS1_8pad_typeE
FNA:21,0,_ZN3fmt3v126detail9tm_writerINS0_14basic_appenderIcEEcNSt3__16chrono8durationIxNS5_5ratioILl31556952ELl1EEEEEE10write_yearExNS1_8pad_typeE
FNA:21,0,_ZN3fmt3v126detail9tm_writerINS0_14basic_appenderIwEEwNSt3__16chrono8durationIxNS5_5ratioILl1ELl1EEEEEE10write_yearExNS1_8pad_typeE
FNL:22,1173,1184
FNA:22,0,_ZN3fmt3v126detail9tm_writerINS0_14basic_appenderIcEEcNSt3__16chrono8durationIdNS5_5ratioILl1ELl1EEEEEE16write_utc_offsetExNS1_14numeric_systemE
FNA:22,0,_ZN3fmt3v126detail9tm_writerINS0_14basic_appenderIcEEcNSt3__16chrono8durationIdNS5_5ratioILl1ELl3EEEEEE16write_utc_offsetExNS1_14numeric_systemE
FNA:22,0,_ZN3fmt3v126detail9tm_writerINS0_14basic_appenderIcEEcNSt3__16chrono8durationIiNS5_5ratioILl63ELl1EEEEEE16write_utc_offsetExNS1_14numeric_systemE
FNA:22,0,_ZN3fmt3v126detail9tm_writerINS0_14basic_appenderIcEEcNSt3__16chrono8durationIiNS5_5ratioILl9ELl1EEEEEE16write_utc_offsetExNS1_14numeric_systemE
FNA:22,0,_ZN3fmt3v126detail9tm_writerINS0_14basic_appenderIcEEcNSt3__16chrono8durationIlNS5_5ratioILl60ELl1EEEEEE16write_utc_offsetExNS1_14numeric_systemE
FNA:22,0,_ZN3fmt3v126detail9tm_writerINS0_14basic_appenderIcEEcNSt3__16chrono8durationIxNS5_5ratioILl1ELl1000000000EEEEEE16write_utc_offsetExNS1_14numeric_systemE
FNA:22,0,_ZN3fmt3v126detail9tm_writerINS0_14basic_appenderIcEEcNSt3__16chrono8durationIxNS5_5ratioILl1ELl1000000EEEEEE16write_utc_offsetExNS1_14numeric_systemE
FNA:22,0,_ZN3fmt3v126detail9tm_writerINS0_14basic_appenderIcEEcNSt3__16chrono8durationIxNS5_5ratioILl1ELl1000EEEEEE16write_utc_offsetExNS1_14numeric_systemE
FNA:22,6,_ZN3fmt3v126detail9tm_writerINS0_14basic_appenderIcEEcNSt3__16chrono8durationIxNS5_5ratioILl1ELl1EEEEEE16write_utc_offsetExNS1_14numeric_systemE
FNA:22,0,_ZN3fmt3v126detail9tm_writerINS0_14basic_appenderIcEEcNSt3__16chrono8durationIxNS5_5ratioILl1ELl3EEEEEE16write_utc_offsetExNS1_14numeric_systemE
FNA:22,0,_ZN3fmt3v126detail9tm_writerINS0_14basic_appenderIcEEcNSt3__16chrono8durationIxNS5_5ratioILl31556952ELl1EEEEEE16write_utc_offsetExNS1_14numeric_systemE
FNA:22,0,_ZN3fmt3v126detail9tm_writerINS0_14basic_appenderIwEEwNSt3__16chrono8durationIxNS5_5ratioILl1ELl1EEEEEE16write_utc_offsetExNS1_14numeric_systemE
FNL:23,1187,1189
FNA:23,0,_ZN3fmt3v126detail9tm_writerINS0_14basic_appenderIcEEcNSt3__16chrono8durationIdNS5_5ratioILl1ELl1EEEEEE17format_utc_offsetI2tmLi0EEEvRKT_NS1_14numeric_systemE
FNA:23,0,_ZN3fmt3v126detail9tm_writerINS0_14basic_appenderIcEEcNSt3__16chrono8durationIdNS5_5ratioILl1ELl3EEEEEE17format_utc_offsetI2tmLi0EEEvRKT_NS1_14numeric_systemE
FNA:23,0,_ZN3fmt3v126detail9tm_writerINS0_14basic_appenderIcEEcNSt3__16chrono8durationIiNS5_5ratioILl63ELl1EEEEEE17format_utc_offsetI2tmLi0EEEvRKT_NS1_14numeric_systemE
FNA:23,0,_ZN3fmt3v126detail9tm_writerINS0_14basic_appenderIcEEcNSt3__16chrono8durationIiNS5_5ratioILl9ELl1EEEEEE17format_utc_offsetI2tmLi0EEEvRKT_NS1_14numeric_systemE
FNA:23,0,_ZN3fmt3v126detail9tm_writerINS0_14basic_appenderIcEEcNSt3__16chrono8durationIlNS5_5ratioILl60ELl1EEEEEE17format_utc_offsetI2tmLi0EEEvRKT_NS1_14numeric_systemE
FNA:23,0,_ZN3fmt3v126detail9tm_writerINS0_14basic_appenderIcEEcNSt3__16chrono8durationIxNS5_5ratioILl1ELl1000000000EEEEEE17format_utc_offsetI2tmLi0EEEvRKT_NS1_14numeric_systemE
FNA:23,0,_ZN3fmt3v126detail9tm_writerINS0_14basic_appenderIcEEcNSt3__16chrono8durationIxNS5_5ratioILl1ELl1000000EEEEEE17format_utc_offsetI2tmLi0EEEvRKT_NS1_14numeric_systemE
FNA:23,0,_ZN3fmt3v126detail9tm_writerINS0_14basic_appenderIcEEcNSt3__16chrono8durationIxNS5_5ratioILl1ELl1000EEEEEE17format_utc_offsetI2tmLi0EEEvRKT_NS1_14numeric_systemE
FNA:23,6,_ZN3fmt3v126detail9tm_writerINS0_14basic_appenderIcEEcNSt3__16chrono8durationIxNS5_5ratioILl1ELl1EEEEEE17format_utc_offsetI2tmLi0EEEvRKT_NS1_14numeric_systemE
FNA:23,0,_ZN3fmt3v126detail9tm_writerINS0_14basic_appenderIcEEcNSt3__16chrono8durationIxNS5_5ratioILl1ELl3EEEEEE17format_utc_offsetI2tmLi0EEEvRKT_NS1_14numeric_systemE
FNA:23,0,_ZN3fmt3v126detail9tm_writerINS0_14basic_appenderIcEEcNSt3__16chrono8durationIxNS5_5ratioILl31556952ELl1EEEEEE17format_utc_offsetI2tmLi0EEEvRKT_NS1_14numeric_systemE
FNA:23,0,_ZN3fmt3v126detail9tm_writerINS0_14basic_appenderIwEEwNSt3__16chrono8durationIxNS5_5ratioILl1ELl1EEEEEE17format_utc_offsetI2tmLi0EEEvRKT_NS1_14numeric_systemE
FNL:24,1196,1198
FNA:24,0,_ZN3fmt3v126detail9tm_writerINS0_14basic_appenderIcEEcNSt3__16chrono8durationIdNS5_5ratioILl1ELl1EEEEEE14format_tz_nameI2tmLi0EEEvRKT_
FNA:24,0,_ZN3fmt3v126detail9tm_writerINS0_14basic_appenderIcEEcNSt3__16chrono8durationIdNS5_5ratioILl1ELl3EEEEEE14format_tz_nameI2tmLi0EEEvRKT_
FNA:24,0,_ZN3fmt3v126detail9tm_writerINS0_14basic_appenderIcEEcNSt3__16chrono8durationIiNS5_5ratioILl63ELl1EEEEEE14format_tz_nameI2tmLi0EEEvRKT_
FNA:24,0,_ZN3fmt3v126detail9tm_writerINS0_14basic_appenderIcEEcNSt3__16chrono8durationIiNS5_5ratioILl9ELl1EEEEEE14format_tz_nameI2tmLi0EEEvRKT_
FNA:24,0,_ZN3fmt3v126detail9tm_writerINS0_14basic_appenderIcEEcNSt3__16chrono8durationIlNS5_5ratioILl60ELl1EEEEEE14format_tz_nameI2tmLi0EEEvRKT_
FNA:24,0,_ZN3fmt3v126detail9tm_writerINS0_14basic_appenderIcEEcNSt3__16chrono8durationIxNS5_5ratioILl1ELl1000000000EEEEEE14format_tz_nameI2tmLi0EEEvRKT_
FNA:24,0,_ZN3fmt3v126detail9tm_writerINS0_14basic_appenderIcEEcNSt3__16chrono8durationIxNS5_5ratioILl1ELl1000000EEEEEE14format_tz_nameI2tmLi0EEEvRKT_
FNA:24,0,_ZN3fmt3v126detail9tm_writerINS0_14basic_appenderIcEEcNSt3__16chrono8durationIxNS5_5ratioILl1ELl1000EEEEEE14format_tz_nameI2tmLi0EEEvRKT_
FNA:24,2,_ZN3fmt3v126detail9tm_writerINS0_14basic_appenderIcEEcNSt3__16chrono8durationIxNS5_5ratioILl1ELl1EEEEEE14format_tz_nameI2tmLi0EEEvRKT_
FNA:24,0,_ZN3fmt3v126detail9tm_writerINS0_14basic_appenderIcEEcNSt3__16chrono8durationIxNS5_5ratioILl1ELl3EEEEEE14format_tz_nameI2tmLi0EEEvRKT_
FNA:24,0,_ZN3fmt3v126detail9tm_writerINS0_14basic_appenderIcEEcNSt3__16chrono8durationIxNS5_5ratioILl31556952ELl1EEEEEE14format_tz_nameI2tmLi0EEEvRKT_
FNA:24,0,_ZN3fmt3v126detail9tm_writerINS0_14basic_appenderIwEEwNSt3__16chrono8durationIxNS5_5ratioILl1ELl1EEEEEE14format_tz_nameI2tmLi0EEEvRKT_
FNL:25,1204,1206
FNA:25,0,_ZN3fmt3v126detail9tm_writerINS0_14basic_appenderIcEEcNSt3__16chrono8durationIdNS5_5ratioILl1ELl1EEEEEE16format_localizedEcc
FNA:25,0,_ZN3fmt3v126detail9tm_writerINS0_14basic_appenderIcEEcNSt3__16chrono8durationIdNS5_5ratioILl1ELl3EEEEEE16format_localizedEcc
FNA:25,0,_ZN3fmt3v126detail9tm_writerINS0_14basic_appenderIcEEcNSt3__16chrono8durationIiNS5_5ratioILl63ELl1EEEEEE16format_localizedEcc
FNA:25,0,_ZN3fmt3v126detail9tm_writerINS0_14basic_appenderIcEEcNSt3__16chrono8durationIiNS5_5ratioILl9ELl1EEEEEE16format_localizedEcc
FNA:25,0,_ZN3fmt3v126detail9tm_writerINS0_14basic_appenderIcEEcNSt3__16chrono8durationIlNS5_5ratioILl60ELl1EEEEEE16format_localizedEcc
FNA:25,0,_ZN3fmt3v126detail9tm_writerINS0_14basic_appenderIcEEcNSt3__16chrono8durationIxNS5_5ratioILl1ELl1000000000EEEEEE16format_localizedEcc
FNA:25,0,_ZN3fmt3v126detail9tm_writerINS0_14basic_appenderIcEEcNSt3__16chrono8durationIxNS5_5ratioILl1ELl1000000EEEEEE16format_localizedEcc
FNA:25,0,_ZN3fmt3v126detail9tm_writerINS0_14basic_appenderIcEEcNSt3__16chrono8durationIxNS5_5ratioILl1ELl1000EEEEEE16format_localizedEcc
FNA:25,6,_ZN3fmt3v126detail9tm_writerINS0_14basic_appenderIcEEcNSt3__16chrono8durationIxNS5_5ratioILl1ELl1EEEEEE16format_localizedEcc
FNA:25,0,_ZN3fmt3v126detail9tm_writerINS0_14basic_appenderIcEEcNSt3__16chrono8durationIxNS5_5ratioILl1ELl3EEEEEE16format_localizedEcc
FNA:25,0,_ZN3fmt3v126detail9tm_writerINS0_14basic_appenderIcEEcNSt3__16chrono8durationIxNS5_5ratioILl31556952ELl1EEEEEE16format_localizedEcc
FNA:25,1,_ZN3fmt3v126detail9tm_writerINS0_14basic_appenderIwEEwNSt3__16chrono8durationIxNS5_5ratioILl1ELl1EEEEEE16format_localizedEcc
FNL:26,1209,1215
FNA:26,2,_ZN3fmt3v126detail9tm_writerINS0_14basic_appenderIcEEcNSt3__16chrono8durationIdNS5_5ratioILl1ELl1EEEEEEC1ERKNS5_6localeES4_RK2tmPKSA_
FNA:26,2,_ZN3fmt3v126detail9tm_writerINS0_14basic_appenderIcEEcNSt3__16chrono8durationIdNS5_5ratioILl1ELl1EEEEEEC2ERKNS5_6localeES4_RK2tmPKSA_
FNA:26,1,_ZN3fmt3v126detail9tm_writerINS0_14basic_appenderIcEEcNSt3__16chrono8durationIdNS5_5ratioILl1ELl3EEEEEEC1ERKNS5_6localeES4_RK2tmPKSA_
FNA:26,1,_ZN3fmt3v126detail9tm_writerINS0_14basic_appenderIcEEcNSt3__16chrono8durationIdNS5_5ratioILl1ELl3EEEEEEC2ERKNS5_6localeES4_RK2tmPKSA_
FNA:26,1,_ZN3fmt3v126detail9tm_writerINS0_14basic_appenderIcEEcNSt3__16chrono8durationIiNS5_5ratioILl63ELl1EEEEEEC1ERKNS5_6localeES4_RK2tmPKSA_
FNA:26,1,_ZN3fmt3v126detail9tm_writerINS0_14basic_appenderIcEEcNSt3__16chrono8durationIiNS5_5ratioILl63ELl1EEEEEEC2ERKNS5_6localeES4_RK2tmPKSA_
FNA:26,1,_ZN3fmt3v126detail9tm_writerINS0_14basic_appenderIcEEcNSt3__16chrono8durationIiNS5_5ratioILl9ELl1EEEEEEC1ERKNS5_6localeES4_RK2tmPKSA_
FNA:26,1,_ZN3fmt3v126detail9tm_writerINS0_14basic_appenderIcEEcNSt3__16chrono8durationIiNS5_5ratioILl9ELl1EEEEEEC2ERKNS5_6localeES4_RK2tmPKSA_
FNA:26,1,_ZN3fmt3v126detail9tm_writerINS0_14basic_appenderIcEEcNSt3__16chrono8durationIlNS5_5ratioILl60ELl1EEEEEEC1ERKNS5_6localeES4_RK2tmPKSA_
FNA:26,1,_ZN3fmt3v126detail9tm_writerINS0_14basic_appenderIcEEcNSt3__16chrono8durationIlNS5_5ratioILl60ELl1EEEEEEC2ERKNS5_6localeES4_RK2tmPKSA_
FNA:26,2,_ZN3fmt3v126detail9tm_writerINS0_14basic_appenderIcEEcNSt3__16chrono8durationIxNS5_5ratioILl1ELl1000000000EEEEEEC1ERKNS5_6localeES4_RK2tmPKSA_
FNA:26,2,_ZN3fmt3v126detail9tm_writerINS0_14basic_appenderIcEEcNSt3__16chrono8durationIxNS5_5ratioILl1ELl1000000000EEEEEEC2ERKNS5_6localeES4_RK2tmPKSA_
FNA:26,10,_ZN3fmt3v126detail9tm_writerINS0_14basic_appenderIcEEcNSt3__16chrono8durationIxNS5_5ratioILl1ELl1000000EEEEEEC1ERKNS5_6localeES4_RK2tmPKSA_
FNA:26,10,_ZN3fmt3v126detail9tm_writerINS0_14basic_appenderIcEEcNSt3__16chrono8durationIxNS5_5ratioILl1ELl1000000EEEEEEC2ERKNS5_6localeES4_RK2tmPKSA_
FNA:26,7,_ZN3fmt3v126detail9tm_writerINS0_14basic_appenderIcEEcNSt3__16chrono8durationIxNS5_5ratioILl1ELl1000EEEEEEC1ERKNS5_6localeES4_RK2tmPKSA_
FNA:26,7,_ZN3fmt3v126detail9tm_writerINS0_14basic_appenderIcEEcNSt3__16chrono8durationIxNS5_5ratioILl1ELl1000EEEEEEC2ERKNS5_6localeES4_RK2tmPKSA_
FNA:26,20725,_ZN3fmt3v126detail9tm_writerINS0_14basic_appenderIcEEcNSt3__16chrono8durationIxNS5_5ratioILl1ELl1EEEEEEC1ERKNS5_6localeES4_RK2tmPKSA_
FNA:26,20725,_ZN3fmt3v126detail9tm_writerINS0_14basic_appenderIcEEcNSt3__16chrono8durationIxNS5_5ratioILl1ELl1EEEEEEC2ERKNS5_6localeES4_RK2tmPKSA_
FNA:26,1,_ZN3fmt3v126detail9tm_writerINS0_14basic_appenderIcEEcNSt3__16chrono8durationIxNS5_5ratioILl1ELl3EEEEEEC1ERKNS5_6localeES4_RK2tmPKSA_
FNA:26,1,_ZN3fmt3v126detail9tm_writerINS0_14basic_appenderIcEEcNSt3__16chrono8durationIxNS5_5ratioILl1ELl3EEEEEEC2ERKNS5_6localeES4_RK2tmPKSA_
FNA:26,0,_ZN3fmt3v126detail9tm_writerINS0_14basic_appenderIcEEcNSt3__16chrono8durationIxNS5_5ratioILl31556952ELl1EEEEEEC1ERKNS5_6localeES4_RK2tmPKSA_
FNA:26,0,_ZN3fmt3v126detail9tm_writerINS0_14basic_appenderIcEEcNSt3__16chrono8durationIxNS5_5ratioILl31556952ELl1EEEEEEC2ERKNS5_6localeES4_RK2tmPKSA_
FNA:26,4,_ZN3fmt3v126detail9tm_writerINS0_14basic_appenderIwEEwNSt3__16chrono8durationIxNS5_5ratioILl1ELl1EEEEEEC1ERKNS5_6localeES4_RK2tmPKSA_
FNA:26,4,_ZN3fmt3v126detail9tm_writerINS0_14basic_appenderIwEEwNSt3__16chrono8durationIxNS5_5ratioILl1ELl1EEEEEEC2ERKNS5_6localeES4_RK2tmPKSA_
FNL:27,1217,1217
FNA:27,19,_ZNK3fmt3v126detail9tm_writerINS0_14basic_appenderIcEEcNSt3__16chrono8durationIxNS5_5ratioILl1ELl1EEEEEE3outEv
FNA:27,2,_ZNK3fmt3v126detail9tm_writerINS0_14basic_appenderIwEEwNSt3__16chrono8durationIxNS5_5ratioILl1ELl1EEEEEE3outEv
FNL:28,1219,1221
FNA:28,0,_ZN3fmt3v126detail9tm_writerINS0_14basic_appenderIcEEcNSt3__16chrono8durationIdNS5_5ratioILl1ELl1EEEEEE7on_textEPKcSD_
FNA:28,0,_ZN3fmt3v126detail9tm_writerINS0_14basic_appenderIcEEcNSt3__16chrono8durationIdNS5_5ratioILl1ELl3EEEEEE7on_textEPKcSD_
FNA:28,1,_ZN3fmt3v126detail9tm_writerINS0_14basic_appenderIcEEcNSt3__16chrono8durationIiNS5_5ratioILl63ELl1EEEEEE7on_textEPKcSD_
FNA:28,1,_ZN3fmt3v126detail9tm_writerINS0_14basic_appenderIcEEcNSt3__16chrono8durationIiNS5_5ratioILl9ELl1EEEEEE7on_textEPKcSD_
FNA:28,1,_ZN3fmt3v126detail9tm_writerINS0_14basic_appenderIcEEcNSt3__16chrono8durationIlNS5_5ratioILl60ELl1EEEEEE7on_textEPKcSD_
FNA:28,0,_ZN3fmt3v126detail9tm_writerINS0_14basic_appenderIcEEcNSt3__16chrono8durationIxNS5_5ratioILl1ELl1000000000EEEEEE7on_textEPKcSD_
FNA:28,9,_ZN3fmt3v126detail9tm_writerINS0_14basic_appenderIcEEcNSt3__16chrono8durationIxNS5_5ratioILl1ELl1000000EEEEEE7on_textEPKcSD_
FNA:28,3,_ZN3fmt3v126detail9tm_writerINS0_14basic_appenderIcEEcNSt3__16chrono8durationIxNS5_5ratioILl1ELl1000EEEEEE7on_textEPKcSD_
FNA:28,102260,_ZN3fmt3v126detail9tm_writerINS0_14basic_appenderIcEEcNSt3__16chrono8durationIxNS5_5ratioILl1ELl1EEEEEE7on_textEPKcSD_
FNA:28,0,_ZN3fmt3v126detail9tm_writerINS0_14basic_appenderIcEEcNSt3__16chrono8durationIxNS5_5ratioILl1ELl3EEEEEE7on_textEPKcSD_
FNA:28,0,_ZN3fmt3v126detail9tm_writerINS0_14basic_appenderIcEEcNSt3__16chrono8durationIxNS5_5ratioILl31556952ELl1EEEEEE7on_textEPKcSD_
FNA:28,0,_ZN3fmt3v126detail9tm_writerINS0_14basic_appenderIwEEwNSt3__16chrono8durationIxNS5_5ratioILl1ELl1EEEEEE7on_textEPKwSD_
FNL:29,1223,1228
FNA:29,0,_ZN3fmt3v126detail9tm_writerINS0_14basic_appenderIcEEcNSt3__16chrono8durationIdNS5_5ratioILl1ELl1EEEEEE15on_abbr_weekdayEv
FNA:29,0,_ZN3fmt3v126detail9tm_writerINS0_14basic_appenderIcEEcNSt3__16chrono8durationIdNS5_5ratioILl1ELl3EEEEEE15on_abbr_weekdayEv
FNA:29,0,_ZN3fmt3v126detail9tm_writerINS0_14basic_appenderIcEEcNSt3__16chrono8durationIiNS5_5ratioILl63ELl1EEEEEE15on_abbr_weekdayEv
FNA:29,0,_ZN3fmt3v126detail9tm_writerINS0_14basic_appenderIcEEcNSt3__16chrono8durationIiNS5_5ratioILl9ELl1EEEEEE15on_abbr_weekdayEv
FNA:29,0,_ZN3fmt3v126detail9tm_writerINS0_14basic_appenderIcEEcNSt3__16chrono8durationIlNS5_5ratioILl60ELl1EEEEEE15on_abbr_weekdayEv
FNA:29,0,_ZN3fmt3v126detail9tm_writerINS0_14basic_appenderIcEEcNSt3__16chrono8durationIxNS5_5ratioILl1ELl1000000000EEEEEE15on_abbr_weekdayEv
FNA:29,0,_ZN3fmt3v126detail9tm_writerINS0_14basic_appenderIcEEcNSt3__16chrono8durationIxNS5_5ratioILl1ELl1000000EEEEEE15on_abbr_weekdayEv
FNA:29,0,_ZN3fmt3v126detail9tm_writerINS0_14basic_appenderIcEEcNSt3__16chrono8durationIxNS5_5ratioILl1ELl1000EEEEEE15on_abbr_weekdayEv
FNA:29,46,_ZN3fmt3v126detail9tm_writerINS0_14basic_appenderIcEEcNSt3__16chrono8durationIxNS5_5ratioILl1ELl1EEEEEE15on_abbr_weekdayEv
FNA:29,0,_ZN3fmt3v126detail9tm_writerINS0_14basic_appenderIcEEcNSt3__16chrono8durationIxNS5_5ratioILl1ELl3EEEEEE15on_abbr_weekdayEv
FNA:29,0,_ZN3fmt3v126detail9tm_writerINS0_14basic_appenderIcEEcNSt3__16chrono8durationIxNS5_5ratioILl31556952ELl1EEEEEE15on_abbr_weekdayEv
FNA:29,2,_ZN3fmt3v126detail9tm_writerINS0_14basic_appenderIwEEwNSt3__16chrono8durationIxNS5_5ratioILl1ELl1EEEEEE15on_abbr_weekdayEv
FNL:30,1229,1234
FNA:30,0,_ZN3fmt3v126detail9tm_writerINS0_14basic_appenderIcEEcNSt3__16chrono8durationIdNS5_5ratioILl1ELl1EEEEEE15on_full_weekdayEv
FNA:30,0,_ZN3fmt3v126detail9tm_writerINS0_14basic_appenderIcEEcNSt3__16chrono8durationIdNS5_5ratioILl1ELl3EEEEEE15on_full_weekdayEv
FNA:30,0,_ZN3fmt3v126detail9tm_writerINS0_14basic_appenderIcEEcNSt3__16chrono8durationIiNS5_5ratioILl63ELl1EEEEEE15on_full_weekdayEv
FNA:30,0,_ZN3fmt3v126detail9tm_writerINS0_14basic_appenderIcEEcNSt3__16chrono8durationIiNS5_5ratioILl9ELl1EEEEEE15on_full_weekdayEv
FNA:30,0,_ZN3fmt3v126detail9tm_writerINS0_14basic_appenderIcEEcNSt3__16chrono8durationIlNS5_5ratioILl60ELl1EEEEEE15on_full_weekdayEv
FNA:30,0,_ZN3fmt3v126detail9tm_writerINS0_14basic_appenderIcEEcNSt3__16chrono8durationIxNS5_5ratioILl1ELl1000000000EEEEEE15on_full_weekdayEv
FNA:30,0,_ZN3fmt3v126detail9tm_writerINS0_14basic_appenderIcEEcNSt3__16chrono8durationIxNS5_5ratioILl1ELl1000000EEEEEE15on_full_weekdayEv
FNA:30,0,_ZN3fmt3v126detail9tm_writerINS0_14basic_appenderIcEEcNSt3__16chrono8durationIxNS5_5ratioILl1ELl1000EEEEEE15on_full_weekdayEv
FNA:30,4,_ZN3fmt3v126detail9tm_writerINS0_14basic_appenderIcEEcNSt3__16chrono8durationIxNS5_5ratioILl1ELl1EEEEEE15on_full_weekdayEv
FNA:30,0,_ZN3fmt3v126detail9tm_writerINS0_14basic_appenderIcEEcNSt3__16chrono8durationIxNS5_5ratioILl1ELl3EEEEEE15on_full_weekdayEv
FNA:30,0,_ZN3fmt3v126detail9tm_writerINS0_14basic_appenderIcEEcNSt3__16chrono8durationIxNS5_5ratioILl31556952ELl1EEEEEE15on_full_weekdayEv
FNA:30,0,_ZN3fmt3v126detail9tm_writerINS0_14basic_appenderIwEEwNSt3__16chrono8durationIxNS5_5ratioILl1ELl1EEEEEE15on_full_weekdayEv
FNL:31,1235,1238
FNA:31,0,_ZN3fmt3v126detail9tm_writerINS0_14basic_appenderIcEEcNSt3__16chrono8durationIdNS5_5ratioILl1ELl1EEEEEE15on_dec0_weekdayENS1_14numeric_systemE
FNA:31,0,_ZN3fmt3v126detail9tm_writerINS0_14basic_appenderIcEEcNSt3__16chrono8durationIdNS5_5ratioILl1ELl3EEEEEE15on_dec0_weekdayENS1_14numeric_systemE
FNA:31,0,_ZN3fmt3v126detail9tm_writerINS0_14basic_appenderIcEEcNSt3__16chrono8durationIiNS5_5ratioILl63ELl1EEEEEE15on_dec0_weekdayENS1_14numeric_systemE
FNA:31,0,_ZN3fmt3v126detail9tm_writerINS0_14basic_appenderIcEEcNSt3__16chrono8durationIiNS5_5ratioILl9ELl1EEEEEE15on_dec0_weekdayENS1_14numeric_systemE
FNA:31,0,_ZN3fmt3v126detail9tm_writerINS0_14basic_appenderIcEEcNSt3__16chrono8durationIlNS5_5ratioILl60ELl1EEEEEE15on_dec0_weekdayENS1_14numeric_systemE
FNA:31,0,_ZN3fmt3v126detail9tm_writerINS0_14basic_appenderIcEEcNSt3__16chrono8durationIxNS5_5ratioILl1ELl1000000000EEEEEE15on_dec0_weekdayENS1_14numeric_systemE
FNA:31,0,_ZN3fmt3v126detail9tm_writerINS0_14basic_appenderIcEEcNSt3__16chrono8durationIxNS5_5ratioILl1ELl1000000EEEEEE15on_dec0_weekdayENS1_14numeric_systemE
FNA:31,0,_ZN3fmt3v126detail9tm_writerINS0_14basic_appenderIcEEcNSt3__16chrono8durationIxNS5_5ratioILl1ELl1000EEEEEE15on_dec0_weekdayENS1_14numeric_systemE
FNA:31,6,_ZN3fmt3v126detail9tm_writerINS0_14basic_appenderIcEEcNSt3__16chrono8durationIxNS5_5ratioILl1ELl1EEEEEE15on_dec0_weekdayENS1_14numeric_systemE
FNA:31,0,_ZN3fmt3v126detail9tm_writerINS0_14basic_appenderIcEEcNSt3__16chrono8durationIxNS5_5ratioILl1ELl3EEEEEE15on_dec0_weekdayENS1_14numeric_systemE
FNA:31,0,_ZN3fmt3v126detail9tm_writerINS0_14basic_appenderIcEEcNSt3__16chrono8durationIxNS5_5ratioILl31556952ELl1EEEEEE15on_dec0_weekdayENS1_14numeric_systemE
FNA:31,0,_ZN3fmt3v126detail9tm_writerINS0_14basic_appenderIwEEwNSt3__16chrono8durationIxNS5_5ratioILl1ELl1EEEEEE15on_dec0_weekdayENS1_14numeric_systemE
FNL:32,1239,1246
FNA:32,0,_ZN3fmt3v126detail9tm_writerINS0_14basic_appenderIcEEcNSt3__16chrono8durationIdNS5_5ratioILl1ELl1EEEEEE15on_dec1_weekdayENS1_14numeric_systemE
FNA:32,0,_ZN3fmt3v126detail9tm_writerINS0_14basic_appenderIcEEcNSt3__16chrono8durationIdNS5_5ratioILl1ELl3EEEEEE15on_dec1_weekdayENS1_14numeric_systemE
FNA:32,0,_ZN3fmt3v126detail9tm_writerINS0_14basic_appenderIcEEcNSt3__16chrono8durationIiNS5_5ratioILl63ELl1EEEEEE15on_dec1_weekdayENS1_14numeric_systemE
FNA:32,0,_ZN3fmt3v126detail9tm_writerINS0_14basic_appenderIcEEcNSt3__16chrono8durationIiNS5_5ratioILl9ELl1EEEEEE15on_dec1_weekdayENS1_14numeric_systemE
FNA:32,0,_ZN3fmt3v126detail9tm_writerINS0_14basic_appenderIcEEcNSt3__16chrono8durationIlNS5_5ratioILl60ELl1EEEEEE15on_dec1_weekdayENS1_14numeric_systemE
FNA:32,0,_ZN3fmt3v126detail9tm_writerINS0_14basic_appenderIcEEcNSt3__16chrono8durationIxNS5_5ratioILl1ELl1000000000EEEEEE15on_dec1_weekdayENS1_14numeric_systemE
FNA:32,0,_ZN3fmt3v126detail9tm_writerINS0_14basic_appenderIcEEcNSt3__16chrono8durationIxNS5_5ratioILl1ELl1000000EEEEEE15on_dec1_weekdayENS1_14numeric_systemE
FNA:32,0,_ZN3fmt3v126detail9tm_writerINS0_14basic_appenderIcEEcNSt3__16chrono8durationIxNS5_5ratioILl1ELl1000EEEEEE15on_dec1_weekdayENS1_14numeric_systemE
FNA:32,6,_ZN3fmt3v126detail9tm_writerINS0_14basic_appenderIcEEcNSt3__16chrono8durationIxNS5_5ratioILl1ELl1EEEEEE15on_dec1_weekdayENS1_14numeric_systemE
FNA:32,0,_ZN3fmt3v126detail9tm_writerINS0_14basic_appenderIcEEcNSt3__16chrono8durationIxNS5_5ratioILl1ELl3EEEEEE15on_dec1_weekdayENS1_14numeric_systemE
FNA:32,0,_ZN3fmt3v126detail9tm_writerINS0_14basic_appenderIcEEcNSt3__16chrono8durationIxNS5_5ratioILl31556952ELl1EEEEEE15on_dec1_weekdayENS1_14numeric_systemE
FNA:32,0,_ZN3fmt3v126detail9tm_writerINS0_14basic_appenderIwEEwNSt3__16chrono8durationIxNS5_5ratioILl1ELl1EEEEEE15on_dec1_weekdayENS1_14numeric_systemE
FNL:33,1248,1253
FNA:33,0,_ZN3fmt3v126detail9tm_writerINS0_14basic_appenderIcEEcNSt3__16chrono8durationIdNS5_5ratioILl1ELl1EEEEEE13on_abbr_monthEv
FNA:33,0,_ZN3fmt3v126detail9tm_writerINS0_14basic_appenderIcEEcNSt3__16chrono8durationIdNS5_5ratioILl1ELl3EEEEEE13on_abbr_monthEv
FNA:33,0,_ZN3fmt3v126detail9tm_writerINS0_14basic_appenderIcEEcNSt3__16chrono8durationIiNS5_5ratioILl63ELl1EEEEEE13on_abbr_monthEv
FNA:33,0,_ZN3fmt3v126detail9tm_writerINS0_14basic_appenderIcEEcNSt3__16chrono8durationIiNS5_5ratioILl9ELl1EEEEEE13on_abbr_monthEv
FNA:33,0,_ZN3fmt3v126detail9tm_writerINS0_14basic_appenderIcEEcNSt3__16chrono8durationIlNS5_5ratioILl60ELl1EEEEEE13on_abbr_monthEv
FNA:33,0,_ZN3fmt3v126detail9tm_writerINS0_14basic_appenderIcEEcNSt3__16chrono8durationIxNS5_5ratioILl1ELl1000000000EEEEEE13on_abbr_monthEv
FNA:33,0,_ZN3fmt3v126detail9tm_writerINS0_14basic_appenderIcEEcNSt3__16chrono8durationIxNS5_5ratioILl1ELl1000000EEEEEE13on_abbr_monthEv
FNA:33,0,_ZN3fmt3v126detail9tm_writerINS0_14basic_appenderIcEEcNSt3__16chrono8durationIxNS5_5ratioILl1ELl1000EEEEEE13on_abbr_monthEv
FNA:33,47,_ZN3fmt3v126detail9tm_writerINS0_14basic_appenderIcEEcNSt3__16chrono8durationIxNS5_5ratioILl1ELl1EEEEEE13on_abbr_monthEv
FNA:33,0,_ZN3fmt3v126detail9tm_writerINS0_14basic_appenderIcEEcNSt3__16chrono8durationIxNS5_5ratioILl1ELl3EEEEEE13on_abbr_monthEv
FNA:33,0,_ZN3fmt3v126detail9tm_writerINS0_14basic_appenderIcEEcNSt3__16chrono8durationIxNS5_5ratioILl31556952ELl1EEEEEE13on_abbr_monthEv
FNA:33,0,_ZN3fmt3v126detail9tm_writerINS0_14basic_appenderIwEEwNSt3__16chrono8durationIxNS5_5ratioILl1ELl1EEEEEE13on_abbr_monthEv
FNL:34,1254,1259
FNA:34,0,_ZN3fmt3v126detail9tm_writerINS0_14basic_appenderIcEEcNSt3__16chrono8durationIdNS5_5ratioILl1ELl1EEEEEE13on_full_monthEv
FNA:34,0,_ZN3fmt3v126detail9tm_writerINS0_14basic_appenderIcEEcNSt3__16chrono8durationIdNS5_5ratioILl1ELl3EEEEEE13on_full_monthEv
FNA:34,0,_ZN3fmt3v126detail9tm_writerINS0_14basic_appenderIcEEcNSt3__16chrono8durationIiNS5_5ratioILl63ELl1EEEEEE13on_full_monthEv
FNA:34,0,_ZN3fmt3v126detail9tm_writerINS0_14basic_appenderIcEEcNSt3__16chrono8durationIiNS5_5ratioILl9ELl1EEEEEE13on_full_monthEv
FNA:34,0,_ZN3fmt3v126detail9tm_writerINS0_14basic_appenderIcEEcNSt3__16chrono8durationIlNS5_5ratioILl60ELl1EEEEEE13on_full_monthEv
FNA:34,0,_ZN3fmt3v126detail9tm_writerINS0_14basic_appenderIcEEcNSt3__16chrono8durationIxNS5_5ratioILl1ELl1000000000EEEEEE13on_full_monthEv
FNA:34,0,_ZN3fmt3v126detail9tm_writerINS0_14basic_appenderIcEEcNSt3__16chrono8durationIxNS5_5ratioILl1ELl1000000EEEEEE13on_full_monthEv
FNA:34,0,_ZN3fmt3v126detail9tm_writerINS0_14basic_appenderIcEEcNSt3__16chrono8durationIxNS5_5ratioILl1ELl1000EEEEEE13on_full_monthEv
FNA:34,5,_ZN3fmt3v126detail9tm_writerINS0_14basic_appenderIcEEcNSt3__16chrono8durationIxNS5_5ratioILl1ELl1EEEEEE13on_full_monthEv
FNA:34,0,_ZN3fmt3v126detail9tm_writerINS0_14basic_appenderIcEEcNSt3__16chrono8durationIxNS5_5ratioILl1ELl3EEEEEE13on_full_monthEv
FNA:34,0,_ZN3fmt3v126detail9tm_writerINS0_14basic_appenderIcEEcNSt3__16chrono8durationIxNS5_5ratioILl31556952ELl1EEEEEE13on_full_monthEv
FNA:34,0,_ZN3fmt3v126detail9tm_writerINS0_14basic_appenderIwEEwNSt3__16chrono8durationIxNS5_5ratioILl1ELl1EEEEEE13on_full_monthEv
FNL:35,1261,1275
FNA:35,0,_ZN3fmt3v126detail9tm_writerINS0_14basic_appenderIcEEcNSt3__16chrono8durationIdNS5_5ratioILl1ELl1EEEEEE11on_datetimeENS1_14numeric_systemE
FNA:35,0,_ZN3fmt3v126detail9tm_writerINS0_14basic_appenderIcEEcNSt3__16chrono8durationIdNS5_5ratioILl1ELl3EEEEEE11on_datetimeENS1_14numeric_systemE
FNA:35,0,_ZN3fmt3v126detail9tm_writerINS0_14basic_appenderIcEEcNSt3__16chrono8durationIiNS5_5ratioILl63ELl1EEEEEE11on_datetimeENS1_14numeric_systemE
FNA:35,0,_ZN3fmt3v126detail9tm_writerINS0_14basic_appenderIcEEcNSt3__16chrono8durationIiNS5_5ratioILl9ELl1EEEEEE11on_datetimeENS1_14numeric_systemE
FNA:35,0,_ZN3fmt3v126detail9tm_writerINS0_14basic_appenderIcEEcNSt3__16chrono8durationIlNS5_5ratioILl60ELl1EEEEEE11on_datetimeENS1_14numeric_systemE
FNA:35,0,_ZN3fmt3v126detail9tm_writerINS0_14basic_appenderIcEEcNSt3__16chrono8durationIxNS5_5ratioILl1ELl1000000000EEEEEE11on_datetimeENS1_14numeric_systemE
FNA:35,0,_ZN3fmt3v126detail9tm_writerINS0_14basic_appenderIcEEcNSt3__16chrono8durationIxNS5_5ratioILl1ELl1000000EEEEEE11on_datetimeENS1_14numeric_systemE
FNA:35,0,_ZN3fmt3v126detail9tm_writerINS0_14basic_appenderIcEEcNSt3__16chrono8durationIxNS5_5ratioILl1ELl1000EEEEEE11on_datetimeENS1_14numeric_systemE
FNA:35,36,_ZN3fmt3v126detail9tm_writerINS0_14basic_appenderIcEEcNSt3__16chrono8durationIxNS5_5ratioILl1ELl1EEEEEE11on_datetimeENS1_14numeric_systemE
FNA:35,0,_ZN3fmt3v126detail9tm_writerINS0_14basic_appenderIcEEcNSt3__16chrono8durationIxNS5_5ratioILl1ELl3EEEEEE11on_datetimeENS1_14numeric_systemE
FNA:35,0,_ZN3fmt3v126detail9tm_writerINS0_14basic_appenderIcEEcNSt3__16chrono8durationIxNS5_5ratioILl31556952ELl1EEEEEE11on_datetimeENS1_14numeric_systemE
FNA:35,0,_ZN3fmt3v126detail9tm_writerINS0_14basic_appenderIwEEwNSt3__16chrono8durationIxNS5_5ratioILl1ELl1EEEEEE11on_datetimeENS1_14numeric_systemE
FNL:36,1276,1281
FNA:36,0,_ZN3fmt3v126detail9tm_writerINS0_14basic_appenderIcEEcNSt3__16chrono8durationIdNS5_5ratioILl1ELl1EEEEEE11on_loc_dateENS1_14numeric_systemE
FNA:36,0,_ZN3fmt3v126detail9tm_writerINS0_14basic_appenderIcEEcNSt3__16chrono8durationIdNS5_5ratioILl1ELl3EEEEEE11on_loc_dateENS1_14numeric_systemE
FNA:36,0,_ZN3fmt3v126detail9tm_writerINS0_14basic_appenderIcEEcNSt3__16chrono8durationIiNS5_5ratioILl63ELl1EEEEEE11on_loc_dateENS1_14numeric_systemE
FNA:36,0,_ZN3fmt3v126detail9tm_writerINS0_14basic_appenderIcEEcNSt3__16chrono8durationIiNS5_5ratioILl9ELl1EEEEEE11on_loc_dateENS1_14numeric_systemE
FNA:36,0,_ZN3fmt3v126detail9tm_writerINS0_14basic_appenderIcEEcNSt3__16chrono8durationIlNS5_5ratioILl60ELl1EEEEEE11on_loc_dateENS1_14numeric_systemE
FNA:36,0,_ZN3fmt3v126detail9tm_writerINS0_14basic_appenderIcEEcNSt3__16chrono8durationIxNS5_5ratioILl1ELl1000000000EEEEEE11on_loc_dateENS1_14numeric_systemE
FNA:36,0,_ZN3fmt3v126detail9tm_writerINS0_14basic_appenderIcEEcNSt3__16chrono8durationIxNS5_5ratioILl1ELl1000000EEEEEE11on_loc_dateENS1_14numeric_systemE
FNA:36,0,_ZN3fmt3v126detail9tm_writerINS0_14basic_appenderIcEEcNSt3__16chrono8durationIxNS5_5ratioILl1ELl1000EEEEEE11on_loc_dateENS1_14numeric_systemE
FNA:36,6,_ZN3fmt3v126detail9tm_writerINS0_14basic_appenderIcEEcNSt3__16chrono8durationIxNS5_5ratioILl1ELl1EEEEEE11on_loc_dateENS1_14numeric_systemE
FNA:36,0,_ZN3fmt3v126detail9tm_writerINS0_14basic_appenderIcEEcNSt3__16chrono8durationIxNS5_5ratioILl1ELl3EEEEEE11on_loc_dateENS1_14numeric_systemE
FNA:36,0,_ZN3fmt3v126detail9tm_writerINS0_14basic_appenderIcEEcNSt3__16chrono8durationIxNS5_5ratioILl31556952ELl1EEEEEE11on_loc_dateENS1_14numeric_systemE
FNA:36,0,_ZN3fmt3v126detail9tm_writerINS0_14basic_appenderIwEEwNSt3__16chrono8durationIxNS5_5ratioILl1ELl1EEEEEE11on_loc_dateENS1_14numeric_systemE
FNL:37,1282,1287
FNA:37,0,_ZN3fmt3v126detail9tm_writerINS0_14basic_appenderIcEEcNSt3__16chrono8durationIdNS5_5ratioILl1ELl1EEEEEE11on_loc_timeENS1_14numeric_systemE
FNA:37,0,_ZN3fmt3v126detail9tm_writerINS0_14basic_appenderIcEEcNSt3__16chrono8durationIdNS5_5ratioILl1ELl3EEEEEE11on_loc_timeENS1_14numeric_systemE
FNA:37,0,_ZN3fmt3v126detail9tm_writerINS0_14basic_appenderIcEEcNSt3__16chrono8durationIiNS5_5ratioILl63ELl1EEEEEE11on_loc_timeENS1_14numeric_systemE
FNA:37,0,_ZN3fmt3v126detail9tm_writerINS0_14basic_appenderIcEEcNSt3__16chrono8durationIiNS5_5ratioILl9ELl1EEEEEE11on_loc_timeENS1_14numeric_systemE
FNA:37,0,_ZN3fmt3v126detail9tm_writerINS0_14basic_appenderIcEEcNSt3__16chrono8durationIlNS5_5ratioILl60ELl1EEEEEE11on_loc_timeENS1_14numeric_systemE
FNA:37,0,_ZN3fmt3v126detail9tm_writerINS0_14basic_appenderIcEEcNSt3__16chrono8durationIxNS5_5ratioILl1ELl1000000000EEEEEE11on_loc_timeENS1_14numeric_systemE
FNA:37,0,_ZN3fmt3v126detail9tm_writerINS0_14basic_appenderIcEEcNSt3__16chrono8durationIxNS5_5ratioILl1ELl1000000EEEEEE11on_loc_timeENS1_14numeric_systemE
FNA:37,0,_ZN3fmt3v126detail9tm_writerINS0_14basic_appenderIcEEcNSt3__16chrono8durationIxNS5_5ratioILl1ELl1000EEEEEE11on_loc_timeENS1_14numeric_systemE
FNA:37,6,_ZN3fmt3v126detail9tm_writerINS0_14basic_appenderIcEEcNSt3__16chrono8durationIxNS5_5ratioILl1ELl1EEEEEE11on_loc_timeENS1_14numeric_systemE
FNA:37,0,_ZN3fmt3v126detail9tm_writerINS0_14basic_appenderIcEEcNSt3__16chrono8durationIxNS5_5ratioILl1ELl3EEEEEE11on_loc_timeENS1_14numeric_systemE
FNA:37,0,_ZN3fmt3v126detail9tm_writerINS0_14basic_appenderIcEEcNSt3__16chrono8durationIxNS5_5ratioILl31556952ELl1EEEEEE11on_loc_timeENS1_14numeric_systemE
FNA:37,0,_ZN3fmt3v126detail9tm_writerINS0_14basic_appenderIwEEwNSt3__16chrono8durationIxNS5_5ratioILl1ELl1EEEEEE11on_loc_timeENS1_14numeric_systemE
FNL:38,1288,1294
FNA:38,0,_ZN3fmt3v126detail9tm_writerINS0_14basic_appenderIcEEcNSt3__16chrono8durationIdNS5_5ratioILl1ELl1EEEEEE10on_us_dateEv
FNA:38,0,_ZN3fmt3v126detail9tm_writerINS0_14basic_appenderIcEEcNSt3__16chrono8durationIdNS5_5ratioILl1ELl3EEEEEE10on_us_dateEv
FNA:38,0,_ZN3fmt3v126detail9tm_writerINS0_14basic_appenderIcEEcNSt3__16chrono8durationIiNS5_5ratioILl63ELl1EEEEEE10on_us_dateEv
FNA:38,0,_ZN3fmt3v126detail9tm_writerINS0_14basic_appenderIcEEcNSt3__16chrono8durationIiNS5_5ratioILl9ELl1EEEEEE10on_us_dateEv
FNA:38,0,_ZN3fmt3v126detail9tm_writerINS0_14basic_appenderIcEEcNSt3__16chrono8durationIlNS5_5ratioILl60ELl1EEEEEE10on_us_dateEv
FNA:38,0,_ZN3fmt3v126detail9tm_writerINS0_14basic_appenderIcEEcNSt3__16chrono8durationIxNS5_5ratioILl1ELl1000000000EEEEEE10on_us_dateEv
FNA:38,0,_ZN3fmt3v126detail9tm_writerINS0_14basic_appenderIcEEcNSt3__16chrono8durationIxNS5_5ratioILl1ELl1000000EEEEEE10on_us_dateEv
FNA:38,0,_ZN3fmt3v126detail9tm_writerINS0_14basic_appenderIcEEcNSt3__16chrono8durationIxNS5_5ratioILl1ELl1000EEEEEE10on_us_dateEv
FNA:38,12,_ZN3fmt3v126detail9tm_writerINS0_14basic_appenderIcEEcNSt3__16chrono8durationIxNS5_5ratioILl1ELl1EEEEEE10on_us_dateEv
FNA:38,0,_ZN3fmt3v126detail9tm_writerINS0_14basic_appenderIcEEcNSt3__16chrono8durationIxNS5_5ratioILl1ELl3EEEEEE10on_us_dateEv
FNA:38,0,_ZN3fmt3v126detail9tm_writerINS0_14basic_appenderIcEEcNSt3__16chrono8durationIxNS5_5ratioILl31556952ELl1EEEEEE10on_us_dateEv
FNA:38,0,_ZN3fmt3v126detail9tm_writerINS0_14basic_appenderIwEEwNSt3__16chrono8durationIxNS5_5ratioILl1ELl1EEEEEE10on_us_dateEv
FNL:39,1295,1310
FNA:39,0,_ZN3fmt3v126detail9tm_writerINS0_14basic_appenderIcEEcNSt3__16chrono8durationIdNS5_5ratioILl1ELl1EEEEEE11on_iso_dateEv
FNA:39,0,_ZN3fmt3v126detail9tm_writerINS0_14basic_appenderIcEEcNSt3__16chrono8durationIdNS5_5ratioILl1ELl3EEEEEE11on_iso_dateEv
FNA:39,0,_ZN3fmt3v126detail9tm_writerINS0_14basic_appenderIcEEcNSt3__16chrono8durationIiNS5_5ratioILl63ELl1EEEEEE11on_iso_dateEv
FNA:39,0,_ZN3fmt3v126detail9tm_writerINS0_14basic_appenderIcEEcNSt3__16chrono8durationIiNS5_5ratioILl9ELl1EEEEEE11on_iso_dateEv
FNA:39,0,_ZN3fmt3v126detail9tm_writerINS0_14basic_appenderIcEEcNSt3__16chrono8durationIlNS5_5ratioILl60ELl1EEEEEE11on_iso_dateEv
FNA:39,0,_ZN3fmt3v126detail9tm_writerINS0_14basic_appenderIcEEcNSt3__16chrono8durationIxNS5_5ratioILl1ELl1000000000EEEEEE11on_iso_dateEv
FNA:39,0,_ZN3fmt3v126detail9tm_writerINS0_14basic_appenderIcEEcNSt3__16chrono8durationIxNS5_5ratioILl1ELl1000000EEEEEE11on_iso_dateEv
FNA:39,0,_ZN3fmt3v126detail9tm_writerINS0_14basic_appenderIcEEcNSt3__16chrono8durationIxNS5_5ratioILl1ELl1000EEEEEE11on_iso_dateEv
FNA:39,23,_ZN3fmt3v126detail9tm_writerINS0_14basic_appenderIcEEcNSt3__16chrono8durationIxNS5_5ratioILl1ELl1EEEEEE11on_iso_dateEv
FNA:39,0,_ZN3fmt3v126detail9tm_writerINS0_14basic_appenderIcEEcNSt3__16chrono8durationIxNS5_5ratioILl1ELl3EEEEEE11on_iso_dateEv
FNA:39,0,_ZN3fmt3v126detail9tm_writerINS0_14basic_appenderIcEEcNSt3__16chrono8durationIxNS5_5ratioILl31556952ELl1EEEEEE11on_iso_dateEv
FNA:39,1,_ZN3fmt3v126detail9tm_writerINS0_14basic_appenderIwEEwNSt3__16chrono8durationIxNS5_5ratioILl1ELl1EEEEEE11on_iso_dateEv
FNL:40,1312,1312
FNA:40,0,_ZN3fmt3v126detail9tm_writerINS0_14basic_appenderIcEEcNSt3__16chrono8durationIdNS5_5ratioILl1ELl1EEEEEE13on_utc_offsetENS1_14numeric_systemE
FNA:40,0,_ZN3fmt3v126detail9tm_writerINS0_14basic_appenderIcEEcNSt3__16chrono8durationIdNS5_5ratioILl1ELl3EEEEEE13on_utc_offsetENS1_14numeric_systemE
FNA:40,0,_ZN3fmt3v126detail9tm_writerINS0_14basic_appenderIcEEcNSt3__16chrono8durationIiNS5_5ratioILl63ELl1EEEEEE13on_utc_offsetENS1_14numeric_systemE
FNA:40,0,_ZN3fmt3v126detail9tm_writerINS0_14basic_appenderIcEEcNSt3__16chrono8durationIiNS5_5ratioILl9ELl1EEEEEE13on_utc_offsetENS1_14numeric_systemE
FNA:40,0,_ZN3fmt3v126detail9tm_writerINS0_14basic_appenderIcEEcNSt3__16chrono8durationIlNS5_5ratioILl60ELl1EEEEEE13on_utc_offsetENS1_14numeric_systemE
FNA:40,0,_ZN3fmt3v126detail9tm_writerINS0_14basic_appenderIcEEcNSt3__16chrono8durationIxNS5_5ratioILl1ELl1000000000EEEEEE13on_utc_offsetENS1_14numeric_systemE
FNA:40,0,_ZN3fmt3v126detail9tm_writerINS0_14basic_appenderIcEEcNSt3__16chrono8durationIxNS5_5ratioILl1ELl1000000EEEEEE13on_utc_offsetENS1_14numeric_systemE
FNA:40,0,_ZN3fmt3v126detail9tm_writerINS0_14basic_appenderIcEEcNSt3__16chrono8durationIxNS5_5ratioILl1ELl1000EEEEEE13on_utc_offsetENS1_14numeric_systemE
FNA:40,6,_ZN3fmt3v126detail9tm_writerINS0_14basic_appenderIcEEcNSt3__16chrono8durationIxNS5_5ratioILl1ELl1EEEEEE13on_utc_offsetENS1_14numeric_systemE
FNA:40,0,_ZN3fmt3v126detail9tm_writerINS0_14basic_appenderIcEEcNSt3__16chrono8durationIxNS5_5ratioILl1ELl3EEEEEE13on_utc_offsetENS1_14numeric_systemE
FNA:40,0,_ZN3fmt3v126detail9tm_writerINS0_14basic_appenderIcEEcNSt3__16chrono8durationIxNS5_5ratioILl31556952ELl1EEEEEE13on_utc_offsetENS1_14numeric_systemE
FNA:40,0,_ZN3fmt3v126detail9tm_writerINS0_14basic_appenderIwEEwNSt3__16chrono8durationIxNS5_5ratioILl1ELl1EEEEEE13on_utc_offsetENS1_14numeric_systemE
FNL:41,1313,1313
FNA:41,0,_ZN3fmt3v126detail9tm_writerINS0_14basic_appenderIcEEcNSt3__16chrono8durationIdNS5_5ratioILl1ELl1EEEEEE10on_tz_nameEv
FNA:41,0,_ZN3fmt3v126detail9tm_writerINS0_14basic_appenderIcEEcNSt3__16chrono8durationIdNS5_5ratioILl1ELl3EEEEEE10on_tz_nameEv
FNA:41,0,_ZN3fmt3v126detail9tm_writerINS0_14basic_appenderIcEEcNSt3__16chrono8durationIiNS5_5ratioILl63ELl1EEEEEE10on_tz_nameEv
FNA:41,0,_ZN3fmt3v126detail9tm_writerINS0_14basic_appenderIcEEcNSt3__16chrono8durationIiNS5_5ratioILl9ELl1EEEEEE10on_tz_nameEv
FNA:41,0,_ZN3fmt3v126detail9tm_writerINS0_14basic_appenderIcEEcNSt3__16chrono8durationIlNS5_5ratioILl60ELl1EEEEEE10on_tz_nameEv
FNA:41,0,_ZN3fmt3v126detail9tm_writerINS0_14basic_appenderIcEEcNSt3__16chrono8durationIxNS5_5ratioILl1ELl1000000000EEEEEE10on_tz_nameEv
FNA:41,0,_ZN3fmt3v126detail9tm_writerINS0_14basic_appenderIcEEcNSt3__16chrono8durationIxNS5_5ratioILl1ELl1000000EEEEEE10on_tz_nameEv
FNA:41,0,_ZN3fmt3v126detail9tm_writerINS0_14basic_appenderIcEEcNSt3__16chrono8durationIxNS5_5ratioILl1ELl1000EEEEEE10on_tz_nameEv
FNA:41,2,_ZN3fmt3v126detail9tm_writerINS0_14basic_appenderIcEEcNSt3__16chrono8durationIxNS5_5ratioILl1ELl1EEEEEE10on_tz_nameEv
FNA:41,0,_ZN3fmt3v126detail9tm_writerINS0_14basic_appenderIcEEcNSt3__16chrono8durationIxNS5_5ratioILl1ELl3EEEEEE10on_tz_nameEv
FNA:41,0,_ZN3fmt3v126detail9tm_writerINS0_14basic_appenderIcEEcNSt3__16chrono8durationIxNS5_5ratioILl31556952ELl1EEEEEE10on_tz_nameEv
FNA:41,0,_ZN3fmt3v126detail9tm_writerINS0_14basic_appenderIwEEwNSt3__16chrono8durationIxNS5_5ratioILl1ELl1EEEEEE10on_tz_nameEv
FNL:42,1315,1319
FNA:42,0,_ZN3fmt3v126detail9tm_writerINS0_14basic_appenderIcEEcNSt3__16chrono8durationIdNS5_5ratioILl1ELl1EEEEEE7on_yearENS1_14numeric_systemENS1_8pad_typeE
FNA:42,0,_ZN3fmt3v126detail9tm_writerINS0_14basic_appenderIcEEcNSt3__16chrono8durationIdNS5_5ratioILl1ELl3EEEEEE7on_yearENS1_14numeric_systemENS1_8pad_typeE
FNA:42,0,_ZN3fmt3v126detail9tm_writerINS0_14basic_appenderIcEEcNSt3__16chrono8durationIiNS5_5ratioILl63ELl1EEEEEE7on_yearENS1_14numeric_systemENS1_8pad_typeE
FNA:42,0,_ZN3fmt3v126detail9tm_writerINS0_14basic_appenderIcEEcNSt3__16chrono8durationIiNS5_5ratioILl9ELl1EEEEEE7on_yearENS1_14numeric_systemENS1_8pad_typeE
FNA:42,0,_ZN3fmt3v126detail9tm_writerINS0_14basic_appenderIcEEcNSt3__16chrono8durationIlNS5_5ratioILl60ELl1EEEEEE7on_yearENS1_14numeric_systemENS1_8pad_typeE
FNA:42,0,_ZN3fmt3v126detail9tm_writerINS0_14basic_appenderIcEEcNSt3__16chrono8durationIxNS5_5ratioILl1ELl1000000000EEEEEE7on_yearENS1_14numeric_systemENS1_8pad_typeE
FNA:42,0,_ZN3fmt3v126detail9tm_writerINS0_14basic_appenderIcEEcNSt3__16chrono8durationIxNS5_5ratioILl1ELl1000000EEEEEE7on_yearENS1_14numeric_systemENS1_8pad_typeE
FNA:42,1,_ZN3fmt3v126detail9tm_writerINS0_14basic_appenderIcEEcNSt3__16chrono8durationIxNS5_5ratioILl1ELl1000EEEEEE7on_yearENS1_14numeric_systemENS1_8pad_typeE
FNA:42,20508,_ZN3fmt3v126detail9tm_writerINS0_14basic_appenderIcEEcNSt3__16chrono8durationIxNS5_5ratioILl1ELl1EEEEEE7on_yearENS1_14numeric_systemENS1_8pad_typeE
FNA:42,0,_ZN3fmt3v126detail9tm_writerINS0_14basic_appenderIcEEcNSt3__16chrono8durationIxNS5_5ratioILl1ELl3EEEEEE7on_yearENS1_14numeric_systemENS1_8pad_typeE
FNA:42,0,_ZN3fmt3v126detail9tm_writerINS0_14basic_appenderIcEEcNSt3__16chrono8durationIxNS5_5ratioILl31556952ELl1EEEEEE7on_yearENS1_14numeric_systemENS1_8pad_typeE
FNA:42,0,_ZN3fmt3v126detail9tm_writerINS0_14basic_appenderIwEEwNSt3__16chrono8durationIxNS5_5ratioILl1ELl1EEEEEE7on_yearENS1_14numeric_systemENS1_8pad_typeE
FNL:43,1320,1324
FNA:43,0,_ZN3fmt3v126detail9tm_writerINS0_14basic_appenderIcEEcNSt3__16chrono8durationIdNS5_5ratioILl1ELl1EEEEEE13on_short_yearENS1_14numeric_systemE
FNA:43,0,_ZN3fmt3v126detail9tm_writerINS0_14basic_appenderIcEEcNSt3__16chrono8durationIdNS5_5ratioILl1ELl3EEEEEE13on_short_yearENS1_14numeric_systemE
FNA:43,0,_ZN3fmt3v126detail9tm_writerINS0_14basic_appenderIcEEcNSt3__16chrono8durationIiNS5_5ratioILl63ELl1EEEEEE13on_short_yearENS1_14numeric_systemE
FNA:43,0,_ZN3fmt3v126detail9tm_writerINS0_14basic_appenderIcEEcNSt3__16chrono8durationIiNS5_5ratioILl9ELl1EEEEEE13on_short_yearENS1_14numeric_systemE
FNA:43,0,_ZN3fmt3v126detail9tm_writerINS0_14basic_appenderIcEEcNSt3__16chrono8durationIlNS5_5ratioILl60ELl1EEEEEE13on_short_yearENS1_14numeric_systemE
FNA:43,0,_ZN3fmt3v126detail9tm_writerINS0_14basic_appenderIcEEcNSt3__16chrono8durationIxNS5_5ratioILl1ELl1000000000EEEEEE13on_short_yearENS1_14numeric_systemE
FNA:43,0,_ZN3fmt3v126detail9tm_writerINS0_14basic_appenderIcEEcNSt3__16chrono8durationIxNS5_5ratioILl1ELl1000000EEEEEE13on_short_yearENS1_14numeric_systemE
FNA:43,0,_ZN3fmt3v126detail9tm_writerINS0_14basic_appenderIcEEcNSt3__16chrono8durationIxNS5_5ratioILl1ELl1000EEEEEE13on_short_yearENS1_14numeric_systemE
FNA:43,14,_ZN3fmt3v126detail9tm_writerINS0_14basic_appenderIcEEcNSt3__16chrono8durationIxNS5_5ratioILl1ELl1EEEEEE13on_short_yearENS1_14numeric_systemE
FNA:43,0,_ZN3fmt3v126detail9tm_writerINS0_14basic_appenderIcEEcNSt3__16chrono8durationIxNS5_5ratioILl1ELl3EEEEEE13on_short_yearENS1_14numeric_systemE
FNA:43,0,_ZN3fmt3v126detail9tm_writerINS0_14basic_appenderIcEEcNSt3__16chrono8durationIxNS5_5ratioILl31556952ELl1EEEEEE13on_short_yearENS1_14numeric_systemE
FNA:43,0,_ZN3fmt3v126detail9tm_writerINS0_14basic_appenderIwEEwNSt3__16chrono8durationIxNS5_5ratioILl1ELl1EEEEEE13on_short_yearENS1_14numeric_systemE
FNL:44,1325,1328
FNA:44,0,_ZN3fmt3v126detail9tm_writerINS0_14basic_appenderIcEEcNSt3__16chrono8durationIdNS5_5ratioILl1ELl1EEEEEE14on_offset_yearEv
FNA:44,0,_ZN3fmt3v126detail9tm_writerINS0_14basic_appenderIcEEcNSt3__16chrono8durationIdNS5_5ratioILl1ELl3EEEEEE14on_offset_yearEv
FNA:44,0,_ZN3fmt3v126detail9tm_writerINS0_14basic_appenderIcEEcNSt3__16chrono8durationIiNS5_5ratioILl63ELl1EEEEEE14on_offset_yearEv
FNA:44,0,_ZN3fmt3v126detail9tm_writerINS0_14basic_appenderIcEEcNSt3__16chrono8durationIiNS5_5ratioILl9ELl1EEEEEE14on_offset_yearEv
FNA:44,0,_ZN3fmt3v126detail9tm_writerINS0_14basic_appenderIcEEcNSt3__16chrono8durationIlNS5_5ratioILl60ELl1EEEEEE14on_offset_yearEv
FNA:44,0,_ZN3fmt3v126detail9tm_writerINS0_14basic_appenderIcEEcNSt3__16chrono8durationIxNS5_5ratioILl1ELl1000000000EEEEEE14on_offset_yearEv
FNA:44,0,_ZN3fmt3v126detail9tm_writerINS0_14basic_appenderIcEEcNSt3__16chrono8durationIxNS5_5ratioILl1ELl1000000EEEEEE14on_offset_yearEv
FNA:44,0,_ZN3fmt3v126detail9tm_writerINS0_14basic_appenderIcEEcNSt3__16chrono8durationIxNS5_5ratioILl1ELl1000EEEEEE14on_offset_yearEv
FNA:44,3,_ZN3fmt3v126detail9tm_writerINS0_14basic_appenderIcEEcNSt3__16chrono8durationIxNS5_5ratioILl1ELl1EEEEEE14on_offset_yearEv
FNA:44,0,_ZN3fmt3v126detail9tm_writerINS0_14basic_appenderIcEEcNSt3__16chrono8durationIxNS5_5ratioILl1ELl3EEEEEE14on_offset_yearEv
FNA:44,0,_ZN3fmt3v126detail9tm_writerINS0_14basic_appenderIcEEcNSt3__16chrono8durationIxNS5_5ratioILl31556952ELl1EEEEEE14on_offset_yearEv
FNA:44,0,_ZN3fmt3v126detail9tm_writerINS0_14basic_appenderIwEEwNSt3__16chrono8durationIxNS5_5ratioILl1ELl1EEEEEE14on_offset_yearEv
FNL:45,1330,1346
FNA:45,0,_ZN3fmt3v126detail9tm_writerINS0_14basic_appenderIcEEcNSt3__16chrono8durationIdNS5_5ratioILl1ELl1EEEEEE10on_centuryENS1_14numeric_systemE
FNA:45,0,_ZN3fmt3v126detail9tm_writerINS0_14basic_appenderIcEEcNSt3__16chrono8durationIdNS5_5ratioILl1ELl3EEEEEE10on_centuryENS1_14numeric_systemE
FNA:45,0,_ZN3fmt3v126detail9tm_writerINS0_14basic_appenderIcEEcNSt3__16chrono8durationIiNS5_5ratioILl63ELl1EEEEEE10on_centuryENS1_14numeric_systemE
FNA:45,0,_ZN3fmt3v126detail9tm_writerINS0_14basic_appenderIcEEcNSt3__16chrono8durationIiNS5_5ratioILl9ELl1EEEEEE10on_centuryENS1_14numeric_systemE
FNA:45,0,_ZN3fmt3v126detail9tm_writerINS0_14basic_appenderIcEEcNSt3__16chrono8durationIlNS5_5ratioILl60ELl1EEEEEE10on_centuryENS1_14numeric_systemE
FNA:45,0,_ZN3fmt3v126detail9tm_writerINS0_14basic_appenderIcEEcNSt3__16chrono8durationIxNS5_5ratioILl1ELl1000000000EEEEEE10on_centuryENS1_14numeric_systemE
FNA:45,0,_ZN3fmt3v126detail9tm_writerINS0_14basic_appenderIcEEcNSt3__16chrono8durationIxNS5_5ratioILl1ELl1000000EEEEEE10on_centuryENS1_14numeric_systemE
FNA:45,0,_ZN3fmt3v126detail9tm_writerINS0_14basic_appenderIcEEcNSt3__16chrono8durationIxNS5_5ratioILl1ELl1000EEEEEE10on_centuryENS1_14numeric_systemE
FNA:45,16,_ZN3fmt3v126detail9tm_writerINS0_14basic_appenderIcEEcNSt3__16chrono8durationIxNS5_5ratioILl1ELl1EEEEEE10on_centuryENS1_14numeric_systemE
FNA:45,0,_ZN3fmt3v126detail9tm_writerINS0_14basic_appenderIcEEcNSt3__16chrono8durationIxNS5_5ratioILl1ELl3EEEEEE10on_centuryENS1_14numeric_systemE
FNA:45,0,_ZN3fmt3v126detail9tm_writerINS0_14basic_appenderIcEEcNSt3__16chrono8durationIxNS5_5ratioILl31556952ELl1EEEEEE10on_centuryENS1_14numeric_systemE
FNA:45,0,_ZN3fmt3v126detail9tm_writerINS0_14basic_appenderIwEEwNSt3__16chrono8durationIxNS5_5ratioILl1ELl1EEEEEE10on_centuryENS1_14numeric_systemE
FNL:46,1348,1352
FNA:46,0,_ZN3fmt3v126detail9tm_writerINS0_14basic_appenderIcEEcNSt3__16chrono8durationIdNS5_5ratioILl1ELl1EEEEEE12on_dec_monthENS1_14numeric_systemENS1_8pad_typeE
FNA:46,0,_ZN3fmt3v126detail9tm_writerINS0_14basic_appenderIcEEcNSt3__16chrono8durationIdNS5_5ratioILl1ELl3EEEEEE12on_dec_monthENS1_14numeric_systemENS1_8pad_typeE
FNA:46,0,_ZN3fmt3v126detail9tm_writerINS0_14basic_appenderIcEEcNSt3__16chrono8durationIiNS5_5ratioILl63ELl1EEEEEE12on_dec_monthENS1_14numeric_systemENS1_8pad_typeE
FNA:46,0,_ZN3fmt3v126detail9tm_writerINS0_14basic_appenderIcEEcNSt3__16chrono8durationIiNS5_5ratioILl9ELl1EEEEEE12on_dec_monthENS1_14numeric_systemENS1_8pad_typeE
FNA:46,0,_ZN3fmt3v126detail9tm_writerINS0_14basic_appenderIcEEcNSt3__16chrono8durationIlNS5_5ratioILl60ELl1EEEEEE12on_dec_monthENS1_14numeric_systemENS1_8pad_typeE
FNA:46,0,_ZN3fmt3v126detail9tm_writerINS0_14basic_appenderIcEEcNSt3__16chrono8durationIxNS5_5ratioILl1ELl1000000000EEEEEE12on_dec_monthENS1_14numeric_systemENS1_8pad_typeE
FNA:46,0,_ZN3fmt3v126detail9tm_writerINS0_14basic_appenderIcEEcNSt3__16chrono8durationIxNS5_5ratioILl1ELl1000000EEEEEE12on_dec_monthENS1_14numeric_systemENS1_8pad_typeE
FNA:46,1,_ZN3fmt3v126detail9tm_writerINS0_14basic_appenderIcEEcNSt3__16chrono8durationIxNS5_5ratioILl1ELl1000EEEEEE12on_dec_monthENS1_14numeric_systemENS1_8pad_typeE
FNA:46,20452,_ZN3fmt3v126detail9tm_writerINS0_14basic_appenderIcEEcNSt3__16chrono8durationIxNS5_5ratioILl1ELl1EEEEEE12on_dec_monthENS1_14numeric_systemENS1_8pad_typeE
FNA:46,0,_ZN3fmt3v126detail9tm_writerINS0_14basic_appenderIcEEcNSt3__16chrono8durationIxNS5_5ratioILl1ELl3EEEEEE12on_dec_monthENS1_14numeric_systemENS1_8pad_typeE
FNA:46,0,_ZN3fmt3v126detail9tm_writerINS0_14basic_appenderIcEEcNSt3__16chrono8durationIxNS5_5ratioILl31556952ELl1EEEEEE12on_dec_monthENS1_14numeric_systemENS1_8pad_typeE
FNA:46,0,_ZN3fmt3v126detail9tm_writerINS0_14basic_appenderIwEEwNSt3__16chrono8durationIxNS5_5ratioILl1ELl1EEEEEE12on_dec_monthENS1_14numeric_systemENS1_8pad_typeE
FNL:47,1354,1359
FNA:47,0,_ZN3fmt3v126detail9tm_writerINS0_14basic_appenderIcEEcNSt3__16chrono8durationIdNS5_5ratioILl1ELl1EEEEEE20on_dec0_week_of_yearENS1_14numeric_systemENS1_8pad_typeE
FNA:47,0,_ZN3fmt3v126detail9tm_writerINS0_14basic_appenderIcEEcNSt3__16chrono8durationIdNS5_5ratioILl1ELl3EEEEEE20on_dec0_week_of_yearENS1_14numeric_systemENS1_8pad_typeE
FNA:47,0,_ZN3fmt3v126detail9tm_writerINS0_14basic_appenderIcEEcNSt3__16chrono8durationIiNS5_5ratioILl63ELl1EEEEEE20on_dec0_week_of_yearENS1_14numeric_systemENS1_8pad_typeE
FNA:47,0,_ZN3fmt3v126detail9tm_writerINS0_14basic_appenderIcEEcNSt3__16chrono8durationIiNS5_5ratioILl9ELl1EEEEEE20on_dec0_week_of_yearENS1_14numeric_systemENS1_8pad_typeE
FNA:47,0,_ZN3fmt3v126detail9tm_writerINS0_14basic_appenderIcEEcNSt3__16chrono8durationIlNS5_5ratioILl60ELl1EEEEEE20on_dec0_week_of_yearENS1_14numeric_systemENS1_8pad_typeE
FNA:47,0,_ZN3fmt3v126detail9tm_writerINS0_14basic_appenderIcEEcNSt3__16chrono8durationIxNS5_5ratioILl1ELl1000000000EEEEEE20on_dec0_week_of_yearENS1_14numeric_systemENS1_8pad_typeE
FNA:47,0,_ZN3fmt3v126detail9tm_writerINS0_14basic_appenderIcEEcNSt3__16chrono8durationIxNS5_5ratioILl1ELl1000000EEEEEE20on_dec0_week_of_yearENS1_14numeric_systemENS1_8pad_typeE
FNA:47,0,_ZN3fmt3v126detail9tm_writerINS0_14basic_appenderIcEEcNSt3__16chrono8durationIxNS5_5ratioILl1ELl1000EEEEEE20on_dec0_week_of_yearENS1_14numeric_systemENS1_8pad_typeE
FNA:47,9,_ZN3fmt3v126detail9tm_writerINS0_14basic_appenderIcEEcNSt3__16chrono8durationIxNS5_5ratioILl1ELl1EEEEEE20on_dec0_week_of_yearENS1_14numeric_systemENS1_8pad_typeE
FNA:47,0,_ZN3fmt3v126detail9tm_writerINS0_14basic_appenderIcEEcNSt3__16chrono8durationIxNS5_5ratioILl1ELl3EEEEEE20on_dec0_week_of_yearENS1_14numeric_systemENS1_8pad_typeE
FNA:47,0,_ZN3fmt3v126detail9tm_writerINS0_14basic_appenderIcEEcNSt3__16chrono8durationIxNS5_5ratioILl31556952ELl1EEEEEE20on_dec0_week_of_yearENS1_14numeric_systemENS1_8pad_typeE
FNA:47,0,_ZN3fmt3v126detail9tm_writerINS0_14basic_appenderIwEEwNSt3__16chrono8durationIxNS5_5ratioILl1ELl1EEEEEE20on_dec0_week_of_yearENS1_14numeric_systemENS1_8pad_typeE
FNL:48,1360,1370
FNA:48,0,_ZN3fmt3v126detail9tm_writerINS0_14basic_appenderIcEEcNSt3__16chrono8durationIdNS5_5ratioILl1ELl1EEEEEE20on_dec1_week_of_yearENS1_14numeric_systemENS1_8pad_typeE
FNA:48,0,_ZN3fmt3v126detail9tm_writerINS0_14basic_appenderIcEEcNSt3__16chrono8durationIdNS5_5ratioILl1ELl3EEEEEE20on_dec1_week_of_yearENS1_14numeric_systemENS1_8pad_typeE
FNA:48,0,_ZN3fmt3v126detail9tm_writerINS0_14basic_appenderIcEEcNSt3__16chrono8durationIiNS5_5ratioILl63ELl1EEEEEE20on_dec1_week_of_yearENS1_14numeric_systemENS1_8pad_typeE
FNA:48,0,_ZN3fmt3v126detail9tm_writerINS0_14basic_appenderIcEEcNSt3__16chrono8durationIiNS5_5ratioILl9ELl1EEEEEE20on_dec1_week_of_yearENS1_14numeric_systemENS1_8pad_typeE
FNA:48,0,_ZN3fmt3v126detail9tm_writerINS0_14basic_appenderIcEEcNSt3__16chrono8durationIlNS5_5ratioILl60ELl1EEEEEE20on_dec1_week_of_yearENS1_14numeric_systemENS1_8pad_typeE
FNA:48,0,_ZN3fmt3v126detail9tm_writerINS0_14basic_appenderIcEEcNSt3__16chrono8durationIxNS5_5ratioILl1ELl1000000000EEEEEE20on_dec1_week_of_yearENS1_14numeric_systemENS1_8pad_typeE
FNA:48,0,_ZN3fmt3v126detail9tm_writerINS0_14basic_appenderIcEEcNSt3__16chrono8durationIxNS5_5ratioILl1ELl1000000EEEEEE20on_dec1_week_of_yearENS1_14numeric_systemENS1_8pad_typeE
FNA:48,0,_ZN3fmt3v126detail9tm_writerINS0_14basic_appenderIcEEcNSt3__16chrono8durationIxNS5_5ratioILl1ELl1000EEEEEE20on_dec1_week_of_yearENS1_14numeric_systemENS1_8pad_typeE
FNA:48,9,_ZN3fmt3v126detail9tm_writerINS0_14basic_appenderIcEEcNSt3__16chrono8durationIxNS5_5ratioILl1ELl1EEEEEE20on_dec1_week_of_yearENS1_14numeric_systemENS1_8pad_typeE
FNA:48,0,_ZN3fmt3v126detail9tm_writerINS0_14basic_appenderIcEEcNSt3__16chrono8durationIxNS5_5ratioILl1ELl3EEEEEE20on_dec1_week_of_yearENS1_14numeric_systemENS1_8pad_typeE
FNA:48,0,_ZN3fmt3v126detail9tm_writerINS0_14basic_appenderIcEEcNSt3__16chrono8durationIxNS5_5ratioILl31556952ELl1EEEEEE20on_dec1_week_of_yearENS1_14numeric_systemENS1_8pad_typeE
FNA:48,0,_ZN3fmt3v126detail9tm_writerINS0_14basic_appenderIwEEwNSt3__16chrono8durationIxNS5_5ratioILl1ELl1EEEEEE20on_dec1_week_of_yearENS1_14numeric_systemENS1_8pad_typeE
FNL:49,1371,1375
FNA:49,0,_ZN3fmt3v126detail9tm_writerINS0_14basic_appenderIcEEcNSt3__16chrono8durationIdNS5_5ratioILl1ELl1EEEEEE19on_iso_week_of_yearENS1_14numeric_systemENS1_8pad_typeE
FNA:49,0,_ZN3fmt3v126detail9tm_writerINS0_14basic_appenderIcEEcNSt3__16chrono8durationIdNS5_5ratioILl1ELl3EEEEEE19on_iso_week_of_yearENS1_14numeric_systemENS1_8pad_typeE
FNA:49,0,_ZN3fmt3v126detail9tm_writerINS0_14basic_appenderIcEEcNSt3__16chrono8durationIiNS5_5ratioILl63ELl1EEEEEE19on_iso_week_of_yearENS1_14numeric_systemENS1_8pad_typeE
FNA:49,0,_ZN3fmt3v126detail9tm_writerINS0_14basic_appenderIcEEcNSt3__16chrono8durationIiNS5_5ratioILl9ELl1EEEEEE19on_iso_week_of_yearENS1_14numeric_systemENS1_8pad_typeE
FNA:49,0,_ZN3fmt3v126detail9tm_writerINS0_14basic_appenderIcEEcNSt3__16chrono8durationIlNS5_5ratioILl60ELl1EEEEEE19on_iso_week_of_yearENS1_14numeric_systemENS1_8pad_typeE
FNA:49,0,_ZN3fmt3v126detail9tm_writerINS0_14basic_appenderIcEEcNSt3__16chrono8durationIxNS5_5ratioILl1ELl1000000000EEEEEE19on_iso_week_of_yearENS1_14numeric_systemENS1_8pad_typeE
FNA:49,0,_ZN3fmt3v126detail9tm_writerINS0_14basic_appenderIcEEcNSt3__16chrono8durationIxNS5_5ratioILl1ELl1000000EEEEEE19on_iso_week_of_yearENS1_14numeric_systemENS1_8pad_typeE
FNA:49,0,_ZN3fmt3v126detail9tm_writerINS0_14basic_appenderIcEEcNSt3__16chrono8durationIxNS5_5ratioILl1ELl1000EEEEEE19on_iso_week_of_yearENS1_14numeric_systemENS1_8pad_typeE
FNA:49,20442,_ZN3fmt3v126detail9tm_writerINS0_14basic_appenderIcEEcNSt3__16chrono8durationIxNS5_5ratioILl1ELl1EEEEEE19on_iso_week_of_yearENS1_14numeric_systemENS1_8pad_typeE
FNA:49,0,_ZN3fmt3v126detail9tm_writerINS0_14basic_appenderIcEEcNSt3__16chrono8durationIxNS5_5ratioILl1ELl3EEEEEE19on_iso_week_of_yearENS1_14numeric_systemENS1_8pad_typeE
FNA:49,0,_ZN3fmt3v126detail9tm_writerINS0_14basic_appenderIcEEcNSt3__16chrono8durationIxNS5_5ratioILl31556952ELl1EEEEEE19on_iso_week_of_yearENS1_14numeric_systemENS1_8pad_typeE
FNA:49,0,_ZN3fmt3v126detail9tm_writerINS0_14basic_appenderIwEEwNSt3__16chrono8durationIxNS5_5ratioILl1ELl1EEEEEE19on_iso_week_of_yearENS1_14numeric_systemENS1_8pad_typeE
FNL:50,1377,1379
FNA:50,0,_ZN3fmt3v126detail9tm_writerINS0_14basic_appenderIcEEcNSt3__16chrono8durationIdNS5_5ratioILl1ELl1EEEEEE22on_iso_week_based_yearEv
FNA:50,0,_ZN3fmt3v126detail9tm_writerINS0_14basic_appenderIcEEcNSt3__16chrono8durationIdNS5_5ratioILl1ELl3EEEEEE22on_iso_week_based_yearEv
FNA:50,0,_ZN3fmt3v126detail9tm_writerINS0_14basic_appenderIcEEcNSt3__16chrono8durationIiNS5_5ratioILl63ELl1EEEEEE22on_iso_week_based_yearEv
FNA:50,0,_ZN3fmt3v126detail9tm_writerINS0_14basic_appenderIcEEcNSt3__16chrono8durationIiNS5_5ratioILl9ELl1EEEEEE22on_iso_week_based_yearEv
FNA:50,0,_ZN3fmt3v126detail9tm_writerINS0_14basic_appenderIcEEcNSt3__16chrono8durationIlNS5_5ratioILl60ELl1EEEEEE22on_iso_week_based_yearEv
FNA:50,0,_ZN3fmt3v126detail9tm_writerINS0_14basic_appenderIcEEcNSt3__16chrono8durationIxNS5_5ratioILl1ELl1000000000EEEEEE22on_iso_week_based_yearEv
FNA:50,0,_ZN3fmt3v126detail9tm_writerINS0_14basic_appenderIcEEcNSt3__16chrono8durationIxNS5_5ratioILl1ELl1000000EEEEEE22on_iso_week_based_yearEv
FNA:50,0,_ZN3fmt3v126detail9tm_writerINS0_14basic_appenderIcEEcNSt3__16chrono8durationIxNS5_5ratioILl1ELl1000EEEEEE22on_iso_week_based_yearEv
FNA:50,20437,_ZN3fmt3v126detail9tm_writerINS0_14basic_appenderIcEEcNSt3__16chrono8durationIxNS5_5ratioILl1ELl1EEEEEE22on_iso_week_based_yearEv
FNA:50,0,_ZN3fmt3v126detail9tm_writerINS0_14basic_appenderIcEEcNSt3__16chrono8durationIxNS5_5ratioILl1ELl3EEEEEE22on_iso_week_based_yearEv
FNA:50,0,_ZN3fmt3v126detail9tm_writerINS0_14basic_appenderIcEEcNSt3__16chrono8durationIxNS5_5ratioILl31556952ELl1EEEEEE22on_iso_week_based_yearEv
FNA:50,0,_ZN3fmt3v126detail9tm_writerINS0_14basic_appenderIwEEwNSt3__16chrono8durationIxNS5_5ratioILl1ELl1EEEEEE22on_iso_week_based_yearEv
FNL:51,1380,1382
FNA:51,0,_ZN3fmt3v126detail9tm_writerINS0_14basic_appenderIcEEcNSt3__16chrono8durationIdNS5_5ratioILl1ELl1EEEEEE28on_iso_week_based_short_yearEv
FNA:51,0,_ZN3fmt3v126detail9tm_writerINS0_14basic_appenderIcEEcNSt3__16chrono8durationIdNS5_5ratioILl1ELl3EEEEEE28on_iso_week_based_short_yearEv
FNA:51,0,_ZN3fmt3v126detail9tm_writerINS0_14basic_appenderIcEEcNSt3__16chrono8durationIiNS5_5ratioILl63ELl1EEEEEE28on_iso_week_based_short_yearEv
FNA:51,0,_ZN3fmt3v126detail9tm_writerINS0_14basic_appenderIcEEcNSt3__16chrono8durationIiNS5_5ratioILl9ELl1EEEEEE28on_iso_week_based_short_yearEv
FNA:51,0,_ZN3fmt3v126detail9tm_writerINS0_14basic_appenderIcEEcNSt3__16chrono8durationIlNS5_5ratioILl60ELl1EEEEEE28on_iso_week_based_short_yearEv
FNA:51,0,_ZN3fmt3v126detail9tm_writerINS0_14basic_appenderIcEEcNSt3__16chrono8durationIxNS5_5ratioILl1ELl1000000000EEEEEE28on_iso_week_based_short_yearEv
FNA:51,0,_ZN3fmt3v126detail9tm_writerINS0_14basic_appenderIcEEcNSt3__16chrono8durationIxNS5_5ratioILl1ELl1000000EEEEEE28on_iso_week_based_short_yearEv
FNA:51,0,_ZN3fmt3v126detail9tm_writerINS0_14basic_appenderIcEEcNSt3__16chrono8durationIxNS5_5ratioILl1ELl1000EEEEEE28on_iso_week_based_short_yearEv
FNA:51,20436,_ZN3fmt3v126detail9tm_writerINS0_14basic_appenderIcEEcNSt3__16chrono8durationIxNS5_5ratioILl1ELl1EEEEEE28on_iso_week_based_short_yearEv
FNA:51,0,_ZN3fmt3v126detail9tm_writerINS0_14basic_appenderIcEEcNSt3__16chrono8durationIxNS5_5ratioILl1ELl3EEEEEE28on_iso_week_based_short_yearEv
FNA:51,0,_ZN3fmt3v126detail9tm_writerINS0_14basic_appenderIcEEcNSt3__16chrono8durationIxNS5_5ratioILl31556952ELl1EEEEEE28on_iso_week_based_short_yearEv
FNA:51,0,_ZN3fmt3v126detail9tm_writerINS0_14basic_appenderIwEEwNSt3__16chrono8durationIxNS5_5ratioILl1ELl1EEEEEE28on_iso_week_based_short_yearEv
FNL:52,1384,1392
FNA:52,0,_ZN3fmt3v126detail9tm_writerINS0_14basic_appenderIcEEcNSt3__16chrono8durationIdNS5_5ratioILl1ELl1EEEEEE14on_day_of_yearENS1_8pad_typeE
FNA:52,0,_ZN3fmt3v126detail9tm_writerINS0_14basic_appenderIcEEcNSt3__16chrono8durationIdNS5_5ratioILl1ELl3EEEEEE14on_day_of_yearENS1_8pad_typeE
FNA:52,0,_ZN3fmt3v126detail9tm_writerINS0_14basic_appenderIcEEcNSt3__16chrono8durationIiNS5_5ratioILl63ELl1EEEEEE14on_day_of_yearENS1_8pad_typeE
FNA:52,0,_ZN3fmt3v126detail9tm_writerINS0_14basic_appenderIcEEcNSt3__16chrono8durationIiNS5_5ratioILl9ELl1EEEEEE14on_day_of_yearENS1_8pad_typeE
FNA:52,0,_ZN3fmt3v126detail9tm_writerINS0_14basic_appenderIcEEcNSt3__16chrono8durationIlNS5_5ratioILl60ELl1EEEEEE14on_day_of_yearENS1_8pad_typeE
FNA:52,0,_ZN3fmt3v126detail9tm_writerINS0_14basic_appenderIcEEcNSt3__16chrono8durationIxNS5_5ratioILl1ELl1000000000EEEEEE14on_day_of_yearENS1_8pad_typeE
FNA:52,0,_ZN3fmt3v126detail9tm_writerINS0_14basic_appenderIcEEcNSt3__16chrono8durationIxNS5_5ratioILl1ELl1000000EEEEEE14on_day_of_yearENS1_8pad_typeE
FNA:52,0,_ZN3fmt3v126detail9tm_writerINS0_14basic_appenderIcEEcNSt3__16chrono8durationIxNS5_5ratioILl1ELl1000EEEEEE14on_day_of_yearENS1_8pad_typeE
FNA:52,6,_ZN3fmt3v126detail9tm_writerINS0_14basic_appenderIcEEcNSt3__16chrono8durationIxNS5_5ratioILl1ELl1EEEEEE14on_day_of_yearENS1_8pad_typeE
FNA:52,0,_ZN3fmt3v126detail9tm_writerINS0_14basic_appenderIcEEcNSt3__16chrono8durationIxNS5_5ratioILl1ELl3EEEEEE14on_day_of_yearENS1_8pad_typeE
FNA:52,0,_ZN3fmt3v126detail9tm_writerINS0_14basic_appenderIcEEcNSt3__16chrono8durationIxNS5_5ratioILl31556952ELl1EEEEEE14on_day_of_yearENS1_8pad_typeE
FNA:52,0,_ZN3fmt3v126detail9tm_writerINS0_14basic_appenderIwEEwNSt3__16chrono8durationIxNS5_5ratioILl1ELl1EEEEEE14on_day_of_yearENS1_8pad_typeE
FNL:53,1394,1398
FNA:53,0,_ZN3fmt3v126detail9tm_writerINS0_14basic_appenderIcEEcNSt3__16chrono8durationIdNS5_5ratioILl1ELl1EEEEEE15on_day_of_monthENS1_14numeric_systemENS1_8pad_typeE
FNA:53,0,_ZN3fmt3v126detail9tm_writerINS0_14basic_appenderIcEEcNSt3__16chrono8durationIdNS5_5ratioILl1ELl3EEEEEE15on_day_of_monthENS1_14numeric_systemENS1_8pad_typeE
FNA:53,0,_ZN3fmt3v126detail9tm_writerINS0_14basic_appenderIcEEcNSt3__16chrono8durationIiNS5_5ratioILl63ELl1EEEEEE15on_day_of_monthENS1_14numeric_systemENS1_8pad_typeE
FNA:53,0,_ZN3fmt3v126detail9tm_writerINS0_14basic_appenderIcEEcNSt3__16chrono8durationIiNS5_5ratioILl9ELl1EEEEEE15on_day_of_monthENS1_14numeric_systemENS1_8pad_typeE
FNA:53,0,_ZN3fmt3v126detail9tm_writerINS0_14basic_appenderIcEEcNSt3__16chrono8durationIlNS5_5ratioILl60ELl1EEEEEE15on_day_of_monthENS1_14numeric_systemENS1_8pad_typeE
FNA:53,0,_ZN3fmt3v126detail9tm_writerINS0_14basic_appenderIcEEcNSt3__16chrono8durationIxNS5_5ratioILl1ELl1000000000EEEEEE15on_day_of_monthENS1_14numeric_systemENS1_8pad_typeE
FNA:53,0,_ZN3fmt3v126detail9tm_writerINS0_14basic_appenderIcEEcNSt3__16chrono8durationIxNS5_5ratioILl1ELl1000000EEEEEE15on_day_of_monthENS1_14numeric_systemENS1_8pad_typeE
FNA:53,1,_ZN3fmt3v126detail9tm_writerINS0_14basic_appenderIcEEcNSt3__16chrono8durationIxNS5_5ratioILl1ELl1000EEEEEE15on_day_of_monthENS1_14numeric_systemENS1_8pad_typeE
FNA:53,20499,_ZN3fmt3v126detail9tm_writerINS0_14basic_appenderIcEEcNSt3__16chrono8durationIxNS5_5ratioILl1ELl1EEEEEE15on_day_of_monthENS1_14numeric_systemENS1_8pad_typeE
FNA:53,0,_ZN3fmt3v126detail9tm_writerINS0_14basic_appenderIcEEcNSt3__16chrono8durationIxNS5_5ratioILl1ELl3EEEEEE15on_day_of_monthENS1_14numeric_systemENS1_8pad_typeE
FNA:53,0,_ZN3fmt3v126detail9tm_writerINS0_14basic_appenderIcEEcNSt3__16chrono8durationIxNS5_5ratioILl31556952ELl1EEEEEE15on_day_of_monthENS1_14numeric_systemENS1_8pad_typeE
FNA:53,0,_ZN3fmt3v126detail9tm_writerINS0_14basic_appenderIwEEwNSt3__16chrono8durationIxNS5_5ratioILl1ELl1EEEEEE15on_day_of_monthENS1_14numeric_systemENS1_8pad_typeE
FNL:54,1400,1404
FNA:54,0,_ZN3fmt3v126detail9tm_writerINS0_14basic_appenderIcEEcNSt3__16chrono8durationIdNS5_5ratioILl1ELl1EEEEEE10on_24_hourENS1_14numeric_systemENS1_8pad_typeE
FNA:54,0,_ZN3fmt3v126detail9tm_writerINS0_14basic_appenderIcEEcNSt3__16chrono8durationIdNS5_5ratioILl1ELl3EEEEEE10on_24_hourENS1_14numeric_systemENS1_8pad_typeE
FNA:54,0,_ZN3fmt3v126detail9tm_writerINS0_14basic_appenderIcEEcNSt3__16chrono8durationIiNS5_5ratioILl63ELl1EEEEEE10on_24_hourENS1_14numeric_systemENS1_8pad_typeE
FNA:54,0,_ZN3fmt3v126detail9tm_writerINS0_14basic_appenderIcEEcNSt3__16chrono8durationIiNS5_5ratioILl9ELl1EEEEEE10on_24_hourENS1_14numeric_systemENS1_8pad_typeE
FNA:54,0,_ZN3fmt3v126detail9tm_writerINS0_14basic_appenderIcEEcNSt3__16chrono8durationIlNS5_5ratioILl60ELl1EEEEEE10on_24_hourENS1_14numeric_systemENS1_8pad_typeE
FNA:54,0,_ZN3fmt3v126detail9tm_writerINS0_14basic_appenderIcEEcNSt3__16chrono8durationIxNS5_5ratioILl1ELl1000000000EEEEEE10on_24_hourENS1_14numeric_systemENS1_8pad_typeE
FNA:54,0,_ZN3fmt3v126detail9tm_writerINS0_14basic_appenderIcEEcNSt3__16chrono8durationIxNS5_5ratioILl1ELl1000000EEEEEE10on_24_hourENS1_14numeric_systemENS1_8pad_typeE
FNA:54,0,_ZN3fmt3v126detail9tm_writerINS0_14basic_appenderIcEEcNSt3__16chrono8durationIxNS5_5ratioILl1ELl1000EEEEEE10on_24_hourENS1_14numeric_systemENS1_8pad_typeE
FNA:54,23,_ZN3fmt3v126detail9tm_writerINS0_14basic_appenderIcEEcNSt3__16chrono8durationIxNS5_5ratioILl1ELl1EEEEEE10on_24_hourENS1_14numeric_systemENS1_8pad_typeE
FNA:54,0,_ZN3fmt3v126detail9tm_writerINS0_14basic_appenderIcEEcNSt3__16chrono8durationIxNS5_5ratioILl1ELl3EEEEEE10on_24_hourENS1_14numeric_systemENS1_8pad_typeE
FNA:54,0,_ZN3fmt3v126detail9tm_writerINS0_14basic_appenderIcEEcNSt3__16chrono8durationIxNS5_5ratioILl31556952ELl1EEEEEE10on_24_hourENS1_14numeric_systemENS1_8pad_typeE
FNA:54,0,_ZN3fmt3v126detail9tm_writerINS0_14basic_appenderIwEEwNSt3__16chrono8durationIxNS5_5ratioILl1ELl1EEEEEE10on_24_hourENS1_14numeric_systemENS1_8pad_typeE
FNL:55,1405,1409
FNA:55,0,_ZN3fmt3v126detail9tm_writerINS0_14basic_appenderIcEEcNSt3__16chrono8durationIdNS5_5ratioILl1ELl1EEEEEE10on_12_hourENS1_14numeric_systemENS1_8pad_typeE
FNA:55,0,_ZN3fmt3v126detail9tm_writerINS0_14basic_appenderIcEEcNSt3__16chrono8durationIdNS5_5ratioILl1ELl3EEEEEE10on_12_hourENS1_14numeric_systemENS1_8pad_typeE
FNA:55,0,_ZN3fmt3v126detail9tm_writerINS0_14basic_appenderIcEEcNSt3__16chrono8durationIiNS5_5ratioILl63ELl1EEEEEE10on_12_hourENS1_14numeric_systemENS1_8pad_typeE
FNA:55,0,_ZN3fmt3v126detail9tm_writerINS0_14basic_appenderIcEEcNSt3__16chrono8durationIiNS5_5ratioILl9ELl1EEEEEE10on_12_hourENS1_14numeric_systemENS1_8pad_typeE
FNA:55,0,_ZN3fmt3v126detail9tm_writerINS0_14basic_appenderIcEEcNSt3__16chrono8durationIlNS5_5ratioILl60ELl1EEEEEE10on_12_hourENS1_14numeric_systemENS1_8pad_typeE
FNA:55,0,_ZN3fmt3v126detail9tm_writerINS0_14basic_appenderIcEEcNSt3__16chrono8durationIxNS5_5ratioILl1ELl1000000000EEEEEE10on_12_hourENS1_14numeric_systemENS1_8pad_typeE
FNA:55,0,_ZN3fmt3v126detail9tm_writerINS0_14basic_appenderIcEEcNSt3__16chrono8durationIxNS5_5ratioILl1ELl1000000EEEEEE10on_12_hourENS1_14numeric_systemENS1_8pad_typeE
FNA:55,0,_ZN3fmt3v126detail9tm_writerINS0_14basic_appenderIcEEcNSt3__16chrono8durationIxNS5_5ratioILl1ELl1000EEEEEE10on_12_hourENS1_14numeric_systemENS1_8pad_typeE
FNA:55,15,_ZN3fmt3v126detail9tm_writerINS0_14basic_appenderIcEEcNSt3__16chrono8durationIxNS5_5ratioILl1ELl1EEEEEE10on_12_hourENS1_14numeric_systemENS1_8pad_typeE
FNA:55,0,_ZN3fmt3v126detail9tm_writerINS0_14basic_appenderIcEEcNSt3__16chrono8durationIxNS5_5ratioILl1ELl3EEEEEE10on_12_hourENS1_14numeric_systemENS1_8pad_typeE
FNA:55,0,_ZN3fmt3v126detail9tm_writerINS0_14basic_appenderIcEEcNSt3__16chrono8durationIxNS5_5ratioILl31556952ELl1EEEEEE10on_12_hourENS1_14numeric_systemENS1_8pad_typeE
FNA:55,0,_ZN3fmt3v126detail9tm_writerINS0_14basic_appenderIwEEwNSt3__16chrono8durationIxNS5_5ratioILl1ELl1EEEEEE10on_12_hourENS1_14numeric_systemENS1_8pad_typeE
FNL:56,1410,1414
FNA:56,0,_ZN3fmt3v126detail9tm_writerINS0_14basic_appenderIcEEcNSt3__16chrono8durationIdNS5_5ratioILl1ELl1EEEEEE9on_minuteENS1_14numeric_systemENS1_8pad_typeE
FNA:56,0,_ZN3fmt3v126detail9tm_writerINS0_14basic_appenderIcEEcNSt3__16chrono8durationIdNS5_5ratioILl1ELl3EEEEEE9on_minuteENS1_14numeric_systemENS1_8pad_typeE
FNA:56,1,_ZN3fmt3v126detail9tm_writerINS0_14basic_appenderIcEEcNSt3__16chrono8durationIiNS5_5ratioILl63ELl1EEEEEE9on_minuteENS1_14numeric_systemENS1_8pad_typeE
FNA:56,1,_ZN3fmt3v126detail9tm_writerINS0_14basic_appenderIcEEcNSt3__16chrono8durationIiNS5_5ratioILl9ELl1EEEEEE9on_minuteENS1_14numeric_systemENS1_8pad_typeE
FNA:56,1,_ZN3fmt3v126detail9tm_writerINS0_14basic_appenderIcEEcNSt3__16chrono8durationIlNS5_5ratioILl60ELl1EEEEEE9on_minuteENS1_14numeric_systemENS1_8pad_typeE
FNA:56,0,_ZN3fmt3v126detail9tm_writerINS0_14basic_appenderIcEEcNSt3__16chrono8durationIxNS5_5ratioILl1ELl1000000000EEEEEE9on_minuteENS1_14numeric_systemENS1_8pad_typeE
FNA:56,9,_ZN3fmt3v126detail9tm_writerINS0_14basic_appenderIcEEcNSt3__16chrono8durationIxNS5_5ratioILl1ELl1000000EEEEEE9on_minuteENS1_14numeric_systemENS1_8pad_typeE
FNA:56,1,_ZN3fmt3v126detail9tm_writerINS0_14basic_appenderIcEEcNSt3__16chrono8durationIxNS5_5ratioILl1ELl1000EEEEEE9on_minuteENS1_14numeric_systemENS1_8pad_typeE
FNA:56,23,_ZN3fmt3v126detail9tm_writerINS0_14basic_appenderIcEEcNSt3__16chrono8durationIxNS5_5ratioILl1ELl1EEEEEE9on_minuteENS1_14numeric_systemENS1_8pad_typeE
FNA:56,0,_ZN3fmt3v126detail9tm_writerINS0_14basic_appenderIcEEcNSt3__16chrono8durationIxNS5_5ratioILl1ELl3EEEEEE9on_minuteENS1_14numeric_systemENS1_8pad_typeE
FNA:56,0,_ZN3fmt3v126detail9tm_writerINS0_14basic_appenderIcEEcNSt3__16chrono8durationIxNS5_5ratioILl31556952ELl1EEEEEE9on_minuteENS1_14numeric_systemENS1_8pad_typeE
FNA:56,0,_ZN3fmt3v126detail9tm_writerINS0_14basic_appenderIwEEwNSt3__16chrono8durationIxNS5_5ratioILl1ELl1EEEEEE9on_minuteENS1_14numeric_systemENS1_8pad_typeE
FNL:57,1416,1435
FNA:57,2,_ZN3fmt3v126detail9tm_writerINS0_14basic_appenderIcEEcNSt3__16chrono8durationIdNS5_5ratioILl1ELl1EEEEEE9on_secondENS1_14numeric_systemENS1_8pad_typeE
FNA:57,1,_ZN3fmt3v126detail9tm_writerINS0_14basic_appenderIcEEcNSt3__16chrono8durationIdNS5_5ratioILl1ELl3EEEEEE9on_secondENS1_14numeric_systemENS1_8pad_typeE
FNA:57,1,_ZN3fmt3v126detail9tm_writerINS0_14basic_appenderIcEEcNSt3__16chrono8durationIiNS5_5ratioILl63ELl1EEEEEE9on_secondENS1_14numeric_systemENS1_8pad_typeE
FNA:57,1,_ZN3fmt3v126detail9tm_writerINS0_14basic_appenderIcEEcNSt3__16chrono8durationIiNS5_5ratioILl9ELl1EEEEEE9on_secondENS1_14numeric_systemENS1_8pad_typeE
FNA:57,1,_ZN3fmt3v126detail9tm_writerINS0_14basic_appenderIcEEcNSt3__16chrono8durationIlNS5_5ratioILl60ELl1EEEEEE9on_secondENS1_14numeric_systemENS1_8pad_typeE
FNA:57,2,_ZN3fmt3v126detail9tm_writerINS0_14basic_appenderIcEEcNSt3__16chrono8durationIxNS5_5ratioILl1ELl1000000000EEEEEE9on_secondENS1_14numeric_systemENS1_8pad_typeE
FNA:57,10,_ZN3fmt3v126detail9tm_writerINS0_14basic_appenderIcEEcNSt3__16chrono8durationIxNS5_5ratioILl1ELl1000000EEEEEE9on_secondENS1_14numeric_systemENS1_8pad_typeE
FNA:57,6,_ZN3fmt3v126detail9tm_writerINS0_14basic_appenderIcEEcNSt3__16chrono8durationIxNS5_5ratioILl1ELl1000EEEEEE9on_secondENS1_14numeric_systemENS1_8pad_typeE
FNA:57,89,_ZN3fmt3v126detail9tm_writerINS0_14basic_appenderIcEEcNSt3__16chrono8durationIxNS5_5ratioILl1ELl1EEEEEE9on_secondENS1_14numeric_systemENS1_8pad_typeE
FNA:57,1,_ZN3fmt3v126detail9tm_writerINS0_14basic_appenderIcEEcNSt3__16chrono8durationIxNS5_5ratioILl1ELl3EEEEEE9on_secondENS1_14numeric_systemENS1_8pad_typeE
FNA:57,0,_ZN3fmt3v126detail9tm_writerINS0_14basic_appenderIcEEcNSt3__16chrono8durationIxNS5_5ratioILl31556952ELl1EEEEEE9on_secondENS1_14numeric_systemENS1_8pad_typeE
FNA:57,1,_ZN3fmt3v126detail9tm_writerINS0_14basic_appenderIwEEwNSt3__16chrono8durationIxNS5_5ratioILl1ELl1EEEEEE9on_secondENS1_14numeric_systemENS1_8pad_typeE
FNL:58,1437,1448
FNA:58,0,_ZN3fmt3v126detail9tm_writerINS0_14basic_appenderIcEEcNSt3__16chrono8durationIdNS5_5ratioILl1ELl1EEEEEE15on_12_hour_timeEv
FNA:58,0,_ZN3fmt3v126detail9tm_writerINS0_14basic_appenderIcEEcNSt3__16chrono8durationIdNS5_5ratioILl1ELl3EEEEEE15on_12_hour_timeEv
FNA:58,0,_ZN3fmt3v126detail9tm_writerINS0_14basic_appenderIcEEcNSt3__16chrono8durationIiNS5_5ratioILl63ELl1EEEEEE15on_12_hour_timeEv
FNA:58,0,_ZN3fmt3v126detail9tm_writerINS0_14basic_appenderIcEEcNSt3__16chrono8durationIiNS5_5ratioILl9ELl1EEEEEE15on_12_hour_timeEv
FNA:58,0,_ZN3fmt3v126detail9tm_writerINS0_14basic_appenderIcEEcNSt3__16chrono8durationIlNS5_5ratioILl60ELl1EEEEEE15on_12_hour_timeEv
FNA:58,0,_ZN3fmt3v126detail9tm_writerINS0_14basic_appenderIcEEcNSt3__16chrono8durationIxNS5_5ratioILl1ELl1000000000EEEEEE15on_12_hour_timeEv
FNA:58,0,_ZN3fmt3v126detail9tm_writerINS0_14basic_appenderIcEEcNSt3__16chrono8durationIxNS5_5ratioILl1ELl1000000EEEEEE15on_12_hour_timeEv
FNA:58,0,_ZN3fmt3v126detail9tm_writerINS0_14basic_appenderIcEEcNSt3__16chrono8durationIxNS5_5ratioILl1ELl1000EEEEEE15on_12_hour_timeEv
FNA:58,3,_ZN3fmt3v126detail9tm_writerINS0_14basic_appenderIcEEcNSt3__16chrono8durationIxNS5_5ratioILl1ELl1EEEEEE15on_12_hour_timeEv
FNA:58,0,_ZN3fmt3v126detail9tm_writerINS0_14basic_appenderIcEEcNSt3__16chrono8durationIxNS5_5ratioILl1ELl3EEEEEE15on_12_hour_timeEv
FNA:58,0,_ZN3fmt3v126detail9tm_writerINS0_14basic_appenderIcEEcNSt3__16chrono8durationIxNS5_5ratioILl31556952ELl1EEEEEE15on_12_hour_timeEv
FNA:58,0,_ZN3fmt3v126detail9tm_writerINS0_14basic_appenderIwEEwNSt3__16chrono8durationIxNS5_5ratioILl1ELl1EEEEEE15on_12_hour_timeEv
FNL:59,1449,1453
FNA:59,0,_ZN3fmt3v126detail9tm_writerINS0_14basic_appenderIcEEcNSt3__16chrono8durationIdNS5_5ratioILl1ELl1EEEEEE15on_24_hour_timeEv
FNA:59,0,_ZN3fmt3v126detail9tm_writerINS0_14basic_appenderIcEEcNSt3__16chrono8durationIdNS5_5ratioILl1ELl3EEEEEE15on_24_hour_timeEv
FNA:59,0,_ZN3fmt3v126detail9tm_writerINS0_14basic_appenderIcEEcNSt3__16chrono8durationIiNS5_5ratioILl63ELl1EEEEEE15on_24_hour_timeEv
FNA:59,0,_ZN3fmt3v126detail9tm_writerINS0_14basic_appenderIcEEcNSt3__16chrono8durationIiNS5_5ratioILl9ELl1EEEEEE15on_24_hour_timeEv
FNA:59,0,_ZN3fmt3v126detail9tm_writerINS0_14basic_appenderIcEEcNSt3__16chrono8durationIlNS5_5ratioILl60ELl1EEEEEE15on_24_hour_timeEv
FNA:59,1,_ZN3fmt3v126detail9tm_writerINS0_14basic_appenderIcEEcNSt3__16chrono8durationIxNS5_5ratioILl1ELl1000000000EEEEEE15on_24_hour_timeEv
FNA:59,0,_ZN3fmt3v126detail9tm_writerINS0_14basic_appenderIcEEcNSt3__16chrono8durationIxNS5_5ratioILl1ELl1000000EEEEEE15on_24_hour_timeEv
FNA:59,0,_ZN3fmt3v126detail9tm_writerINS0_14basic_appenderIcEEcNSt3__16chrono8durationIxNS5_5ratioILl1ELl1000EEEEEE15on_24_hour_timeEv
FNA:59,67,_ZN3fmt3v126detail9tm_writerINS0_14basic_appenderIcEEcNSt3__16chrono8durationIxNS5_5ratioILl1ELl1EEEEEE15on_24_hour_timeEv
FNA:59,0,_ZN3fmt3v126detail9tm_writerINS0_14basic_appenderIcEEcNSt3__16chrono8durationIxNS5_5ratioILl1ELl3EEEEEE15on_24_hour_timeEv
FNA:59,0,_ZN3fmt3v126detail9tm_writerINS0_14basic_appenderIcEEcNSt3__16chrono8durationIxNS5_5ratioILl31556952ELl1EEEEEE15on_24_hour_timeEv
FNA:59,1,_ZN3fmt3v126detail9tm_writerINS0_14basic_appenderIwEEwNSt3__16chrono8durationIxNS5_5ratioILl1ELl1EEEEEE15on_24_hour_timeEv
FNL:60,1454,1458
FNA:60,0,_ZN3fmt3v126detail9tm_writerINS0_14basic_appenderIcEEcNSt3__16chrono8durationIdNS5_5ratioILl1ELl1EEEEEE11on_iso_timeEv
FNA:60,0,_ZN3fmt3v126detail9tm_writerINS0_14basic_appenderIcEEcNSt3__16chrono8durationIdNS5_5ratioILl1ELl3EEEEEE11on_iso_timeEv
FNA:60,0,_ZN3fmt3v126detail9tm_writerINS0_14basic_appenderIcEEcNSt3__16chrono8durationIiNS5_5ratioILl63ELl1EEEEEE11on_iso_timeEv
FNA:60,0,_ZN3fmt3v126detail9tm_writerINS0_14basic_appenderIcEEcNSt3__16chrono8durationIiNS5_5ratioILl9ELl1EEEEEE11on_iso_timeEv
FNA:60,0,_ZN3fmt3v126detail9tm_writerINS0_14basic_appenderIcEEcNSt3__16chrono8durationIlNS5_5ratioILl60ELl1EEEEEE11on_iso_timeEv
FNA:60,1,_ZN3fmt3v126detail9tm_writerINS0_14basic_appenderIcEEcNSt3__16chrono8durationIxNS5_5ratioILl1ELl1000000000EEEEEE11on_iso_timeEv
FNA:60,0,_ZN3fmt3v126detail9tm_writerINS0_14basic_appenderIcEEcNSt3__16chrono8durationIxNS5_5ratioILl1ELl1000000EEEEEE11on_iso_timeEv
FNA:60,0,_ZN3fmt3v126detail9tm_writerINS0_14basic_appenderIcEEcNSt3__16chrono8durationIxNS5_5ratioILl1ELl1000EEEEEE11on_iso_timeEv
FNA:60,64,_ZN3fmt3v126detail9tm_writerINS0_14basic_appenderIcEEcNSt3__16chrono8durationIxNS5_5ratioILl1ELl1EEEEEE11on_iso_timeEv
FNA:60,0,_ZN3fmt3v126detail9tm_writerINS0_14basic_appenderIcEEcNSt3__16chrono8durationIxNS5_5ratioILl1ELl3EEEEEE11on_iso_timeEv
FNA:60,0,_ZN3fmt3v126detail9tm_writerINS0_14basic_appenderIcEEcNSt3__16chrono8durationIxNS5_5ratioILl31556952ELl1EEEEEE11on_iso_timeEv
FNA:60,1,_ZN3fmt3v126detail9tm_writerINS0_14basic_appenderIwEEwNSt3__16chrono8durationIxNS5_5ratioILl1ELl1EEEEEE11on_iso_timeEv
FNL:61,1460,1467
FNA:61,0,_ZN3fmt3v126detail9tm_writerINS0_14basic_appenderIcEEcNSt3__16chrono8durationIdNS5_5ratioILl1ELl1EEEEEE8on_am_pmEv
FNA:61,0,_ZN3fmt3v126detail9tm_writerINS0_14basic_appenderIcEEcNSt3__16chrono8durationIdNS5_5ratioILl1ELl3EEEEEE8on_am_pmEv
FNA:61,0,_ZN3fmt3v126detail9tm_writerINS0_14basic_appenderIcEEcNSt3__16chrono8durationIiNS5_5ratioILl63ELl1EEEEEE8on_am_pmEv
FNA:61,0,_ZN3fmt3v126detail9tm_writerINS0_14basic_appenderIcEEcNSt3__16chrono8durationIiNS5_5ratioILl9ELl1EEEEEE8on_am_pmEv
FNA:61,0,_ZN3fmt3v126detail9tm_writerINS0_14basic_appenderIcEEcNSt3__16chrono8durationIlNS5_5ratioILl60ELl1EEEEEE8on_am_pmEv
FNA:61,0,_ZN3fmt3v126detail9tm_writerINS0_14basic_appenderIcEEcNSt3__16chrono8durationIxNS5_5ratioILl1ELl1000000000EEEEEE8on_am_pmEv
FNA:61,0,_ZN3fmt3v126detail9tm_writerINS0_14basic_appenderIcEEcNSt3__16chrono8durationIxNS5_5ratioILl1ELl1000000EEEEEE8on_am_pmEv
FNA:61,0,_ZN3fmt3v126detail9tm_writerINS0_14basic_appenderIcEEcNSt3__16chrono8durationIxNS5_5ratioILl1ELl1000EEEEEE8on_am_pmEv
FNA:61,6,_ZN3fmt3v126detail9tm_writerINS0_14basic_appenderIcEEcNSt3__16chrono8durationIxNS5_5ratioILl1ELl1EEEEEE8on_am_pmEv
FNA:61,0,_ZN3fmt3v126detail9tm_writerINS0_14basic_appenderIcEEcNSt3__16chrono8durationIxNS5_5ratioILl1ELl3EEEEEE8on_am_pmEv
FNA:61,0,_ZN3fmt3v126detail9tm_writerINS0_14basic_appenderIcEEcNSt3__16chrono8durationIxNS5_5ratioILl31556952ELl1EEEEEE8on_am_pmEv
FNA:61,0,_ZN3fmt3v126detail9tm_writerINS0_14basic_appenderIwEEwNSt3__16chrono8durationIxNS5_5ratioILl1ELl1EEEEEE8on_am_pmEv
FNL:62,1470,1470
FNA:62,0,_ZN3fmt3v126detail9tm_writerINS0_14basic_appenderIcEEcNSt3__16chrono8durationIdNS5_5ratioILl1ELl1EEEEEE17on_duration_valueEv
FNA:62,0,_ZN3fmt3v126detail9tm_writerINS0_14basic_appenderIcEEcNSt3__16chrono8durationIdNS5_5ratioILl1ELl3EEEEEE17on_duration_valueEv
FNA:62,0,_ZN3fmt3v126detail9tm_writerINS0_14basic_appenderIcEEcNSt3__16chrono8durationIiNS5_5ratioILl63ELl1EEEEEE17on_duration_valueEv
FNA:62,0,_ZN3fmt3v126detail9tm_writerINS0_14basic_appenderIcEEcNSt3__16chrono8durationIiNS5_5ratioILl9ELl1EEEEEE17on_duration_valueEv
FNA:62,0,_ZN3fmt3v126detail9tm_writerINS0_14basic_appenderIcEEcNSt3__16chrono8durationIlNS5_5ratioILl60ELl1EEEEEE17on_duration_valueEv
FNA:62,0,_ZN3fmt3v126detail9tm_writerINS0_14basic_appenderIcEEcNSt3__16chrono8durationIxNS5_5ratioILl1ELl1000000000EEEEEE17on_duration_valueEv
FNA:62,0,_ZN3fmt3v126detail9tm_writerINS0_14basic_appenderIcEEcNSt3__16chrono8durationIxNS5_5ratioILl1ELl1000000EEEEEE17on_duration_valueEv
FNA:62,0,_ZN3fmt3v126detail9tm_writerINS0_14basic_appenderIcEEcNSt3__16chrono8durationIxNS5_5ratioILl1ELl1000EEEEEE17on_duration_valueEv
FNA:62,0,_ZN3fmt3v126detail9tm_writerINS0_14basic_appenderIcEEcNSt3__16chrono8durationIxNS5_5ratioILl1ELl1EEEEEE17on_duration_valueEv
FNA:62,0,_ZN3fmt3v126detail9tm_writerINS0_14basic_appenderIcEEcNSt3__16chrono8durationIxNS5_5ratioILl1ELl3EEEEEE17on_duration_valueEv
FNA:62,0,_ZN3fmt3v126detail9tm_writerINS0_14basic_appenderIcEEcNSt3__16chrono8durationIxNS5_5ratioILl31556952ELl1EEEEEE17on_duration_valueEv
FNA:62,0,_ZN3fmt3v126detail9tm_writerINS0_14basic_appenderIwEEwNSt3__16chrono8durationIxNS5_5ratioILl1ELl1EEEEEE17on_duration_valueEv
FNL:63,1471,1471
FNA:63,0,_ZN3fmt3v126detail9tm_writerINS0_14basic_appenderIcEEcNSt3__16chrono8durationIdNS5_5ratioILl1ELl1EEEEEE16on_duration_unitEv
FNA:63,0,_ZN3fmt3v126detail9tm_writerINS0_14basic_appenderIcEEcNSt3__16chrono8durationIdNS5_5ratioILl1ELl3EEEEEE16on_duration_unitEv
FNA:63,0,_ZN3fmt3v126detail9tm_writerINS0_14basic_appenderIcEEcNSt3__16chrono8durationIiNS5_5ratioILl63ELl1EEEEEE16on_duration_unitEv
FNA:63,0,_ZN3fmt3v126detail9tm_writerINS0_14basic_appenderIcEEcNSt3__16chrono8durationIiNS5_5ratioILl9ELl1EEEEEE16on_duration_unitEv
FNA:63,0,_ZN3fmt3v126detail9tm_writerINS0_14basic_appenderIcEEcNSt3__16chrono8durationIlNS5_5ratioILl60ELl1EEEEEE16on_duration_unitEv
FNA:63,0,_ZN3fmt3v126detail9tm_writerINS0_14basic_appenderIcEEcNSt3__16chrono8durationIxNS5_5ratioILl1ELl1000000000EEEEEE16on_duration_unitEv
FNA:63,0,_ZN3fmt3v126detail9tm_writerINS0_14basic_appenderIcEEcNSt3__16chrono8durationIxNS5_5ratioILl1ELl1000000EEEEEE16on_duration_unitEv
FNA:63,0,_ZN3fmt3v126detail9tm_writerINS0_14basic_appenderIcEEcNSt3__16chrono8durationIxNS5_5ratioILl1ELl1000EEEEEE16on_duration_unitEv
FNA:63,0,_ZN3fmt3v126detail9tm_writerINS0_14basic_appenderIcEEcNSt3__16chrono8durationIxNS5_5ratioILl1ELl1EEEEEE16on_duration_unitEv
FNA:63,0,_ZN3fmt3v126detail9tm_writerINS0_14basic_appenderIcEEcNSt3__16chrono8durationIxNS5_5ratioILl1ELl3EEEEEE16on_duration_unitEv
FNA:63,0,_ZN3fmt3v126detail9tm_writerINS0_14basic_appenderIcEEcNSt3__16chrono8durationIxNS5_5ratioILl31556952ELl1EEEEEE16on_duration_unitEv
FNA:63,0,_ZN3fmt3v126detail9tm_writerINS0_14basic_appenderIwEEwNSt3__16chrono8durationIxNS5_5ratioILl1ELl1EEEEEE16on_duration_unitEv
FNL:64,1474,1475
FNA:64,164,_ZN3fmt3v126detail21chrono_format_checkerC1Ev
FNA:64,164,_ZN3fmt3v126detail21chrono_format_checkerC2Ev
FNL:65,1477,1477
FNA:65,16,_ZN3fmt3v126detail21chrono_format_checker11unsupportedEv
FNL:66,1480,1480
FNA:66,71,_ZN3fmt3v126detail21chrono_format_checker7on_textIcEEvPKT_S6_
FNA:66,0,_ZN3fmt3v126detail21chrono_format_checker7on_textIwEEvPKT_S6_
FNL:67,1481,1481
FNA:67,4,_ZN3fmt3v126detail21chrono_format_checker14on_day_of_yearENS1_8pad_typeE
FNL:68,1482,1482
FNA:68,22,_ZN3fmt3v126detail21chrono_format_checker10on_24_hourENS1_14numeric_systemENS1_8pad_typeE
FNL:69,1483,1483
FNA:69,13,_ZN3fmt3v126detail21chrono_format_checker10on_12_hourENS1_14numeric_systemENS1_8pad_typeE
FNL:70,1484,1484
FNA:70,25,_ZN3fmt3v126detail21chrono_format_checker9on_minuteENS1_14numeric_systemENS1_8pad_typeE
FNL:71,1485,1485
FNA:71,65,_ZN3fmt3v126detail21chrono_format_checker9on_secondENS1_14numeric_systemENS1_8pad_typeE
FNL:72,1486,1486
FNA:72,1,_ZN3fmt3v126detail21chrono_format_checker15on_12_hour_timeEv
FNL:73,1487,1487
FNA:73,3,_ZN3fmt3v126detail21chrono_format_checker15on_24_hour_timeEv
FNL:74,1488,1488
FNA:74,4,_ZN3fmt3v126detail21chrono_format_checker11on_iso_timeEv
FNL:75,1489,1489
FNA:75,0,_ZN3fmt3v126detail21chrono_format_checker8on_am_pmEv
FNL:76,1490,1493
FNA:76,24,_ZNK3fmt3v126detail21chrono_format_checker17on_duration_valueEv
FNL:77,1494,1494
FNA:77,21,_ZN3fmt3v126detail21chrono_format_checker16on_duration_unitEv
FNL:78,1499,1500
FNA:78,1,_ZN3fmt3v126detail8isfiniteIiLi0EEEbT_
FNA:78,9,_ZN3fmt3v126detail8isfiniteIjLi0EEEbT_
FNA:78,17,_ZN3fmt3v126detail8isfiniteImLi0EEEbT_
FNA:78,91,_ZN3fmt3v126detail8isfiniteIyLi0EEEbT_
FNL:79,1504,1505
FNA:79,9,_ZN3fmt3v126detail3modIjLi0EEET_S3_i
FNA:79,13,_ZN3fmt3v126detail3modImLi0EEET_S3_i
FNA:79,90,_ZN3fmt3v126detail3modIyLi0EEET_S3_i
FNL:80,1508,1509
FNA:80,8,_ZN3fmt3v126detail3modIdLi0EEET_S3_i
FNA:80,0,_ZN3fmt3v126detail3modIfLi0EEET_S3_i
FNL:81,151,154
FNA:81,72,_ZN3fmt3v1218safe_duration_cast21safe_float_conversionIddLi0EEET_T0_Ri
FNA:81,6,_ZN3fmt3v1218safe_duration_cast21safe_float_conversionIffLi0EEET_T0_Ri
FNL:82,1546,1547
FNA:82,0,_ZN3fmt3v126detail21format_duration_valueIcaNS0_14basic_appenderIcEELi0EEET1_S5_T0_i
FNA:82,0,_ZN3fmt3v126detail21format_duration_valueIccNS0_14basic_appenderIcEELi0EEET1_S5_T0_i
FNA:82,15,_ZN3fmt3v126detail21format_duration_valueIciNS0_14basic_appenderIcEELi0EEET1_S5_T0_i
FNA:82,2,_ZN3fmt3v126detail21format_duration_valueIcjNS0_14basic_appenderIcEELi0EEET1_S5_T0_i
FNA:82,3,_ZN3fmt3v126detail21format_duration_valueIclNS0_14basic_appenderIcEELi0EEET1_S5_T0_i
FNA:82,0,_ZN3fmt3v126detail21format_duration_valueIcmNS0_14basic_appenderIcEELi0EEET1_S5_T0_i
FNA:82,0,_ZN3fmt3v126detail21format_duration_valueIcsNS0_14basic_appenderIcEELi0EEET1_S5_T0_i
FNA:82,11,_ZN3fmt3v126detail21format_duration_valueIcxNS0_14basic_appenderIcEELi0EEET1_S5_T0_i
FNA:82,2,_ZN3fmt3v126detail21format_duration_valueIcyNS0_14basic_appenderIcEELi0EEET1_S5_T0_i
FNA:82,2,_ZN3fmt3v126detail21format_duration_valueIwxNS0_14basic_appenderIwEELi0EEET1_S5_T0_i
FNA:82,0,_ZN3fmt3v126detail21format_duration_valueIwyNS0_14basic_appenderIwEELi0EEET1_S5_T0_i
FNL:83,1552,1558
FNA:83,38,_ZN3fmt3v126detail21format_duration_valueIcdNS0_14basic_appenderIcEELi0EEET1_S5_T0_i
FNA:83,6,_ZN3fmt3v126detail21format_duration_valueIcfNS0_14basic_appenderIcEELi0EEET1_S5_T0_i
FNL:84,1561,1562
FNA:84,74,_ZN3fmt3v126detail9copy_unitIcNS0_14basic_appenderIcEEEET0_NS0_17basic_string_viewIcEES5_T_
FNL:85,1566,1571
FNA:85,2,_ZN3fmt3v126detail9copy_unitINS0_14basic_appenderIwEEEET_NS0_17basic_string_viewIcEES5_w
FNL:86,1574,1586
FNA:86,2,_ZN3fmt3v126detail20format_duration_unitIcNSt3__15ratioILl1000000000000000000ELl1EEENS0_14basic_appenderIcEEEET1_S8_
FNA:86,1,_ZN3fmt3v126detail20format_duration_unitIcNSt3__15ratioILl1000000000000000ELl1EEENS0_14basic_appenderIcEEEET1_S8_
FNA:86,1,_ZN3fmt3v126detail20format_duration_unitIcNSt3__15ratioILl1000000000000ELl1EEENS0_14basic_appenderIcEEEET1_S8_
FNA:86,1,_ZN3fmt3v126detail20format_duration_unitIcNSt3__15ratioILl1000000000ELl1EEENS0_14basic_appenderIcEEEET1_S8_
FNA:86,1,_ZN3fmt3v126detail20format_duration_unitIcNSt3__15ratioILl1000000ELl1EEENS0_14basic_appenderIcEEEET1_S8_
FNA:86,1,_ZN3fmt3v126detail20format_duration_unitIcNSt3__15ratioILl1000ELl1EEENS0_14basic_appenderIcEEEET1_S8_
FNA:86,1,_ZN3fmt3v126detail20format_duration_unitIcNSt3__15ratioILl100ELl1EEENS0_14basic_appenderIcEEEET1_S8_
FNA:86,1,_ZN3fmt3v126detail20format_duration_unitIcNSt3__15ratioILl10ELl1EEENS0_14basic_appenderIcEEEET1_S8_
FNA:86,1,_ZN3fmt3v126detail20format_duration_unitIcNSt3__15ratioILl15ELl1EEENS0_14basic_appenderIcEEEET1_S8_
FNA:86,1,_ZN3fmt3v126detail20format_duration_unitIcNSt3__15ratioILl15ELl4EEENS0_14basic_appenderIcEEEET1_S8_
FNA:86,2,_ZN3fmt3v126detail20format_duration_unitIcNSt3__15ratioILl1ELl1000000000000000000EEENS0_14basic_appenderIcEEEET1_S8_
FNA:86,1,_ZN3fmt3v126detail20format_duration_unitIcNSt3__15ratioILl1ELl1000000000000000EEENS0_14basic_appenderIcEEEET1_S8_
FNA:86,1,_ZN3fmt3v126detail20format_duration_unitIcNSt3__15ratioILl1ELl1000000000000EEENS0_14basic_appenderIcEEEET1_S8_
FNA:86,1,_ZN3fmt3v126detail20format_duration_unitIcNSt3__15ratioILl1ELl1000000000EEENS0_14basic_appenderIcEEEET1_S8_
FNA:86,1,_ZN3fmt3v126detail20format_duration_unitIcNSt3__15ratioILl1ELl1000000EEENS0_14basic_appenderIcEEEET1_S8_
FNA:86,39,_ZN3fmt3v126detail20format_duration_unitIcNSt3__15ratioILl1ELl1000EEENS0_14basic_appenderIcEEEET1_S8_
FNA:86,1,_ZN3fmt3v126detail20format_duration_unitIcNSt3__15ratioILl1ELl100EEENS0_14basic_appenderIcEEEET1_S8_
FNA:86,1,_ZN3fmt3v126detail20format_duration_unitIcNSt3__15ratioILl1ELl10EEENS0_14basic_appenderIcEEEET1_S8_
FNA:86,15,_ZN3fmt3v126detail20format_duration_unitIcNSt3__15ratioILl1ELl1EEENS0_14basic_appenderIcEEEET1_S8_
FNA:86,0,_ZN3fmt3v126detail20format_duration_unitIcNSt3__15ratioILl1ELl3EEENS0_14basic_appenderIcEEEET1_S8_
FNA:86,0,_ZN3fmt3v126detail20format_duration_unitIcNSt3__15ratioILl1ELl7EEENS0_14basic_appenderIcEEEET1_S8_
FNA:86,1,_ZN3fmt3v126detail20format_duration_unitIcNSt3__15ratioILl3600ELl1EEENS0_14basic_appenderIcEEEET1_S8_
FNA:86,1,_ZN3fmt3v126detail20format_duration_unitIcNSt3__15ratioILl60ELl1EEENS0_14basic_appenderIcEEEET1_S8_
FNA:86,1,_ZN3fmt3v126detail20format_duration_unitIcNSt3__15ratioILl86400ELl1EEENS0_14basic_appenderIcEEEET1_S8_
FNA:86,2,_ZN3fmt3v126detail20format_duration_unitIwNSt3__15ratioILl1ELl1EEENS0_14basic_appenderIwEEEET1_S8_
FNL:87,1596,1604
FNA:87,20755,_ZN3fmt3v126detail10get_localeC1EbNS0_10locale_refE
FNA:87,20755,_ZN3fmt3v126detail10get_localeC2EbNS0_10locale_refE
FNL:88,1605,1607
FNA:88,20755,_ZN3fmt3v126detail10get_localeD1Ev
FNA:88,20755,_ZN3fmt3v126detail10get_localeD2Ev
FNL:89,1608,1624
FNA:89,20755,_ZNK3fmt3v126detail10get_localecvRKNSt3__16localeEEv
FNL:90,161,221
FNA:90,7,_ZN3fmt3v1218safe_duration_cast18safe_duration_castINSt3__16chrono8durationIdNS3_5ratioILl1ELl1EEEEEdNS6_ILl1ELl1000000000EEELi0ELi0EEET_NS5_IT0_T1_EERi
FNA:90,18,_ZN3fmt3v1218safe_duration_cast18safe_duration_castINSt3__16chrono8durationIdNS3_5ratioILl1ELl1EEEEEdNS6_ILl1ELl1000EEELi0ELi0EEET_NS5_IT0_T1_EERi
FNA:90,10,_ZN3fmt3v1218safe_duration_cast18safe_duration_castINSt3__16chrono8durationIdNS3_5ratioILl1ELl1EEEEEdS7_Li0ELi0EEET_NS5_IT0_T1_EERi
FNA:90,1,_ZN3fmt3v1218safe_duration_cast18safe_duration_castINSt3__16chrono8durationIdNS3_5ratioILl1ELl3EEEEEdS7_Li0ELi0EEET_NS5_IT0_T1_EERi
FNA:90,0,_ZN3fmt3v1218safe_duration_cast18safe_duration_castINSt3__16chrono8durationIfNS3_5ratioILl1ELl1EEEEEfNS6_ILl1000000000000000000ELl1EEELi0ELi0EEET_NS5_IT0_T1_EERi
FNA:90,0,_ZN3fmt3v1218safe_duration_cast18safe_duration_castINSt3__16chrono8durationIfNS3_5ratioILl1ELl1EEEEEfNS6_ILl1ELl1000000000000000000EEELi0ELi0EEET_NS5_IT0_T1_EERi
FNA:90,1,_ZN3fmt3v1218safe_duration_cast18safe_duration_castINSt3__16chrono8durationIfNS3_5ratioILl1ELl1EEEEEfNS6_ILl1ELl1000000000000EEELi0ELi0EEET_NS5_IT0_T1_EERi
FNA:90,1,_ZN3fmt3v1218safe_duration_cast18safe_duration_castINSt3__16chrono8durationIfNS3_5ratioILl1ELl1EEEEEfNS6_ILl1ELl1000EEELi0ELi0EEET_NS5_IT0_T1_EERi
FNA:90,1,_ZN3fmt3v1218safe_duration_cast18safe_duration_castINSt3__16chrono8durationIfNS3_5ratioILl1ELl1EEEEEfS7_Li0ELi0EEET_NS5_IT0_T1_EERi
FNL:91,1632,1644
FNA:91,1,_ZN3fmt3v126detail18duration_formatterIcaNSt3__15ratioILl1ELl1000EEEEC1ENS0_14basic_appenderIcEENS3_6chrono8durationIaS5_EENS0_10locale_refE
FNA:91,1,_ZN3fmt3v126detail18duration_formatterIcaNSt3__15ratioILl1ELl1000EEEEC2ENS0_14basic_appenderIcEENS3_6chrono8durationIaS5_EENS0_10locale_refE
FNA:91,1,_ZN3fmt3v126detail18duration_formatterIcaNSt3__15ratioILl1ELl100EEEEC1ENS0_14basic_appenderIcEENS3_6chrono8durationIaS5_EENS0_10locale_refE
FNA:91,1,_ZN3fmt3v126detail18duration_formatterIcaNSt3__15ratioILl1ELl100EEEEC2ENS0_14basic_appenderIcEENS3_6chrono8durationIaS5_EENS0_10locale_refE
FNA:91,2,_ZN3fmt3v126detail18duration_formatterIccNSt3__15ratioILl1000000ELl1EEEEC1ENS0_14basic_appenderIcEENS3_6chrono8durationIcS5_EENS0_10locale_refE
FNA:91,2,_ZN3fmt3v126detail18duration_formatterIccNSt3__15ratioILl1000000ELl1EEEEC2ENS0_14basic_appenderIcEENS3_6chrono8durationIcS5_EENS0_10locale_refE
FNA:91,7,_ZN3fmt3v126detail18duration_formatterIcdNSt3__15ratioILl1ELl1000000000EEEEC1ENS0_14basic_appenderIcEENS3_6chrono8durationIdS5_EENS0_10locale_refE
FNA:91,7,_ZN3fmt3v126detail18duration_formatterIcdNSt3__15ratioILl1ELl1000000000EEEEC2ENS0_14basic_appenderIcEENS3_6chrono8durationIdS5_EENS0_10locale_refE
FNA:91,18,_ZN3fmt3v126detail18duration_formatterIcdNSt3__15ratioILl1ELl1000EEEEC1ENS0_14basic_appenderIcEENS3_6chrono8durationIdS5_EENS0_10locale_refE
FNA:91,18,_ZN3fmt3v126detail18duration_formatterIcdNSt3__15ratioILl1ELl1000EEEEC2ENS0_14basic_appenderIcEENS3_6chrono8durationIdS5_EENS0_10locale_refE
FNA:91,9,_ZN3fmt3v126detail18duration_formatterIcdNSt3__15ratioILl1ELl1EEEEC1ENS0_14basic_appenderIcEENS3_6chrono8durationIdS5_EENS0_10locale_refE
FNA:91,9,_ZN3fmt3v126detail18duration_formatterIcdNSt3__15ratioILl1ELl1EEEEC2ENS0_14basic_appenderIcEENS3_6chrono8durationIdS5_EENS0_10locale_refE
FNA:91,0,_ZN3fmt3v126detail18duration_formatterIcfNSt3__15ratioILl1000000000000000000ELl1EEEEC1ENS0_14basic_appenderIcEENS3_6chrono8durationIfS5_EENS0_10locale_refE
FNA:91,0,_ZN3fmt3v126detail18duration_formatterIcfNSt3__15ratioILl1000000000000000000ELl1EEEEC2ENS0_14basic_appenderIcEENS3_6chrono8durationIfS5_EENS0_10locale_refE
FNA:91,0,_ZN3fmt3v126detail18duration_formatterIcfNSt3__15ratioILl1ELl1000000000000000000EEEEC1ENS0_14basic_appenderIcEENS3_6chrono8durationIfS5_EENS0_10locale_refE
FNA:91,0,_ZN3fmt3v126detail18duration_formatterIcfNSt3__15ratioILl1ELl1000000000000000000EEEEC2ENS0_14basic_appenderIcEENS3_6chrono8durationIfS5_EENS0_10locale_refE
FNA:91,1,_ZN3fmt3v126detail18duration_formatterIcfNSt3__15ratioILl1ELl1000000000000EEEEC1ENS0_14basic_appenderIcEENS3_6chrono8durationIfS5_EENS0_10locale_refE
FNA:91,1,_ZN3fmt3v126detail18duration_formatterIcfNSt3__15ratioILl1ELl1000000000000EEEEC2ENS0_14basic_appenderIcEENS3_6chrono8durationIfS5_EENS0_10locale_refE
FNA:91,1,_ZN3fmt3v126detail18duration_formatterIcfNSt3__15ratioILl1ELl1000EEEEC1ENS0_14basic_appenderIcEENS3_6chrono8durationIfS5_EENS0_10locale_refE
FNA:91,1,_ZN3fmt3v126detail18duration_formatterIcfNSt3__15ratioILl1ELl1000EEEEC2ENS0_14basic_appenderIcEENS3_6chrono8durationIfS5_EENS0_10locale_refE
FNA:91,1,_ZN3fmt3v126detail18duration_formatterIcfNSt3__15ratioILl1ELl1EEEEC1ENS0_14basic_appenderIcEENS3_6chrono8durationIfS5_EENS0_10locale_refE
FNA:91,1,_ZN3fmt3v126detail18duration_formatterIcfNSt3__15ratioILl1ELl1EEEEC2ENS0_14basic_appenderIcEENS3_6chrono8durationIfS5_EENS0_10locale_refE
FNA:91,0,_ZN3fmt3v126detail18duration_formatterIciNSt3__15ratioILl1000000000000000000ELl1EEEEC1ENS0_14basic_appenderIcEENS3_6chrono8durationIiS5_EENS0_10locale_refE
FNA:91,0,_ZN3fmt3v126detail18duration_formatterIciNSt3__15ratioILl1000000000000000000ELl1EEEEC2ENS0_14basic_appenderIcEENS3_6chrono8durationIiS5_EENS0_10locale_refE
FNA:91,0,_ZN3fmt3v126detail18duration_formatterIciNSt3__15ratioILl1000000000000000ELl1EEEEC1ENS0_14basic_appenderIcEENS3_6chrono8durationIiS5_EENS0_10locale_refE
FNA:91,0,_ZN3fmt3v126detail18duration_formatterIciNSt3__15ratioILl1000000000000000ELl1EEEEC2ENS0_14basic_appenderIcEENS3_6chrono8durationIiS5_EENS0_10locale_refE
FNA:91,0,_ZN3fmt3v126detail18duration_formatterIciNSt3__15ratioILl1000000000000ELl1EEEEC1ENS0_14basic_appenderIcEENS3_6chrono8durationIiS5_EENS0_10locale_refE
FNA:91,0,_ZN3fmt3v126detail18duration_formatterIciNSt3__15ratioILl1000000000000ELl1EEEEC2ENS0_14basic_appenderIcEENS3_6chrono8durationIiS5_EENS0_10locale_refE
FNA:91,0,_ZN3fmt3v126detail18duration_formatterIciNSt3__15ratioILl1000000000ELl1EEEEC1ENS0_14basic_appenderIcEENS3_6chrono8durationIiS5_EENS0_10locale_refE
FNA:91,0,_ZN3fmt3v126detail18duration_formatterIciNSt3__15ratioILl1000000000ELl1EEEEC2ENS0_14basic_appenderIcEENS3_6chrono8durationIiS5_EENS0_10locale_refE
FNA:91,0,_ZN3fmt3v126detail18duration_formatterIciNSt3__15ratioILl1000000ELl1EEEEC1ENS0_14basic_appenderIcEENS3_6chrono8durationIiS5_EENS0_10locale_refE
FNA:91,0,_ZN3fmt3v126detail18duration_formatterIciNSt3__15ratioILl1000000ELl1EEEEC2ENS0_14basic_appenderIcEENS3_6chrono8durationIiS5_EENS0_10locale_refE
FNA:91,0,_ZN3fmt3v126detail18duration_formatterIciNSt3__15ratioILl1000ELl1EEEEC1ENS0_14basic_appenderIcEENS3_6chrono8durationIiS5_EENS0_10locale_refE
FNA:91,0,_ZN3fmt3v126detail18duration_formatterIciNSt3__15ratioILl1000ELl1EEEEC2ENS0_14basic_appenderIcEENS3_6chrono8durationIiS5_EENS0_10locale_refE
FNA:91,0,_ZN3fmt3v126detail18duration_formatterIciNSt3__15ratioILl100ELl1EEEEC1ENS0_14basic_appenderIcEENS3_6chrono8durationIiS5_EENS0_10locale_refE
FNA:91,0,_ZN3fmt3v126detail18duration_formatterIciNSt3__15ratioILl100ELl1EEEEC2ENS0_14basic_appenderIcEENS3_6chrono8durationIiS5_EENS0_10locale_refE
FNA:91,0,_ZN3fmt3v126detail18duration_formatterIciNSt3__15ratioILl10ELl1EEEEC1ENS0_14basic_appenderIcEENS3_6chrono8durationIiS5_EENS0_10locale_refE
FNA:91,0,_ZN3fmt3v126detail18duration_formatterIciNSt3__15ratioILl10ELl1EEEEC2ENS0_14basic_appenderIcEENS3_6chrono8durationIiS5_EENS0_10locale_refE
FNA:91,0,_ZN3fmt3v126detail18duration_formatterIciNSt3__15ratioILl15ELl1EEEEC1ENS0_14basic_appenderIcEENS3_6chrono8durationIiS5_EENS0_10locale_refE
FNA:91,0,_ZN3fmt3v126detail18duration_formatterIciNSt3__15ratioILl15ELl1EEEEC2ENS0_14basic_appenderIcEENS3_6chrono8durationIiS5_EENS0_10locale_refE
FNA:91,0,_ZN3fmt3v126detail18duration_formatterIciNSt3__15ratioILl15ELl4EEEEC1ENS0_14basic_appenderIcEENS3_6chrono8durationIiS5_EENS0_10locale_refE
FNA:91,0,_ZN3fmt3v126detail18duration_formatterIciNSt3__15ratioILl15ELl4EEEEC2ENS0_14basic_appenderIcEENS3_6chrono8durationIiS5_EENS0_10locale_refE
FNA:91,0,_ZN3fmt3v126detail18duration_formatterIciNSt3__15ratioILl1ELl1000000000000000000EEEEC1ENS0_14basic_appenderIcEENS3_6chrono8durationIiS5_EENS0_10locale_refE
FNA:91,0,_ZN3fmt3v126detail18duration_formatterIciNSt3__15ratioILl1ELl1000000000000000000EEEEC2ENS0_14basic_appenderIcEENS3_6chrono8durationIiS5_EENS0_10locale_refE
FNA:91,0,_ZN3fmt3v126detail18duration_formatterIciNSt3__15ratioILl1ELl1000000000000000EEEEC1ENS0_14basic_appenderIcEENS3_6chrono8durationIiS5_EENS0_10locale_refE
FNA:91,0,_ZN3fmt3v126detail18duration_formatterIciNSt3__15ratioILl1ELl1000000000000000EEEEC2ENS0_14basic_appenderIcEENS3_6chrono8durationIiS5_EENS0_10locale_refE
FNA:91,0,_ZN3fmt3v126detail18duration_formatterIciNSt3__15ratioILl1ELl1000000000000EEEEC1ENS0_14basic_appenderIcEENS3_6chrono8durationIiS5_EENS0_10locale_refE
FNA:91,0,_ZN3fmt3v126detail18duration_formatterIciNSt3__15ratioILl1ELl1000000000000EEEEC2ENS0_14basic_appenderIcEENS3_6chrono8durationIiS5_EENS0_10locale_refE
FNA:91,0,_ZN3fmt3v126detail18duration_formatterIciNSt3__15ratioILl1ELl100EEEEC1ENS0_14basic_appenderIcEENS3_6chrono8durationIiS5_EENS0_10locale_refE
FNA:91,0,_ZN3fmt3v126detail18duration_formatterIciNSt3__15ratioILl1ELl100EEEEC2ENS0_14basic_appenderIcEENS3_6chrono8durationIiS5_EENS0_10locale_refE
FNA:91,0,_ZN3fmt3v126detail18duration_formatterIciNSt3__15ratioILl1ELl10EEEEC1ENS0_14basic_appenderIcEENS3_6chrono8durationIiS5_EENS0_10locale_refE
FNA:91,0,_ZN3fmt3v126detail18duration_formatterIciNSt3__15ratioILl1ELl10EEEEC2ENS0_14basic_appenderIcEENS3_6chrono8durationIiS5_EENS0_10locale_refE
FNA:91,1,_ZN3fmt3v126detail18duration_formatterIciNSt3__15ratioILl1ELl1EEEEC1ENS0_14basic_appenderIcEENS3_6chrono8durationIiS5_EENS0_10locale_refE
FNA:91,1,_ZN3fmt3v126detail18duration_formatterIciNSt3__15ratioILl1ELl1EEEEC2ENS0_14basic_appenderIcEENS3_6chrono8durationIiS5_EENS0_10locale_refE
FNA:91,0,_ZN3fmt3v126detail18duration_formatterIcjNSt3__15ratioILl1ELl1EEEEC1ENS0_14basic_appenderIcEENS3_6chrono8durationIjS5_EENS0_10locale_refE
FNA:91,0,_ZN3fmt3v126detail18duration_formatterIcjNSt3__15ratioILl1ELl1EEEEC2ENS0_14basic_appenderIcEENS3_6chrono8durationIjS5_EENS0_10locale_refE
FNA:91,10,_ZN3fmt3v126detail18duration_formatterIclNSt3__15ratioILl3600ELl1EEEEC1ENS0_14basic_appenderIcEENS3_6chrono8durationIlS5_EENS0_10locale_refE
FNA:91,10,_ZN3fmt3v126detail18duration_formatterIclNSt3__15ratioILl3600ELl1EEEEC2ENS0_14basic_appenderIcEENS3_6chrono8durationIlS5_EENS0_10locale_refE
FNA:91,4,_ZN3fmt3v126detail18duration_formatterIclNSt3__15ratioILl60ELl1EEEEC1ENS0_14basic_appenderIcEENS3_6chrono8durationIlS5_EENS0_10locale_refE
FNA:91,4,_ZN3fmt3v126detail18duration_formatterIclNSt3__15ratioILl60ELl1EEEEC2ENS0_14basic_appenderIcEENS3_6chrono8durationIlS5_EENS0_10locale_refE
FNA:91,2,_ZN3fmt3v126detail18duration_formatterIclNSt3__15ratioILl86400ELl1EEEEC1ENS0_14basic_appenderIcEENS3_6chrono8durationIlS5_EENS0_10locale_refE
FNA:91,2,_ZN3fmt3v126detail18duration_formatterIclNSt3__15ratioILl86400ELl1EEEEC2ENS0_14basic_appenderIcEENS3_6chrono8durationIlS5_EENS0_10locale_refE
FNA:91,1,_ZN3fmt3v126detail18duration_formatterIcmNSt3__15ratioILl1000000000ELl1EEEEC1ENS0_14basic_appenderIcEENS3_6chrono8durationImS5_EENS0_10locale_refE
FNA:91,1,_ZN3fmt3v126detail18duration_formatterIcmNSt3__15ratioILl1000000000ELl1EEEEC2ENS0_14basic_appenderIcEENS3_6chrono8durationImS5_EENS0_10locale_refE
FNA:91,1,_ZN3fmt3v126detail18duration_formatterIcsNSt3__15ratioILl1ELl100EEEEC1ENS0_14basic_appenderIcEENS3_6chrono8durationIsS5_EENS0_10locale_refE
FNA:91,1,_ZN3fmt3v126detail18duration_formatterIcsNSt3__15ratioILl1ELl100EEEEC2ENS0_14basic_appenderIcEENS3_6chrono8durationIsS5_EENS0_10locale_refE
FNA:91,3,_ZN3fmt3v126detail18duration_formatterIcxNSt3__15ratioILl1ELl1000000000000000000EEEEC1ENS0_14basic_appenderIcEENS3_6chrono8durationIxS5_EENS0_10locale_refE
FNA:91,3,_ZN3fmt3v126detail18duration_formatterIcxNSt3__15ratioILl1ELl1000000000000000000EEEEC2ENS0_14basic_appenderIcEENS3_6chrono8durationIxS5_EENS0_10locale_refE
FNA:91,5,_ZN3fmt3v126detail18duration_formatterIcxNSt3__15ratioILl1ELl1000000000EEEEC1ENS0_14basic_appenderIcEENS3_6chrono8durationIxS5_EENS0_10locale_refE
FNA:91,5,_ZN3fmt3v126detail18duration_formatterIcxNSt3__15ratioILl1ELl1000000000EEEEC2ENS0_14basic_appenderIcEENS3_6chrono8durationIxS5_EENS0_10locale_refE
FNA:91,1,_ZN3fmt3v126detail18duration_formatterIcxNSt3__15ratioILl1ELl1000000EEEEC1ENS0_14basic_appenderIcEENS3_6chrono8durationIxS5_EENS0_10locale_refE
FNA:91,1,_ZN3fmt3v126detail18duration_formatterIcxNSt3__15ratioILl1ELl1000000EEEEC2ENS0_14basic_appenderIcEENS3_6chrono8durationIxS5_EENS0_10locale_refE
FNA:91,17,_ZN3fmt3v126detail18duration_formatterIcxNSt3__15ratioILl1ELl1000EEEEC1ENS0_14basic_appenderIcEENS3_6chrono8durationIxS5_EENS0_10locale_refE
FNA:91,17,_ZN3fmt3v126detail18duration_formatterIcxNSt3__15ratioILl1ELl1000EEEEC2ENS0_14basic_appenderIcEENS3_6chrono8durationIxS5_EENS0_10locale_refE
FNA:91,27,_ZN3fmt3v126detail18duration_formatterIcxNSt3__15ratioILl1ELl1EEEEC1ENS0_14basic_appenderIcEENS3_6chrono8durationIxS5_EENS0_10locale_refE
FNA:91,27,_ZN3fmt3v126detail18duration_formatterIcxNSt3__15ratioILl1ELl1EEEEC2ENS0_14basic_appenderIcEENS3_6chrono8durationIxS5_EENS0_10locale_refE
FNA:91,1,_ZN3fmt3v126detail18duration_formatterIcxNSt3__15ratioILl1ELl3EEEEC1ENS0_14basic_appenderIcEENS3_6chrono8durationIxS5_EENS0_10locale_refE
FNA:91,1,_ZN3fmt3v126detail18duration_formatterIcxNSt3__15ratioILl1ELl3EEEEC2ENS0_14basic_appenderIcEENS3_6chrono8durationIxS5_EENS0_10locale_refE
FNA:91,1,_ZN3fmt3v126detail18duration_formatterIcxNSt3__15ratioILl1ELl7EEEEC1ENS0_14basic_appenderIcEENS3_6chrono8durationIxS5_EENS0_10locale_refE
FNA:91,1,_ZN3fmt3v126detail18duration_formatterIcxNSt3__15ratioILl1ELl7EEEEC2ENS0_14basic_appenderIcEENS3_6chrono8durationIxS5_EENS0_10locale_refE
FNA:91,0,_ZN3fmt3v126detail18duration_formatterIwxNSt3__15ratioILl1ELl1EEEEC1ENS0_14basic_appenderIwEENS3_6chrono8durationIxS5_EENS0_10locale_refE
FNA:91,0,_ZN3fmt3v126detail18duration_formatterIwxNSt3__15ratioILl1ELl1EEEEC2ENS0_14basic_appenderIwEENS3_6chrono8durationIxS5_EENS0_10locale_refE
FNL:92,1647,1659
FNA:92,1,_ZN3fmt3v126detail18duration_formatterIcaNSt3__15ratioILl1ELl1000EEEE14handle_nan_infEv
FNA:92,1,_ZN3fmt3v126detail18duration_formatterIcaNSt3__15ratioILl1ELl100EEEE14handle_nan_infEv
FNA:92,4,_ZN3fmt3v126detail18duration_formatterIccNSt3__15ratioILl1000000ELl1EEEE14handle_nan_infEv
FNA:92,13,_ZN3fmt3v126detail18duration_formatterIcdNSt3__15ratioILl1ELl1000000000EEEE14handle_nan_infEv
FNA:92,18,_ZN3fmt3v126detail18duration_formatterIcdNSt3__15ratioILl1ELl1000EEEE14handle_nan_infEv
FNA:92,17,_ZN3fmt3v126detail18duration_formatterIcdNSt3__15ratioILl1ELl1EEEE14handle_nan_infEv
FNA:92,0,_ZN3fmt3v126detail18duration_formatterIcfNSt3__15ratioILl1000000000000000000ELl1EEEE14handle_nan_infEv
FNA:92,0,_ZN3fmt3v126detail18duration_formatterIcfNSt3__15ratioILl1ELl1000000000000000000EEEE14handle_nan_infEv
FNA:92,1,_ZN3fmt3v126detail18duration_formatterIcfNSt3__15ratioILl1ELl1000000000000EEEE14handle_nan_infEv
FNA:92,1,_ZN3fmt3v126detail18duration_formatterIcfNSt3__15ratioILl1ELl1000EEEE14handle_nan_infEv
